
bin/chaintest:	file format elf64-littleriscv

Disassembly of section .text:

0000000000010120 <exit>:
   10120: 41 11        	addi	sp, sp, -0x10
   10122: 81 45        	li	a1, 0x0
   10124: 22 e0        	sd	s0, 0x0(sp)
   10126: 06 e4        	sd	ra, 0x8(sp)
   10128: 2a 84        	mv	s0, a0
   1012a: ef 20 d0 27  	jal	0x12ba6 <__call_exitprocs>
   1012e: 03 b5 81 6f  	ld	a0, 0x6f8(gp)
   10132: 3c 6d        	ld	a5, 0x58(a0)
   10134: 91 c3        	beqz	a5, 0x10138 <exit+0x18>
   10136: 82 97        	jalr	a5
   10138: 22 85        	mv	a0, s0
   1013a: ef c0 70 4a  	jal	0x1cde0 <_exit>

000000000001013e <register_fini>:
   1013e: 93 07 00 00  	li	a5, 0x0
   10142: 99 c7        	beqz	a5, 0x10150 <register_fini+0x12>
   10144: 17 35 00 00  	auipc	a0, 0x3
   10148: 13 05 85 14  	addi	a0, a0, 0x148
   1014c: 6f 20 30 34  	j	0x12c8e <atexit>
   10150: 82 80        	ret

0000000000010152 <_start>:
   10152: 97 11 01 00  	auipc	gp, 0x11
   10156: 93 81 e1 b5  	addi	gp, gp, -0x4a2
   1015a: 13 85 81 72  	addi	a0, gp, 0x728
   1015e: 17 16 01 00  	auipc	a2, 0x11
   10162: 13 06 26 35  	addi	a2, a2, 0x352
   10166: 09 8e        	sub	a2, a2, a0
   10168: 81 45        	li	a1, 0x0
   1016a: ef 00 60 50  	jal	0x10670 <memset>
   1016e: 17 35 00 00  	auipc	a0, 0x3
   10172: 13 05 05 b2  	addi	a0, a0, -0x4e0
   10176: 19 c5        	beqz	a0, 0x10184 <_start+0x32>
   10178: 17 35 00 00  	auipc	a0, 0x3
   1017c: 13 05 45 11  	addi	a0, a0, 0x114
   10180: ef 20 f0 30  	jal	0x12c8e <atexit>
   10184: ef 00 00 48  	jal	0x10604 <__libc_init_array>
   10188: 02 45        	lw	a0, 0x0(sp)
   1018a: 2c 00        	addi	a1, sp, 0x8
   1018c: 01 46        	li	a2, 0x0
   1018e: ef 00 e0 0e  	jal	0x1027c <main>
   10192: 79 b7        	j	0x10120 <exit>

0000000000010194 <__do_global_dtors_aux>:
   10194: 83 c7 01 7a  	lbu	a5, 0x7a0(gp)
   10198: 85 eb        	bnez	a5, 0x101c8 <__do_global_dtors_aux+0x34>
   1019a: 93 07 00 00  	li	a5, 0x0
   1019e: 8d c3        	beqz	a5, 0x101c0 <__do_global_dtors_aux+0x2c>
   101a0: 41 11        	addi	sp, sp, -0x10
   101a2: 17 f5 00 00  	auipc	a0, 0xf
   101a6: 13 05 65 02  	addi	a0, a0, 0x26
   101aa: 06 e4        	sd	ra, 0x8(sp)
   101ac: 97 00 00 00  	auipc	ra, 0x0
   101b0: e7 00 00 00  	jalr	zero
   101b4: a2 60        	ld	ra, 0x8(sp)
   101b6: 85 47        	li	a5, 0x1
   101b8: 23 80 f1 7a  	sb	a5, 0x7a0(gp)
   101bc: 41 01        	addi	sp, sp, 0x10
   101be: 82 80        	ret
   101c0: 85 47        	li	a5, 0x1
   101c2: 23 80 f1 7a  	sb	a5, 0x7a0(gp)
   101c6: 82 80        	ret
   101c8: 82 80        	ret

00000000000101ca <frame_dummy>:
   101ca: 93 07 00 00  	li	a5, 0x0
   101ce: 99 cb        	beqz	a5, 0x101e4 <frame_dummy+0x1a>
   101d0: 93 85 81 7a  	addi	a1, gp, 0x7a8
   101d4: 17 f5 00 00  	auipc	a0, 0xf
   101d8: 13 05 45 ff  	addi	a0, a0, -0xc
   101dc: 17 03 00 00  	auipc	t1, 0x0
   101e0: 67 00 00 00  	jr	zero
   101e4: 82 80        	ret

00000000000101e6 <generate_random_data>:
   101e6: a1 c9        	beqz	a1, 0x10236 <generate_random_data+0x50>
   101e8: 79 71        	addi	sp, sp, -0x30
   101ea: 06 f4        	sd	ra, 0x28(sp)
   101ec: 22 f0        	sd	s0, 0x20(sp)
   101ee: 26 ec        	sd	s1, 0x18(sp)
   101f0: 4a e8        	sd	s2, 0x10(sp)
   101f2: 4e e4        	sd	s3, 0x8(sp)
   101f4: 2e 84        	mv	s0, a1
   101f6: aa 84        	mv	s1, a0
   101f8: 37 85 eb 51  	lui	a0, 0x51eb8
   101fc: 1b 09 f5 51  	addiw	s2, a0, 0x51f
   10200: 93 09 40 06  	li	s3, 0x64
   10204: ef 00 60 57  	jal	0x1077a <rand>
   10208: b3 05 25 03  	mul	a1, a0, s2
   1020c: 13 d6 f5 03  	srli	a2, a1, 0x3f
   10210: 95 95        	srai	a1, a1, 0x25
   10212: b2 95        	add	a1, a1, a2
   10214: b3 85 35 03  	mul	a1, a1, s3
   10218: 0d 9d        	subw	a0, a0, a1
   1021a: 33 05 35 03  	mul	a0, a0, s3
   1021e: d3 07 05 d2  	fcvt.d.w	fa5, a0
   10222: 9c a0        	fsd	fa5, 0x0(s1)
   10224: 7d 14        	addi	s0, s0, -0x1
   10226: a1 04        	addi	s1, s1, 0x8
   10228: 71 fc        	bnez	s0, 0x10204 <generate_random_data+0x1e>
   1022a: a2 70        	ld	ra, 0x28(sp)
   1022c: 02 74        	ld	s0, 0x20(sp)
   1022e: e2 64        	ld	s1, 0x18(sp)
   10230: 42 69        	ld	s2, 0x10(sp)
   10232: a2 69        	ld	s3, 0x8(sp)
   10234: 45 61        	addi	sp, sp, 0x30
   10236: 82 80        	ret

0000000000010238 <vector_f64_operation>:
   10238: 79 71        	addi	sp, sp, -0x30
   1023a: 06 f4        	sd	ra, 0x28(sp)
   1023c: 22 f0        	sd	s0, 0x20(sp)
   1023e: 26 ec        	sd	s1, 0x18(sp)
   10240: 4a e8        	sd	s2, 0x10(sp)
   10242: 4e e4        	sd	s3, 0x8(sp)
   10244: 36 89        	mv	s2, a3
   10246: b2 89        	mv	s3, a2
   10248: 2e 84        	mv	s0, a1
   1024a: aa 84        	mv	s1, a0
   1024c: 01 45        	li	a0, 0x0
   1024e: 81 45        	li	a1, 0x0
   10250: ef 00 00 36  	jal	0x105b0 <m5_reset_stats>
   10254: 41 45        	li	a0, 0x10
   10256: 57 70 85 0d  	vsetvli	zero, a0, e64, m1, ta, ma
   1025a: 87 f0 04 02  	vle64.v	v1, (s1)
   1025e: 07 71 04 02  	vle64.v	v2, (s0)
   10262: d7 11 11 92  	vfmul.vv	v3, v1, v2
   10266: a7 71 09 02  	vse64.v	v3, (s2)
   1026a: 01 45        	li	a0, 0x0
   1026c: 81 45        	li	a1, 0x0
   1026e: a2 70        	ld	ra, 0x28(sp)
   10270: 02 74        	ld	s0, 0x20(sp)
   10272: e2 64        	ld	s1, 0x18(sp)
   10274: 42 69        	ld	s2, 0x10(sp)
   10276: a2 69        	ld	s3, 0x8(sp)
   10278: 45 61        	addi	sp, sp, 0x30
   1027a: 35 ae        	j	0x105b6 <m5_dump_stats>

000000000001027c <main>:
   1027c: 13 01 01 dd  	addi	sp, sp, -0x230
   10280: 23 34 11 22  	sd	ra, 0x228(sp)
   10284: 23 30 81 22  	sd	s0, 0x220(sp)
   10288: 23 3c 91 20  	sd	s1, 0x218(sp)
   1028c: 23 38 21 21  	sd	s2, 0x210(sp)
   10290: 23 34 31 21  	sd	s3, 0x208(sp)
   10294: 01 45        	li	a0, 0x0
   10296: ef 00 20 50  	jal	0x10798 <time>
   1029a: 01 25        	sext.w	a0, a0
   1029c: ef 00 20 4d  	jal	0x1076e <srand>
   102a0: 20 03        	addi	s0, sp, 0x188
   102a2: 13 09 81 20  	addi	s2, sp, 0x208
   102a6: 37 85 eb 51  	lui	a0, 0x51eb8
   102aa: 9b 09 f5 51  	addiw	s3, a0, 0x51f
   102ae: 93 04 40 06  	li	s1, 0x64
   102b2: ef 00 80 4c  	jal	0x1077a <rand>
   102b6: b3 05 35 03  	mul	a1, a0, s3
   102ba: 13 d6 f5 03  	srli	a2, a1, 0x3f
   102be: 95 95        	srai	a1, a1, 0x25
   102c0: b2 95        	add	a1, a1, a2
   102c2: b3 85 95 02  	mul	a1, a1, s1
   102c6: 0d 9d        	subw	a0, a0, a1
   102c8: 33 05 95 02  	mul	a0, a0, s1
   102cc: d3 07 05 d2  	fcvt.d.w	fa5, a0
   102d0: 1c a0        	fsd	fa5, 0x0(s0)
   102d2: 21 04        	addi	s0, s0, 0x8
   102d4: e3 1f 24 fd  	bne	s0, s2, 0x102b2 <main+0x36>
   102d8: 20 02        	addi	s0, sp, 0x108
   102da: 13 09 81 18  	addi	s2, sp, 0x188
   102de: 37 85 eb 51  	lui	a0, 0x51eb8
   102e2: 9b 09 f5 51  	addiw	s3, a0, 0x51f
   102e6: 93 04 40 06  	li	s1, 0x64
   102ea: ef 00 00 49  	jal	0x1077a <rand>
   102ee: b3 05 35 03  	mul	a1, a0, s3
   102f2: 13 d6 f5 03  	srli	a2, a1, 0x3f
   102f6: 95 95        	srai	a1, a1, 0x25
   102f8: b2 95        	add	a1, a1, a2
   102fa: b3 85 95 02  	mul	a1, a1, s1
   102fe: 0d 9d        	subw	a0, a0, a1
   10300: 33 05 95 02  	mul	a0, a0, s1
   10304: d3 07 05 d2  	fcvt.d.w	fa5, a0
   10308: 1c a0        	fsd	fa5, 0x0(s0)
   1030a: 21 04        	addi	s0, s0, 0x8
   1030c: e3 1f 24 fd  	bne	s0, s2, 0x102ea <main+0x6e>
   10310: 20 01        	addi	s0, sp, 0x88
   10312: 13 09 81 10  	addi	s2, sp, 0x108
   10316: 37 85 eb 51  	lui	a0, 0x51eb8
   1031a: 9b 09 f5 51  	addiw	s3, a0, 0x51f
   1031e: 93 04 40 06  	li	s1, 0x64
   10322: ef 00 80 45  	jal	0x1077a <rand>
   10326: b3 05 35 03  	mul	a1, a0, s3
   1032a: 13 d6 f5 03  	srli	a2, a1, 0x3f
   1032e: 95 95        	srai	a1, a1, 0x25
   10330: b2 95        	add	a1, a1, a2
   10332: b3 85 95 02  	mul	a1, a1, s1
   10336: 0d 9d        	subw	a0, a0, a1
   10338: 33 05 95 02  	mul	a0, a0, s1
   1033c: d3 07 05 d2  	fcvt.d.w	fa5, a0
   10340: 1c a0        	fsd	fa5, 0x0(s0)
   10342: 21 04        	addi	s0, s0, 0x8
   10344: e3 1f 24 fd  	bne	s0, s2, 0x10322 <main+0xa6>
   10348: 2a 68        	ld	a6, 0x88(sp)
   1034a: 32 67        	ld	a4, 0x108(sp)
   1034c: 3a 66        	ld	a2, 0x188(sp)
   1034e: 79 65        	lui	a0, 0x1e
   10350: 13 04 05 44  	addi	s0, a0, 0x440
   10354: 22 85        	mv	a0, s0
   10356: 81 45        	li	a1, 0x0
   10358: 81 46        	li	a3, 0x0
   1035a: 81 47        	li	a5, 0x0
   1035c: ef 00 60 3e  	jal	0x10742 <printf>
   10360: 4a 68        	ld	a6, 0x90(sp)
   10362: 52 67        	ld	a4, 0x110(sp)
   10364: 5a 66        	ld	a2, 0x190(sp)
   10366: 85 45        	li	a1, 0x1
   10368: 85 46        	li	a3, 0x1
   1036a: 85 47        	li	a5, 0x1
   1036c: 22 85        	mv	a0, s0
   1036e: ef 00 40 3d  	jal	0x10742 <printf>
   10372: 6a 68        	ld	a6, 0x98(sp)
   10374: 72 67        	ld	a4, 0x118(sp)
   10376: 7a 66        	ld	a2, 0x198(sp)
   10378: 89 45        	li	a1, 0x2
   1037a: 89 46        	li	a3, 0x2
   1037c: 89 47        	li	a5, 0x2
   1037e: 22 85        	mv	a0, s0
   10380: ef 00 20 3c  	jal	0x10742 <printf>
   10384: 0a 78        	ld	a6, 0xa0(sp)
   10386: 12 77        	ld	a4, 0x120(sp)
   10388: 1a 76        	ld	a2, 0x1a0(sp)
   1038a: 8d 45        	li	a1, 0x3
   1038c: 8d 46        	li	a3, 0x3
   1038e: 8d 47        	li	a5, 0x3
   10390: 22 85        	mv	a0, s0
   10392: ef 00 00 3b  	jal	0x10742 <printf>
   10396: 2a 78        	ld	a6, 0xa8(sp)
   10398: 32 77        	ld	a4, 0x128(sp)
   1039a: 3a 76        	ld	a2, 0x1a8(sp)
   1039c: 91 45        	li	a1, 0x4
   1039e: 91 46        	li	a3, 0x4
   103a0: 91 47        	li	a5, 0x4
   103a2: 22 85        	mv	a0, s0
   103a4: ef 00 e0 39  	jal	0x10742 <printf>
   103a8: 4a 78        	ld	a6, 0xb0(sp)
   103aa: 52 77        	ld	a4, 0x130(sp)
   103ac: 5a 76        	ld	a2, 0x1b0(sp)
   103ae: 95 45        	li	a1, 0x5
   103b0: 95 46        	li	a3, 0x5
   103b2: 95 47        	li	a5, 0x5
   103b4: 22 85        	mv	a0, s0
   103b6: ef 00 c0 38  	jal	0x10742 <printf>
   103ba: 6a 78        	ld	a6, 0xb8(sp)
   103bc: 72 77        	ld	a4, 0x138(sp)
   103be: 7a 76        	ld	a2, 0x1b8(sp)
   103c0: 99 45        	li	a1, 0x6
   103c2: 99 46        	li	a3, 0x6
   103c4: 99 47        	li	a5, 0x6
   103c6: 22 85        	mv	a0, s0
   103c8: ef 00 a0 37  	jal	0x10742 <printf>
   103cc: 0e 68        	ld	a6, 0xc0(sp)
   103ce: 16 67        	ld	a4, 0x140(sp)
   103d0: 1e 66        	ld	a2, 0x1c0(sp)
   103d2: 9d 45        	li	a1, 0x7
   103d4: 9d 46        	li	a3, 0x7
   103d6: 9d 47        	li	a5, 0x7
   103d8: 22 85        	mv	a0, s0
   103da: ef 00 80 36  	jal	0x10742 <printf>
   103de: 2e 68        	ld	a6, 0xc8(sp)
   103e0: 36 67        	ld	a4, 0x148(sp)
   103e2: 3e 66        	ld	a2, 0x1c8(sp)
   103e4: a1 45        	li	a1, 0x8
   103e6: a1 46        	li	a3, 0x8
   103e8: a1 47        	li	a5, 0x8
   103ea: 22 85        	mv	a0, s0
   103ec: ef 00 60 35  	jal	0x10742 <printf>
   103f0: 4e 68        	ld	a6, 0xd0(sp)
   103f2: 56 67        	ld	a4, 0x150(sp)
   103f4: 5e 66        	ld	a2, 0x1d0(sp)
   103f6: a5 45        	li	a1, 0x9
   103f8: a5 46        	li	a3, 0x9
   103fa: a5 47        	li	a5, 0x9
   103fc: 22 85        	mv	a0, s0
   103fe: ef 00 40 34  	jal	0x10742 <printf>
   10402: 6e 68        	ld	a6, 0xd8(sp)
   10404: 76 67        	ld	a4, 0x158(sp)
   10406: 7e 66        	ld	a2, 0x1d8(sp)
   10408: a9 45        	li	a1, 0xa
   1040a: a9 46        	li	a3, 0xa
   1040c: a9 47        	li	a5, 0xa
   1040e: 22 85        	mv	a0, s0
   10410: ef 00 20 33  	jal	0x10742 <printf>
   10414: 0e 78        	ld	a6, 0xe0(sp)
   10416: 16 77        	ld	a4, 0x160(sp)
   10418: 1e 76        	ld	a2, 0x1e0(sp)
   1041a: ad 45        	li	a1, 0xb
   1041c: ad 46        	li	a3, 0xb
   1041e: ad 47        	li	a5, 0xb
   10420: 22 85        	mv	a0, s0
   10422: ef 00 00 32  	jal	0x10742 <printf>
   10426: 2e 78        	ld	a6, 0xe8(sp)
   10428: 36 77        	ld	a4, 0x168(sp)
   1042a: 3e 76        	ld	a2, 0x1e8(sp)
   1042c: b1 45        	li	a1, 0xc
   1042e: b1 46        	li	a3, 0xc
   10430: b1 47        	li	a5, 0xc
   10432: 22 85        	mv	a0, s0
   10434: ef 00 e0 30  	jal	0x10742 <printf>
   10438: 4e 78        	ld	a6, 0xf0(sp)
   1043a: 56 77        	ld	a4, 0x170(sp)
   1043c: 5e 76        	ld	a2, 0x1f0(sp)
   1043e: b5 45        	li	a1, 0xd
   10440: b5 46        	li	a3, 0xd
   10442: b5 47        	li	a5, 0xd
   10444: 22 85        	mv	a0, s0
   10446: ef 00 c0 2f  	jal	0x10742 <printf>
   1044a: 6e 78        	ld	a6, 0xf8(sp)
   1044c: 76 77        	ld	a4, 0x178(sp)
   1044e: 7e 76        	ld	a2, 0x1f8(sp)
   10450: b9 45        	li	a1, 0xe
   10452: b9 46        	li	a3, 0xe
   10454: b9 47        	li	a5, 0xe
   10456: 22 85        	mv	a0, s0
   10458: ef 00 a0 2e  	jal	0x10742 <printf>
   1045c: 12 68        	ld	a6, 0x100(sp)
   1045e: 1a 67        	ld	a4, 0x180(sp)
   10460: 03 36 01 20  	ld	a2, 0x200(sp)
   10464: bd 45        	li	a1, 0xf
   10466: bd 46        	li	a3, 0xf
   10468: bd 47        	li	a5, 0xf
   1046a: 22 85        	mv	a0, s0
   1046c: ef 00 60 2d  	jal	0x10742 <printf>
   10470: 13 05 f0 3f  	li	a0, 0x3ff
   10474: 52 15        	slli	a0, a0, 0x34
   10476: 2a e4        	sd	a0, 0x8(sp)
   10478: 01 45        	li	a0, 0x0
   1047a: 81 45        	li	a1, 0x0
   1047c: ef 00 40 13  	jal	0x105b0 <m5_reset_stats>
   10480: 28 03        	addi	a0, sp, 0x188
   10482: 2c 02        	addi	a1, sp, 0x108
   10484: 30 01        	addi	a2, sp, 0x88
   10486: 34 00        	addi	a3, sp, 0x8
   10488: 41 47        	li	a4, 0x10
   1048a: 57 70 87 0d  	vsetvli	zero, a4, e64, m1, ta, ma
   1048e: 87 70 05 02  	vle64.v	v1, (a0)
   10492: 07 f1 05 02  	vle64.v	v2, (a1)
   10496: d7 11 11 92  	vfmul.vv	v3, v1, v2
   1049a: a7 f1 06 02  	vse64.v	v3, (a3)
   1049e: 01 45        	li	a0, 0x0
   104a0: 81 45        	li	a1, 0x0
   104a2: ef 00 40 11  	jal	0x105b6 <m5_dump_stats>
   104a6: 22 66        	ld	a2, 0x8(sp)
   104a8: 79 65        	lui	a0, 0x1e
   104aa: 13 04 a5 46  	addi	s0, a0, 0x46a
   104ae: 22 85        	mv	a0, s0
   104b0: 81 45        	li	a1, 0x0
   104b2: ef 00 00 29  	jal	0x10742 <printf>
   104b6: 42 66        	ld	a2, 0x10(sp)
   104b8: 85 45        	li	a1, 0x1
   104ba: 22 85        	mv	a0, s0
   104bc: ef 00 60 28  	jal	0x10742 <printf>
   104c0: 62 66        	ld	a2, 0x18(sp)
   104c2: 89 45        	li	a1, 0x2
   104c4: 22 85        	mv	a0, s0
   104c6: ef 00 c0 27  	jal	0x10742 <printf>
   104ca: 02 76        	ld	a2, 0x20(sp)
   104cc: 8d 45        	li	a1, 0x3
   104ce: 22 85        	mv	a0, s0
   104d0: ef 00 20 27  	jal	0x10742 <printf>
   104d4: 22 76        	ld	a2, 0x28(sp)
   104d6: 91 45        	li	a1, 0x4
   104d8: 22 85        	mv	a0, s0
   104da: ef 00 80 26  	jal	0x10742 <printf>
   104de: 42 76        	ld	a2, 0x30(sp)
   104e0: 95 45        	li	a1, 0x5
   104e2: 22 85        	mv	a0, s0
   104e4: ef 00 e0 25  	jal	0x10742 <printf>
   104e8: 62 76        	ld	a2, 0x38(sp)
   104ea: 99 45        	li	a1, 0x6
   104ec: 22 85        	mv	a0, s0
   104ee: ef 00 40 25  	jal	0x10742 <printf>
   104f2: 06 66        	ld	a2, 0x40(sp)
   104f4: 9d 45        	li	a1, 0x7
   104f6: 22 85        	mv	a0, s0
   104f8: ef 00 a0 24  	jal	0x10742 <printf>
   104fc: 26 66        	ld	a2, 0x48(sp)
   104fe: a1 45        	li	a1, 0x8
   10500: 22 85        	mv	a0, s0
   10502: ef 00 00 24  	jal	0x10742 <printf>
   10506: 46 66        	ld	a2, 0x50(sp)
   10508: a5 45        	li	a1, 0x9
   1050a: 22 85        	mv	a0, s0
   1050c: ef 00 60 23  	jal	0x10742 <printf>
   10510: 66 66        	ld	a2, 0x58(sp)
   10512: a9 45        	li	a1, 0xa
   10514: 22 85        	mv	a0, s0
   10516: ef 00 c0 22  	jal	0x10742 <printf>
   1051a: 06 76        	ld	a2, 0x60(sp)
   1051c: ad 45        	li	a1, 0xb
   1051e: 22 85        	mv	a0, s0
   10520: ef 00 20 22  	jal	0x10742 <printf>
   10524: 26 76        	ld	a2, 0x68(sp)
   10526: b1 45        	li	a1, 0xc
   10528: 22 85        	mv	a0, s0
   1052a: ef 00 80 21  	jal	0x10742 <printf>
   1052e: 46 76        	ld	a2, 0x70(sp)
   10530: b5 45        	li	a1, 0xd
   10532: 22 85        	mv	a0, s0
   10534: ef 00 e0 20  	jal	0x10742 <printf>
   10538: 66 76        	ld	a2, 0x78(sp)
   1053a: b9 45        	li	a1, 0xe
   1053c: 22 85        	mv	a0, s0
   1053e: ef 00 40 20  	jal	0x10742 <printf>
   10542: 0a 66        	ld	a2, 0x80(sp)
   10544: bd 45        	li	a1, 0xf
   10546: 22 85        	mv	a0, s0
   10548: ef 00 a0 1f  	jal	0x10742 <printf>
   1054c: 01 45        	li	a0, 0x0
   1054e: 83 30 81 22  	ld	ra, 0x228(sp)
   10552: 03 34 01 22  	ld	s0, 0x220(sp)
   10556: 83 34 81 21  	ld	s1, 0x218(sp)
   1055a: 03 39 01 21  	ld	s2, 0x210(sp)
   1055e: 83 39 81 20  	ld	s3, 0x208(sp)
   10562: 13 01 01 23  	addi	sp, sp, 0x230
   10566: 82 80        	ret

0000000000010568 <m5_arm>:
   10568: 7b 00 00 00  	<unknown>
   1056c: 82 80        	ret

000000000001056e <m5_quiesce>:
   1056e: 7b 00 00 02  	<unknown>
   10572: 82 80        	ret

0000000000010574 <m5_quiesce_ns>:
   10574: 7b 00 00 04  	<unknown>
   10578: 82 80        	ret

000000000001057a <m5_quiesce_cycle>:
   1057a: 7b 00 00 06  	<unknown>
   1057e: 82 80        	ret

0000000000010580 <m5_quiesce_time>:
   10580: 7b 00 00 08  	<unknown>
   10584: 82 80        	ret

0000000000010586 <m5_rpns>:
   10586: 7b 00 00 0e  	<unknown>
   1058a: 82 80        	ret

000000000001058c <m5_wake_cpu>:
   1058c: 7b 00 00 12  	<unknown>
   10590: 82 80        	ret

0000000000010592 <m5_exit>:
   10592: 7b 00 00 42  	<unknown>
   10596: 82 80        	ret

0000000000010598 <m5_fail>:
   10598: 7b 00 00 44  	<unknown>
   1059c: 82 80        	ret

000000000001059e <m5_sum>:
   1059e: 7b 00 00 46  	<unknown>
   105a2: 82 80        	ret

00000000000105a4 <m5_init_param>:
   105a4: 7b 00 00 60  	<unknown>
   105a8: 82 80        	ret

00000000000105aa <m5_load_symbol>:
   105aa: 7b 00 00 62  	<unknown>
   105ae: 82 80        	ret

00000000000105b0 <m5_reset_stats>:
   105b0: 7b 00 00 80  	<unknown>
   105b4: 82 80        	ret

00000000000105b6 <m5_dump_stats>:
   105b6: 7b 00 00 82  	<unknown>
   105ba: 82 80        	ret

00000000000105bc <m5_dump_reset_stats>:
   105bc: 7b 00 00 84  	<unknown>
   105c0: 82 80        	ret

00000000000105c2 <m5_checkpoint>:
   105c2: 7b 00 00 86  	<unknown>
   105c6: 82 80        	ret

00000000000105c8 <m5_write_file>:
   105c8: 7b 00 00 9e  	<unknown>
   105cc: 82 80        	ret

00000000000105ce <m5_read_file>:
   105ce: 7b 00 00 a0  	<unknown>
   105d2: 82 80        	ret

00000000000105d4 <m5_debug_break>:
   105d4: 7b 00 00 a2  	<unknown>
   105d8: 82 80        	ret

00000000000105da <m5_switch_cpu>:
   105da: 7b 00 00 a4  	<unknown>
   105de: 82 80        	ret

00000000000105e0 <m5_add_symbol>:
   105e0: 7b 00 00 a6  	<unknown>
   105e4: 82 80        	ret

00000000000105e6 <m5_panic>:
   105e6: 7b 00 00 a8  	<unknown>
   105ea: 82 80        	ret

00000000000105ec <m5_work_begin>:
   105ec: 7b 00 00 b4  	<unknown>
   105f0: 82 80        	ret

00000000000105f2 <m5_work_end>:
   105f2: 7b 00 00 b6  	<unknown>
   105f6: 82 80        	ret

00000000000105f8 <m5_dist_toggle_sync>:
   105f8: 7b 00 00 c4  	<unknown>
   105fc: 82 80        	ret

00000000000105fe <m5_workload>:
   105fe: 7b 00 00 e0  	<unknown>
   10602: 82 80        	ret

0000000000010604 <__libc_init_array>:
   10604: 01 11        	addi	sp, sp, -0x20
   10606: 22 e8        	sd	s0, 0x10(sp)
   10608: 4a e0        	sd	s2, 0x0(sp)
   1060a: 97 07 01 00  	auipc	a5, 0x10
   1060e: 93 87 67 c3  	addi	a5, a5, -0x3ca
   10612: 17 04 01 00  	auipc	s0, 0x10
   10616: 13 04 e4 c2  	addi	s0, s0, -0x3d2
   1061a: 06 ec        	sd	ra, 0x18(sp)
   1061c: 26 e4        	sd	s1, 0x8(sp)
   1061e: 33 89 87 40  	sub	s2, a5, s0
   10622: 63 8b 87 00  	beq	a5, s0, 0x10638 <__libc_init_array+0x34>
   10626: 13 59 39 40  	srai	s2, s2, 0x3
   1062a: 81 44        	li	s1, 0x0
   1062c: 1c 60        	ld	a5, 0x0(s0)
   1062e: 85 04        	addi	s1, s1, 0x1
   10630: 21 04        	addi	s0, s0, 0x8
   10632: 82 97        	jalr	a5
   10634: e3 ec 24 ff  	bltu	s1, s2, 0x1062c <__libc_init_array+0x28>
   10638: 97 07 01 00  	auipc	a5, 0x10
   1063c: 93 87 87 c1  	addi	a5, a5, -0x3e8
   10640: 17 04 01 00  	auipc	s0, 0x10
   10644: 13 04 04 c0  	addi	s0, s0, -0x400
   10648: 33 89 87 40  	sub	s2, a5, s0
   1064c: 13 59 39 40  	srai	s2, s2, 0x3
   10650: 63 89 87 00  	beq	a5, s0, 0x10662 <__libc_init_array+0x5e>
   10654: 81 44        	li	s1, 0x0
   10656: 1c 60        	ld	a5, 0x0(s0)
   10658: 85 04        	addi	s1, s1, 0x1
   1065a: 21 04        	addi	s0, s0, 0x8
   1065c: 82 97        	jalr	a5
   1065e: e3 ec 24 ff  	bltu	s1, s2, 0x10656 <__libc_init_array+0x52>
   10662: e2 60        	ld	ra, 0x18(sp)
   10664: 42 64        	ld	s0, 0x10(sp)
   10666: a2 64        	ld	s1, 0x8(sp)
   10668: 02 69        	ld	s2, 0x0(sp)
   1066a: 05 61        	addi	sp, sp, 0x20
   1066c: 82 80        	ret
   1066e: 00 00        	unimp

0000000000010670 <memset>:
   10670: 3d 43        	li	t1, 0xf
   10672: 2a 87        	mv	a4, a0
   10674: 63 71 c3 02  	bgeu	t1, a2, 0x10696 <memset+0x26>
   10678: 93 77 f7 00  	andi	a5, a4, 0xf
   1067c: c1 e3        	bnez	a5, 0x106fc <memset+0x8c>
   1067e: bd e1        	bnez	a1, 0x106e4 <memset+0x74>
   10680: 93 76 06 ff  	andi	a3, a2, -0x10
   10684: 3d 8a        	andi	a2, a2, 0xf
   10686: ba 96        	add	a3, a3, a4
   10688: 0c e3        	sd	a1, 0x0(a4)
   1068a: 0c e7        	sd	a1, 0x8(a4)
   1068c: 41 07        	addi	a4, a4, 0x10
   1068e: e3 6d d7 fe  	bltu	a4, a3, 0x10688 <memset+0x18>
   10692: 11 e2        	bnez	a2, 0x10696 <memset+0x26>
   10694: 82 80        	ret
   10696: b3 06 c3 40  	sub	a3, t1, a2
   1069a: 8a 06        	slli	a3, a3, 0x2
   1069c: 97 02 00 00  	auipc	t0, 0x0
   106a0: 96 96        	add	a3, a3, t0
   106a2: 67 80 a6 00  	jr	0xa(a3)
   106a6: 23 07 b7 00  	sb	a1, 0xe(a4)
   106aa: a3 06 b7 00  	sb	a1, 0xd(a4)
   106ae: 23 06 b7 00  	sb	a1, 0xc(a4)
   106b2: a3 05 b7 00  	sb	a1, 0xb(a4)
   106b6: 23 05 b7 00  	sb	a1, 0xa(a4)
   106ba: a3 04 b7 00  	sb	a1, 0x9(a4)
   106be: 23 04 b7 00  	sb	a1, 0x8(a4)
   106c2: a3 03 b7 00  	sb	a1, 0x7(a4)
   106c6: 23 03 b7 00  	sb	a1, 0x6(a4)
   106ca: a3 02 b7 00  	sb	a1, 0x5(a4)
   106ce: 23 02 b7 00  	sb	a1, 0x4(a4)
   106d2: a3 01 b7 00  	sb	a1, 0x3(a4)
   106d6: 23 01 b7 00  	sb	a1, 0x2(a4)
   106da: a3 00 b7 00  	sb	a1, 0x1(a4)
   106de: 23 00 b7 00  	sb	a1, 0x0(a4)
   106e2: 82 80        	ret
   106e4: 93 f5 f5 0f  	andi	a1, a1, 0xff
   106e8: 93 96 85 00  	slli	a3, a1, 0x8
   106ec: d5 8d        	or	a1, a1, a3
   106ee: 93 96 05 01  	slli	a3, a1, 0x10
   106f2: d5 8d        	or	a1, a1, a3
   106f4: 93 96 05 02  	slli	a3, a1, 0x20
   106f8: d5 8d        	or	a1, a1, a3
   106fa: 59 b7        	j	0x10680 <memset+0x10>
   106fc: 93 96 27 00  	slli	a3, a5, 0x2
   10700: 97 02 00 00  	auipc	t0, 0x0
   10704: 96 96        	add	a3, a3, t0
   10706: 86 82        	mv	t0, ra
   10708: e7 80 26 fa  	jalr	-0x5e(a3)
   1070c: 96 80        	mv	ra, t0
   1070e: c1 17        	addi	a5, a5, -0x10
   10710: 1d 8f        	sub	a4, a4, a5
   10712: 3e 96        	add	a2, a2, a5
   10714: e3 71 c3 f8  	bgeu	t1, a2, 0x10696 <memset+0x26>
   10718: 9d b7        	j	0x1067e <memset+0xe>

000000000001071a <_printf_r>:
   1071a: 5d 71        	addi	sp, sp, -0x50
   1071c: 2e 8e        	mv	t3, a1
   1071e: 0c 69        	ld	a1, 0x10(a0)
   10720: 13 03 01 02  	addi	t1, sp, 0x20
   10724: 32 f0        	sd	a2, 0x20(sp)
   10726: 36 f4        	sd	a3, 0x28(sp)
   10728: 72 86        	mv	a2, t3
   1072a: 9a 86        	mv	a3, t1
   1072c: 06 ec        	sd	ra, 0x18(sp)
   1072e: 3a f8        	sd	a4, 0x30(sp)
   10730: 3e fc        	sd	a5, 0x38(sp)
   10732: c2 e0        	sd	a6, 0x40(sp)
   10734: c6 e4        	sd	a7, 0x48(sp)
   10736: 1a e4        	sd	t1, 0x8(sp)
   10738: ef 00 a0 08  	jal	0x107c2 <_vfprintf_r>
   1073c: e2 60        	ld	ra, 0x18(sp)
   1073e: 61 61        	addi	sp, sp, 0x50
   10740: 82 80        	ret

0000000000010742 <printf>:
   10742: 03 b3 81 70  	ld	t1, 0x708(gp)
   10746: 1d 71        	addi	sp, sp, -0x60
   10748: 32 f8        	sd	a2, 0x30(sp)
   1074a: 36 fc        	sd	a3, 0x38(sp)
   1074c: 2e f4        	sd	a1, 0x28(sp)
   1074e: ba e0        	sd	a4, 0x40(sp)
   10750: be e4        	sd	a5, 0x48(sp)
   10752: c2 e8        	sd	a6, 0x50(sp)
   10754: c6 ec        	sd	a7, 0x58(sp)
   10756: 83 35 03 01  	ld	a1, 0x10(t1)
   1075a: 34 10        	addi	a3, sp, 0x28
   1075c: 2a 86        	mv	a2, a0
   1075e: 1a 85        	mv	a0, t1
   10760: 06 ec        	sd	ra, 0x18(sp)
   10762: 36 e4        	sd	a3, 0x8(sp)
   10764: ef 00 e0 05  	jal	0x107c2 <_vfprintf_r>
   10768: e2 60        	ld	ra, 0x18(sp)
   1076a: 25 61        	addi	sp, sp, 0x60
   1076c: 82 80        	ret

000000000001076e <srand>:
   1076e: 83 b7 81 70  	ld	a5, 0x708(gp)
   10772: 02 15        	slli	a0, a0, 0x20
   10774: 01 91        	srli	a0, a0, 0x20
   10776: e8 f7        	sd	a0, 0xe8(a5)
   10778: 82 80        	ret

000000000001077a <rand>:
   1077a: 03 b7 81 70  	ld	a4, 0x708(gp)
   1077e: 97 16 01 00  	auipc	a3, 0x11
   10782: 83 b6 26 bf  	ld	a3, -0x40e(a3)
   10786: 7c 77        	ld	a5, 0xe8(a4)
   10788: b3 87 d7 02  	mul	a5, a5, a3
   1078c: 85 07        	addi	a5, a5, 0x1
   1078e: 13 95 17 00  	slli	a0, a5, 0x1
   10792: 7c f7        	sd	a5, 0xe8(a4)
   10794: 05 91        	srli	a0, a0, 0x21
   10796: 82 80        	ret

0000000000010798 <time>:
   10798: 01 11        	addi	sp, sp, -0x20
   1079a: 22 e8        	sd	s0, 0x10(sp)
   1079c: 2a 84        	mv	s0, a0
   1079e: 03 b5 81 70  	ld	a0, 0x708(gp)
   107a2: 01 46        	li	a2, 0x0
   107a4: 8a 85        	mv	a1, sp
   107a6: 06 ec        	sd	ra, 0x18(sp)
   107a8: ef 20 90 73  	jal	0x136e0 <_gettimeofday_r>
   107ac: fd 57        	li	a5, -0x1
   107ae: 63 43 05 00  	bltz	a0, 0x107b4 <time+0x1c>
   107b2: 82 67        	ld	a5, 0x0(sp)
   107b4: 11 c0        	beqz	s0, 0x107b8 <time+0x20>
   107b6: 1c e0        	sd	a5, 0x0(s0)
   107b8: e2 60        	ld	ra, 0x18(sp)
   107ba: 42 64        	ld	s0, 0x10(sp)
   107bc: 3e 85        	mv	a0, a5
   107be: 05 61        	addi	sp, sp, 0x20
   107c0: 82 80        	ret

00000000000107c2 <_vfprintf_r>:
   107c2: 13 01 01 dc  	addi	sp, sp, -0x240
   107c6: 23 3c 11 22  	sd	ra, 0x238(sp)
   107ca: 23 38 81 22  	sd	s0, 0x230(sp)
   107ce: 23 30 21 23  	sd	s2, 0x220(sp)
   107d2: e2 fb        	sd	s8, 0x1f0(sp)
   107d4: 2e 89        	mv	s2, a1
   107d6: 32 8c        	mv	s8, a2
   107d8: 36 ec        	sd	a3, 0x18(sp)
   107da: 2a 84        	mv	s0, a0
   107dc: 2a e0        	sd	a0, 0x0(sp)
   107de: ef 50 c0 27  	jal	0x15a5a <_localeconv_r>
   107e2: 1c 61        	ld	a5, 0x0(a0)
   107e4: 3e 85        	mv	a0, a5
   107e6: be e4        	sd	a5, 0x48(sp)
   107e8: ef 60 d0 40  	jal	0x173f4 <strlen>
   107ec: aa e0        	sd	a0, 0x40(sp)
   107ee: 82 e1        	sd	zero, 0xc0(sp)
   107f0: 82 e5        	sd	zero, 0xc8(sp)
   107f2: 01 c4        	beqz	s0, 0x107fa <_vfprintf_r+0x38>
   107f4: 38 48        	lw	a4, 0x50(s0)
   107f6: 63 03 07 76  	beqz	a4, 0x10f5c <_vfprintf_r+0x79a>
   107fa: 83 26 09 0b  	lw	a3, 0xb0(s2)
   107fe: 03 17 09 01  	lh	a4, 0x10(s2)
   10802: 85 8a        	andi	a3, a3, 0x1
   10804: 91 e6        	bnez	a3, 0x10810 <_vfprintf_r+0x4e>
   10806: 93 76 07 20  	andi	a3, a4, 0x200
   1080a: 99 e2        	bnez	a3, 0x10810 <_vfprintf_r+0x4e>
   1080c: 6f 10 a0 10  	j	0x11916 <_vfprintf_r+0x1154>
   10810: 93 16 27 03  	slli	a3, a4, 0x32
   10814: 89 65        	lui	a1, 0x2
   10816: 63 cc 06 00  	bltz	a3, 0x1082e <_vfprintf_r+0x6c>
   1081a: 83 26 09 0b  	lw	a3, 0xb0(s2)
   1081e: 79 76        	lui	a2, 0xffffe
   10820: 7d 16        	addi	a2, a2, -0x1
   10822: 4d 8f        	or	a4, a4, a1
   10824: f1 8e        	and	a3, a3, a2
   10826: 23 18 e9 00  	sh	a4, 0x10(s2)
   1082a: 23 28 d9 0a  	sw	a3, 0xb0(s2)
   1082e: 93 76 87 00  	andi	a3, a4, 0x8
   10832: 63 86 06 24  	beqz	a3, 0x10a7e <_vfprintf_r+0x2bc>
   10836: 83 36 89 01  	ld	a3, 0x18(s2)
   1083a: 63 82 06 24  	beqz	a3, 0x10a7e <_vfprintf_r+0x2bc>
   1083e: 93 76 a7 01  	andi	a3, a4, 0x1a
   10842: 29 46        	li	a2, 0xa
   10844: 63 8b c6 24  	beq	a3, a2, 0x10a9a <_vfprintf_r+0x2d8>
   10848: 23 34 91 22  	sd	s1, 0x228(sp)
   1084c: 23 3c 31 21  	sd	s3, 0x218(sp)
   10850: ea f3        	sd	s10, 0x1e0(sp)
   10852: 23 38 41 21  	sd	s4, 0x210(sp)
   10856: 23 34 51 21  	sd	s5, 0x208(sp)
   1085a: 23 30 61 21  	sd	s6, 0x200(sp)
   1085e: de ff        	sd	s7, 0x1f8(sp)
   10860: e6 f7        	sd	s9, 0x1e8(sp)
   10862: ee ef        	sd	s11, 0x1d8(sp)
   10864: 62 8d        	mv	s10, s8
   10866: 03 47 0d 00  	lbu	a4, 0x0(s10)
   1086a: 9c 0a        	addi	a5, sp, 0x150
   1086c: 82 f1        	sd	zero, 0xe0(sp)
   1086e: 82 cd        	sw	zero, 0xd8(sp)
   10870: be e9        	sd	a5, 0xd0(sp)
   10872: 02 f4        	sd	zero, 0x28(sp)
   10874: 82 e8        	sd	zero, 0x50(sp)
   10876: 82 f0        	sd	zero, 0x60(sp)
   10878: 82 f8        	sd	zero, 0x70(sp)
   1087a: 82 ec        	sd	zero, 0x58(sp)
   1087c: 02 e4        	sd	zero, 0x8(sp)
   1087e: 13 04 50 02  	li	s0, 0x25
   10882: c1 44        	li	s1, 0x10
   10884: be 89        	mv	s3, a5
   10886: 63 0b 07 18  	beqz	a4, 0x10a1c <_vfprintf_r+0x25a>
   1088a: ea 8a        	mv	s5, s10
   1088c: 63 06 87 24  	beq	a4, s0, 0x10ad8 <_vfprintf_r+0x316>
   10890: 03 c7 1a 00  	lbu	a4, 0x1(s5)
   10894: 85 0a        	addi	s5, s5, 0x1
   10896: 7d fb        	bnez	a4, 0x1088c <_vfprintf_r+0xca>
   10898: 3b 8a aa 41  	subw	s4, s5, s10
   1089c: 63 00 0a 18  	beqz	s4, 0x10a1c <_vfprintf_r+0x25a>
   108a0: 8e 76        	ld	a3, 0xe0(sp)
   108a2: 6e 47        	lw	a4, 0xd8(sp)
   108a4: 23 b0 a9 01  	sd	s10, 0x0(s3)
   108a8: d2 96        	add	a3, a3, s4
   108aa: 05 27        	addiw	a4, a4, 0x1
   108ac: 23 b4 49 01  	sd	s4, 0x8(s3)
   108b0: b6 f1        	sd	a3, 0xe0(sp)
   108b2: ba cd        	sw	a4, 0xd8(sp)
   108b4: 9d 46        	li	a3, 0x7
   108b6: c1 09        	addi	s3, s3, 0x10
   108b8: 63 c7 e6 22  	blt	a3, a4, 0x10ae6 <_vfprintf_r+0x324>
   108bc: a2 67        	ld	a5, 0x8(sp)
   108be: 03 c7 0a 00  	lbu	a4, 0x0(s5)
   108c2: bb 87 47 01  	addw	a5, a5, s4
   108c6: 3e e4        	sd	a5, 0x8(sp)
   108c8: 63 0a 07 14  	beqz	a4, 0x10a1c <_vfprintf_r+0x25a>
   108cc: 7d 53        	li	t1, -0x1
   108ce: 01 4f        	li	t5, 0x0
   108d0: 03 ce 1a 00  	lbu	t3, 0x1(s5)
   108d4: a3 0f 01 08  	sb	zero, 0x9f(sp)
   108d8: 85 0a        	addi	s5, s5, 0x1
   108da: 81 4b        	li	s7, 0x0
   108dc: 13 0a a0 05  	li	s4, 0x5a
   108e0: 7a 8b        	mv	s6, t5
   108e2: 1a 8c        	mv	s8, t1
   108e4: 85 0a        	addi	s5, s5, 0x1
   108e6: 9b 07 0e fe  	addiw	a5, t3, -0x20
   108ea: 63 67 fa 04  	bltu	s4, a5, 0x10938 <_vfprintf_r+0x176>
   108ee: 13 97 07 02  	slli	a4, a5, 0x20
   108f2: 93 57 e7 01  	srli	a5, a4, 0x1e
   108f6: 17 e7 00 00  	auipc	a4, 0xe
   108fa: 13 07 67 cc  	addi	a4, a4, -0x33a
   108fe: ba 97        	add	a5, a5, a4
   10900: 9c 43        	lw	a5, 0x0(a5)
   10902: ba 97        	add	a5, a5, a4
   10904: 82 87        	jr	a5
   10906: 81 4b        	li	s7, 0x0
   10908: a5 46        	li	a3, 0x9
   1090a: 03 c7 0a 00  	lbu	a4, 0x0(s5)
   1090e: 9b 97 2b 00  	slliw	a5, s7, 0x2
   10912: bb 8b 77 01  	addw	s7, a5, s7
   10916: 1b 0e 0e fd  	addiw	t3, t3, -0x30
   1091a: 9b 9b 1b 00  	slliw	s7, s7, 0x1
   1091e: 9b 07 07 fd  	addiw	a5, a4, -0x30
   10922: 85 0a        	addi	s5, s5, 0x1
   10924: bb 0b 7e 01  	addw	s7, t3, s7
   10928: 1b 0e 07 00  	sext.w	t3, a4
   1092c: e3 ff f6 fc  	bgeu	a3, a5, 0x1090a <_vfprintf_r+0x148>
   10930: 9b 07 0e fe  	addiw	a5, t3, -0x20
   10934: e3 7d fa fa  	bgeu	s4, a5, 0x108ee <_vfprintf_r+0x12c>
   10938: 5a 8f        	mv	t5, s6
   1093a: 63 01 0e 0e  	beqz	t3, 0x10a1c <_vfprintf_r+0x25a>
   1093e: 05 4c        	li	s8, 0x1
   10940: 23 04 c1 0f  	sb	t3, 0xe8(sp)
   10944: a3 0f 01 08  	sb	zero, 0x9f(sp)
   10948: e2 8d        	mv	s11, s8
   1094a: 02 e8        	sd	zero, 0x10(sp)
   1094c: 01 43        	li	t1, 0x0
   1094e: 02 fc        	sd	zero, 0x38(sp)
   10950: 02 f8        	sd	zero, 0x30(sp)
   10952: 02 f0        	sd	zero, 0x20(sp)
   10954: 13 0d 81 0e  	addi	s10, sp, 0xe8
   10958: 0e 7a        	ld	s4, 0xe0(sp)
   1095a: 93 7c 4f 08  	andi	s9, t5, 0x84
   1095e: 52 86        	mv	a2, s4
   10960: 63 8c 0c 6c  	beqz	s9, 0x11038 <_vfprintf_r+0x876>
   10964: 03 47 f1 09  	lbu	a4, 0x9f(sp)
   10968: 31 c3        	beqz	a4, 0x109ac <_vfprintf_r+0x1ea>
   1096a: ee 45        	lw	a1, 0xd8(sp)
   1096c: 01 47        	li	a4, 0x0
   1096e: 85 46        	li	a3, 0x1
   10970: 05 0a        	addi	s4, s4, 0x1
   10972: 85 25        	addiw	a1, a1, 0x1
   10974: 13 06 f1 09  	addi	a2, sp, 0x9f
   10978: 23 b4 d9 00  	sd	a3, 0x8(s3)
   1097c: 23 b0 c9 00  	sd	a2, 0x0(s3)
   10980: d2 f1        	sd	s4, 0xe0(sp)
   10982: ae cd        	sw	a1, 0xd8(sp)
   10984: 9d 46        	li	a3, 0x7
   10986: c1 09        	addi	s3, s3, 0x10
   10988: 63 c1 b6 4e  	blt	a3, a1, 0x10e6a <_vfprintf_r+0x6a8>
   1098c: 05 c3        	beqz	a4, 0x109ac <_vfprintf_r+0x1ea>
   1098e: ee 45        	lw	a1, 0xd8(sp)
   10990: 09 47        	li	a4, 0x2
   10992: 09 0a        	addi	s4, s4, 0x2
   10994: 85 25        	addiw	a1, a1, 0x1
   10996: 14 11        	addi	a3, sp, 0xa0
   10998: 23 b4 e9 00  	sd	a4, 0x8(s3)
   1099c: 23 b0 d9 00  	sd	a3, 0x0(s3)
   109a0: d2 f1        	sd	s4, 0xe0(sp)
   109a2: ae cd        	sw	a1, 0xd8(sp)
   109a4: 1d 47        	li	a4, 0x7
   109a6: c1 09        	addi	s3, s3, 0x10
   109a8: e3 4d b7 46  	blt	a4, a1, 0x11622 <_vfprintf_r+0xe60>
   109ac: 13 07 00 08  	li	a4, 0x80
   109b0: e3 8a ec 38  	beq	s9, a4, 0x11544 <_vfprintf_r+0xd82>
   109b4: 3b 03 83 41  	subw	t1, t1, s8
   109b8: 63 4c 60 68  	bgtz	t1, 0x11050 <_vfprintf_r+0x88e>
   109bc: 13 77 0f 10  	andi	a4, t5, 0x100
   109c0: 63 16 07 72  	bnez	a4, 0x110ec <_vfprintf_r+0x92a>
   109c4: 6e 47        	lw	a4, 0xd8(sp)
   109c6: 62 9a        	add	s4, s4, s8
   109c8: d2 f1        	sd	s4, 0xe0(sp)
   109ca: 05 27        	addiw	a4, a4, 0x1
   109cc: 23 b0 a9 01  	sd	s10, 0x0(s3)
   109d0: 23 b4 89 01  	sd	s8, 0x8(s3)
   109d4: ba cd        	sw	a4, 0xd8(sp)
   109d6: 9d 47        	li	a5, 0x7
   109d8: 63 ca e7 54  	blt	a5, a4, 0x10f2c <_vfprintf_r+0x76a>
   109dc: c1 09        	addi	s3, s3, 0x10
   109de: 13 7f 4f 00  	andi	t5, t5, 0x4
   109e2: 63 06 0f 00  	beqz	t5, 0x109ee <_vfprintf_r+0x22c>
   109e6: 3b 8c bb 41  	subw	s8, s7, s11
   109ea: e3 4d 80 45  	bgtz	s8, 0x11644 <_vfprintf_r+0xe82>
   109ee: de 87        	mv	a5, s7
   109f0: 63 d3 bb 01  	bge	s7, s11, 0x109f6 <_vfprintf_r+0x234>
   109f4: ee 87        	mv	a5, s11
   109f6: 22 67        	ld	a4, 0x8(sp)
   109f8: b9 9f        	addw	a5, a5, a4
   109fa: 3e e4        	sd	a5, 0x8(sp)
   109fc: e3 1d 0a 3e  	bnez	s4, 0x115f6 <_vfprintf_r+0xe34>
   10a00: c2 67        	ld	a5, 0x10(sp)
   10a02: 82 cd        	sw	zero, 0xd8(sp)
   10a04: 89 c7        	beqz	a5, 0x10a0e <_vfprintf_r+0x24c>
   10a06: c2 65        	ld	a1, 0x10(sp)
   10a08: 02 65        	ld	a0, 0x0(sp)
   10a0a: ef 20 50 19  	jal	0x1339e <_free_r>
   10a0e: 93 09 01 15  	addi	s3, sp, 0x150
   10a12: 56 8d        	mv	s10, s5
   10a14: 03 47 0d 00  	lbu	a4, 0x0(s10)
   10a18: e3 19 07 e6  	bnez	a4, 0x1088a <_vfprintf_r+0xc8>
   10a1c: 8e 77        	ld	a5, 0xe0(sp)
   10a1e: 99 c3        	beqz	a5, 0x10a24 <_vfprintf_r+0x262>
   10a20: 6f 10 00 6c  	j	0x120e0 <_vfprintf_r+0x191e>
   10a24: 82 cd        	sw	zero, 0xd8(sp)
   10a26: 03 27 09 0b  	lw	a4, 0xb0(s2)
   10a2a: 83 17 09 01  	lh	a5, 0x10(s2)
   10a2e: 05 8b        	andi	a4, a4, 0x1
   10a30: 63 0b 07 50  	beqz	a4, 0x10f46 <_vfprintf_r+0x784>
   10a34: 93 f7 07 04  	andi	a5, a5, 0x40
   10a38: 83 34 81 22  	ld	s1, 0x228(sp)
   10a3c: 83 39 81 21  	ld	s3, 0x218(sp)
   10a40: 03 3a 01 21  	ld	s4, 0x210(sp)
   10a44: 83 3a 81 20  	ld	s5, 0x208(sp)
   10a48: 03 3b 01 20  	ld	s6, 0x200(sp)
   10a4c: fe 7b        	ld	s7, 0x1f8(sp)
   10a4e: be 7c        	ld	s9, 0x1e8(sp)
   10a50: 1e 7d        	ld	s10, 0x1e0(sp)
   10a52: fe 6d        	ld	s11, 0x1d8(sp)
   10a54: 99 c3        	beqz	a5, 0x10a5a <_vfprintf_r+0x298>
   10a56: 6f 10 50 67  	j	0x128ca <_vfprintf_r+0x2108>
   10a5a: 83 30 81 23  	ld	ra, 0x238(sp)
   10a5e: 03 34 01 23  	ld	s0, 0x230(sp)
   10a62: 22 65        	ld	a0, 0x8(sp)
   10a64: 03 39 01 22  	ld	s2, 0x220(sp)
   10a68: 5e 7c        	ld	s8, 0x1f0(sp)
   10a6a: 13 01 01 24  	addi	sp, sp, 0x240
   10a6e: 82 80        	ret
   10a70: 13 6f 0b 01  	ori	t5, s6, 0x10
   10a74: 03 ce 0a 00  	lbu	t3, 0x0(s5)
   10a78: 1b 0b 0f 00  	sext.w	s6, t5
   10a7c: a5 b5        	j	0x108e4 <_vfprintf_r+0x122>
   10a7e: 02 65        	ld	a0, 0x0(sp)
   10a80: ca 85        	mv	a1, s2
   10a82: ef 20 60 00  	jal	0x12a88 <__swsetup_r>
   10a86: 19 c1        	beqz	a0, 0x10a8c <_vfprintf_r+0x2ca>
   10a88: 6f 10 b0 63  	j	0x128c2 <_vfprintf_r+0x2100>
   10a8c: 03 17 09 01  	lh	a4, 0x10(s2)
   10a90: 29 46        	li	a2, 0xa
   10a92: 93 76 a7 01  	andi	a3, a4, 0x1a
   10a96: e3 99 c6 da  	bne	a3, a2, 0x10848 <_vfprintf_r+0x86>
   10a9a: 83 16 29 01  	lh	a3, 0x12(s2)
   10a9e: e3 c5 06 da  	bltz	a3, 0x10848 <_vfprintf_r+0x86>
   10aa2: 83 26 09 0b  	lw	a3, 0xb0(s2)
   10aa6: 85 8a        	andi	a3, a3, 0x1
   10aa8: 91 e6        	bnez	a3, 0x10ab4 <_vfprintf_r+0x2f2>
   10aaa: 13 77 07 20  	andi	a4, a4, 0x200
   10aae: 19 e3        	bnez	a4, 0x10ab4 <_vfprintf_r+0x2f2>
   10ab0: 6f 10 40 69  	j	0x12144 <_vfprintf_r+0x1982>
   10ab4: e2 66        	ld	a3, 0x18(sp)
   10ab6: 02 65        	ld	a0, 0x0(sp)
   10ab8: 62 86        	mv	a2, s8
   10aba: ca 85        	mv	a1, s2
   10abc: ef 10 b0 71  	jal	0x129d6 <__sbprintf>
   10ac0: 83 30 81 23  	ld	ra, 0x238(sp)
   10ac4: 03 34 01 23  	ld	s0, 0x230(sp)
   10ac8: 2a e4        	sd	a0, 0x8(sp)
   10aca: 22 65        	ld	a0, 0x8(sp)
   10acc: 03 39 01 22  	ld	s2, 0x220(sp)
   10ad0: 5e 7c        	ld	s8, 0x1f0(sp)
   10ad2: 13 01 01 24  	addi	sp, sp, 0x240
   10ad6: 82 80        	ret
   10ad8: 3b 8a aa 41  	subw	s4, s5, s10
   10adc: e3 12 0a dc  	bnez	s4, 0x108a0 <_vfprintf_r+0xde>
   10ae0: 03 c7 0a 00  	lbu	a4, 0x0(s5)
   10ae4: d5 b3        	j	0x108c8 <_vfprintf_r+0x106>
   10ae6: 02 65        	ld	a0, 0x0(sp)
   10ae8: 90 09        	addi	a2, sp, 0xd0
   10aea: ca 85        	mv	a1, s2
   10aec: ef 80 70 36  	jal	0x19652 <__sprint_r>
   10af0: 1d f9        	bnez	a0, 0x10a26 <_vfprintf_r+0x264>
   10af2: 93 09 01 15  	addi	s3, sp, 0x150
   10af6: d9 b3        	j	0x108bc <_vfprintf_r+0xfa>
   10af8: 13 77 8b 00  	andi	a4, s6, 0x8
   10afc: 5a 8f        	mv	t5, s6
   10afe: 62 83        	mv	t1, s8
   10b00: e3 1f 07 72  	bnez	a4, 0x11a3e <_vfprintf_r+0x127c>
   10b04: e2 67        	ld	a5, 0x18(sp)
   10b06: 72 e8        	sd	t3, 0x10(sp)
   10b08: 62 f8        	sd	s8, 0x30(sp)
   10b0a: 88 23        	fld	fa0, 0x0(a5)
   10b0c: 93 8c 87 00  	addi	s9, a5, 0x8
   10b10: 5a f0        	sd	s6, 0x20(sp)
   10b12: ef d0 c0 5f  	jal	0x1e10e <__extenddftf2>
   10b16: 42 73        	ld	t1, 0x30(sp)
   10b18: 02 7f        	ld	t5, 0x20(sp)
   10b1a: 42 6e        	ld	t3, 0x10(sp)
   10b1c: 66 ec        	sd	s9, 0x18(sp)
   10b1e: 2a 87        	mv	a4, a0
   10b20: 88 01        	addi	a0, sp, 0xc0
   10b22: 1a f8        	sd	t1, 0x30(sp)
   10b24: 7a f0        	sd	t5, 0x20(sp)
   10b26: 72 e8        	sd	t3, 0x10(sp)
   10b28: ba e1        	sd	a4, 0xc0(sp)
   10b2a: ae e5        	sd	a1, 0xc8(sp)
   10b2c: ef 40 70 6e  	jal	0x15a12 <_ldcheck>
   10b30: 2a d5        	sw	a0, 0xa8(sp)
   10b32: 09 47        	li	a4, 0x2
   10b34: 42 6e        	ld	t3, 0x10(sp)
   10b36: 02 7f        	ld	t5, 0x20(sp)
   10b38: 42 73        	ld	t1, 0x30(sp)
   10b3a: 63 14 e5 00  	bne	a0, a4, 0x10b42 <_vfprintf_r+0x380>
   10b3e: 6f 10 80 22  	j	0x11d66 <_vfprintf_r+0x15a4>
   10b42: 85 46        	li	a3, 0x1
   10b44: 63 14 d5 00  	bne	a0, a3, 0x10b4c <_vfprintf_r+0x38a>
   10b48: 6f 10 20 3c  	j	0x11f0a <_vfprintf_r+0x1748>
   10b4c: 13 07 10 06  	li	a4, 0x61
   10b50: 63 14 ee 00  	bne	t3, a4, 0x10b58 <_vfprintf_r+0x396>
   10b54: 6f 10 60 05  	j	0x11baa <_vfprintf_r+0x13e8>
   10b58: 13 07 10 04  	li	a4, 0x41
   10b5c: 93 07 80 05  	li	a5, 0x58
   10b60: 63 14 ee 00  	bne	t3, a4, 0x10b68 <_vfprintf_r+0x3a6>
   10b64: 6f 10 a0 04  	j	0x11bae <_vfprintf_r+0x13ec>
   10b68: 7d 57        	li	a4, -0x1
   10b6a: 63 14 e3 00  	bne	t1, a4, 0x10b72 <_vfprintf_r+0x3b0>
   10b6e: 6f 10 70 3f  	j	0x12764 <_vfprintf_r+0x1fa2>
   10b72: 93 67 0f 10  	ori	a5, t5, 0x100
   10b76: 13 06 70 06  	li	a2, 0x67
   10b7a: 0e 6c        	ld	s8, 0xc0(sp)
   10b7c: 2e 6a        	ld	s4, 0xc8(sp)
   10b7e: 1b 8b 07 00  	sext.w	s6, a5
   10b82: 63 14 ce 00  	bne	t3, a2, 0x10b8a <_vfprintf_r+0x3c8>
   10b86: 6f 10 b0 49  	j	0x12820 <_vfprintf_r+0x205e>
   10b8a: 13 06 70 04  	li	a2, 0x47
   10b8e: 63 14 ce 00  	bne	t3, a2, 0x10b96 <_vfprintf_r+0x3d4>
   10b92: 6f 10 d0 37  	j	0x1270e <_vfprintf_r+0x1f4c>
   10b96: 7a f8        	sd	t5, 0x30(sp)
   10b98: 63 54 0a 00  	bgez	s4, 0x10ba0 <_vfprintf_r+0x3de>
   10b9c: 6f 10 10 55  	j	0x128ec <_vfprintf_r+0x212a>
   10ba0: 9b 06 fe fb  	addiw	a3, t3, -0x41
   10ba4: 5a 8f        	mv	t5, s6
   10ba6: 02 e8        	sd	zero, 0x10(sp)
   10ba8: 82 f4        	sd	zero, 0x68(sp)
   10baa: 13 06 00 02  	li	a2, 0x20
   10bae: 13 17 06 02  	slli	a4, a2, 0x20
   10bb2: 85 4d        	li	s11, 0x1
   10bb4: 32 97        	add	a4, a4, a2
   10bb6: b3 96 dd 00  	sll	a3, s11, a3
   10bba: 75 8f        	and	a4, a4, a3
   10bbc: 19 c3        	beqz	a4, 0x10bc2 <_vfprintf_r+0x400>
   10bbe: 6f 10 00 78  	j	0x1233e <_vfprintf_r+0x1b7c>
   10bc2: 41 46        	li	a2, 0x10
   10bc4: 13 17 06 02  	slli	a4, a2, 0x20
   10bc8: 32 97        	add	a4, a4, a2
   10bca: 75 8f        	and	a4, a4, a3
   10bcc: 19 c3        	beqz	a4, 0x10bd2 <_vfprintf_r+0x410>
   10bce: 6f 10 f0 29  	j	0x1266c <_vfprintf_r+0x1eaa>
   10bd2: 13 97 0d 02  	slli	a4, s11, 0x20
   10bd6: 6e 97        	add	a4, a4, s11
   10bd8: 75 8f        	and	a4, a4, a3
   10bda: 19 e3        	bnez	a4, 0x10be0 <_vfprintf_r+0x41e>
   10bdc: 6f 10 f0 34  	j	0x1272a <_vfprintf_r+0x1f68>
   10be0: d2 85        	mv	a1, s4
   10be2: 62 85        	mv	a0, s8
   10be4: 1a f4        	sd	t1, 0x28(sp)
   10be6: 72 f0        	sd	t3, 0x20(sp)
   10be8: ef d0 a0 5e  	jal	0x1e1d2 <__trunctfdf2>
   10bec: 28 11        	addi	a0, sp, 0xa8
   10bee: ef 60 80 55  	jal	0x17146 <frexp>
   10bf2: ef d0 c0 51  	jal	0x1e10e <__extenddftf2>
   10bf6: 17 e7 00 00  	auipc	a4, 0xe
   10bfa: 13 07 a7 b5  	addi	a4, a4, -0x4a6
   10bfe: 10 63        	ld	a2, 0x0(a4)
   10c00: 14 67        	ld	a3, 0x8(a4)
   10c02: ef c0 60 60  	jal	0x1d208 <__multf3>
   10c06: 01 46        	li	a2, 0x0
   10c08: 81 46        	li	a3, 0x0
   10c0a: aa 8c        	mv	s9, a0
   10c0c: 2e 8a        	mv	s4, a1
   10c0e: ef c0 a0 41  	jal	0x1d028 <__netf2>
   10c12: 02 7e        	ld	t3, 0x20(sp)
   10c14: 22 73        	ld	t1, 0x28(sp)
   10c16: 11 e1        	bnez	a0, 0x10c1a <_vfprintf_r+0x458>
   10c18: 6e d5        	sw	s11, 0xa8(sp)
   10c1a: 13 07 10 06  	li	a4, 0x61
   10c1e: 17 ec 00 00  	auipc	s8, 0xe
   10c22: 13 0c ac 89  	addi	s8, s8, -0x766
   10c26: 63 16 ee 00  	bne	t3, a4, 0x10c32 <_vfprintf_r+0x470>
   10c2a: 17 ec 00 00  	auipc	s8, 0xe
   10c2e: 13 0c 6c 87  	addi	s8, s8, -0x78a
   10c32: 97 e6 00 00  	auipc	a3, 0xe
   10c36: 93 86 e6 b2  	addi	a3, a3, -0x4d2
   10c3a: 9c 62        	ld	a5, 0x0(a3)
   10c3c: 13 17 03 02  	slli	a4, t1, 0x20
   10c40: 01 93        	srli	a4, a4, 0x20
   10c42: 3e f0        	sd	a5, 0x20(sp)
   10c44: 9c 66        	ld	a5, 0x8(a3)
   10c46: 05 07        	addi	a4, a4, 0x1
   10c48: ce e8        	sd	s3, 0x50(sp)
   10c4a: 3e f4        	sd	a5, 0x28(sp)
   10c4c: b3 07 ed 00  	add	a5, s10, a4
   10c50: ea 89        	mv	s3, s10
   10c52: ea 8d        	mv	s11, s10
   10c54: 56 fc        	sd	s5, 0x38(sp)
   10c56: 4a 8d        	mv	s10, s2
   10c58: f2 fc        	sd	t3, 0x78(sp)
   10c5a: 1a 8b        	mv	s6, t1
   10c5c: 3e 89        	mv	s2, a5
   10c5e: 01 a8        	j	0x10c6e <_vfprintf_r+0x4ac>
   10c60: 01 46        	li	a2, 0x0
   10c62: 81 46        	li	a3, 0x0
   10c64: ef c0 40 3c  	jal	0x1d028 <__netf2>
   10c68: 19 e1        	bnez	a0, 0x10c6e <_vfprintf_r+0x4ac>
   10c6a: 6f 10 10 3f  	j	0x1285a <_vfprintf_r+0x2098>
   10c6e: 02 76        	ld	a2, 0x20(sp)
   10c70: a2 76        	ld	a3, 0x28(sp)
   10c72: 66 85        	mv	a0, s9
   10c74: d2 85        	mv	a1, s4
   10c76: ef c0 20 59  	jal	0x1d208 <__multf3>
   10c7a: 2e 8a        	mv	s4, a1
   10c7c: aa 8c        	mv	s9, a0
   10c7e: ef d0 20 3b  	jal	0x1e030 <__fixtfsi>
   10c82: 9b 0a 05 00  	sext.w	s5, a0
   10c86: 56 85        	mv	a0, s5
   10c88: ef d0 40 43  	jal	0x1e0bc <__floatsitf>
   10c8c: ae 86        	mv	a3, a1
   10c8e: 2a 86        	mv	a2, a0
   10c90: d2 85        	mv	a1, s4
   10c92: 66 85        	mv	a0, s9
   10c94: ef c0 10 37  	jal	0x1d804 <__subtf3>
   10c98: b3 07 5c 01  	add	a5, s8, s5
   10c9c: 83 c6 07 00  	lbu	a3, 0x0(a5)
   10ca0: ce 87        	mv	a5, s3
   10ca2: 85 09        	addi	s3, s3, 0x1
   10ca4: a3 8f d9 fe  	sb	a3, -0x1(s3)
   10ca8: aa 8c        	mv	s9, a0
   10caa: 2e 8a        	mv	s4, a1
   10cac: e3 1a 39 fb  	bne	s2, s3, 0x10c60 <_vfprintf_r+0x49e>
   10cb0: 97 e6 00 00  	auipc	a3, 0xe
   10cb4: 93 86 06 ac  	addi	a3, a3, -0x540
   10cb8: 66 7e        	ld	t3, 0x78(sp)
   10cba: 90 62        	ld	a2, 0x0(a3)
   10cbc: 94 66        	ld	a3, 0x8(a3)
   10cbe: 72 f4        	sd	t3, 0x28(sp)
   10cc0: 3e f0        	sd	a5, 0x20(sp)
   10cc2: 4e 8b        	mv	s6, s3
   10cc4: 6a 89        	mv	s2, s10
   10cc6: c6 69        	ld	s3, 0x50(sp)
   10cc8: 6e 8d        	mv	s10, s11
   10cca: b2 e8        	sd	a2, 0x50(sp)
   10ccc: d6 8d        	mv	s11, s5
   10cce: e2 7a        	ld	s5, 0x38(sp)
   10cd0: 36 fc        	sd	a3, 0x38(sp)
   10cd2: ef c0 a0 3f  	jal	0x1d0cc <__gttf2>
   10cd6: 82 77        	ld	a5, 0x20(sp)
   10cd8: 22 7e        	ld	t3, 0x28(sp)
   10cda: 63 40 a0 02  	bgtz	a0, 0x10cfa <_vfprintf_r+0x538>
   10cde: 46 66        	ld	a2, 0x50(sp)
   10ce0: e2 76        	ld	a3, 0x38(sp)
   10ce2: 66 85        	mv	a0, s9
   10ce4: d2 85        	mv	a1, s4
   10ce6: 72 f0        	sd	t3, 0x20(sp)
   10ce8: 3e f4        	sd	a5, 0x28(sp)
   10cea: ef c0 e0 33  	jal	0x1d028 <__netf2>
   10cee: 02 7e        	ld	t3, 0x20(sp)
   10cf0: 21 e5        	bnez	a0, 0x10d38 <_vfprintf_r+0x576>
   10cf2: 13 f7 1d 00  	andi	a4, s11, 0x1
   10cf6: a2 77        	ld	a5, 0x28(sp)
   10cf8: 21 c3        	beqz	a4, 0x10d38 <_vfprintf_r+0x576>
   10cfa: 3e fd        	sd	a5, 0xb8(sp)
   10cfc: 83 46 fb ff  	lbu	a3, -0x1(s6)
   10d00: 03 46 fc 00  	lbu	a2, 0xf(s8)
   10d04: 5a 87        	mv	a4, s6
   10d06: 63 1e d6 00  	bne	a2, a3, 0x10d22 <_vfprintf_r+0x560>
   10d0a: 93 05 00 03  	li	a1, 0x30
   10d0e: a3 0f b7 fe  	sb	a1, -0x1(a4)
   10d12: 6a 77        	ld	a4, 0xb8(sp)
   10d14: 93 07 f7 ff  	addi	a5, a4, -0x1
   10d18: 3e fd        	sd	a5, 0xb8(sp)
   10d1a: 83 46 f7 ff  	lbu	a3, -0x1(a4)
   10d1e: e3 88 c6 fe  	beq	a3, a2, 0x10d0e <_vfprintf_r+0x54c>
   10d22: 13 06 90 03  	li	a2, 0x39
   10d26: 63 94 c6 00  	bne	a3, a2, 0x10d2e <_vfprintf_r+0x56c>
   10d2a: 6f 10 70 40  	j	0x12930 <_vfprintf_r+0x216e>
   10d2e: 85 26        	addiw	a3, a3, 0x1
   10d30: 93 f6 f6 0f  	andi	a3, a3, 0xff
   10d34: a3 0f d7 fe  	sb	a3, -0x1(a4)
   10d38: aa 57        	lw	a5, 0xa8(sp)
   10d3a: 3b 07 ab 41  	subw	a4, s6, s10
   10d3e: 3a f4        	sd	a4, 0x28(sp)
   10d40: 9b 86 f7 ff  	addiw	a3, a5, -0x1
   10d44: 3e f0        	sd	a5, 0x20(sp)
   10d46: 13 06 10 06  	li	a2, 0x61
   10d4a: 36 d5        	sw	a3, 0xa8(sp)
   10d4c: 36 87        	mv	a4, a3
   10d4e: 63 14 ce 00  	bne	t3, a2, 0x10d56 <_vfprintf_r+0x594>
   10d52: 6f 10 10 38  	j	0x128d2 <_vfprintf_r+0x2110>
   10d56: 93 05 10 04  	li	a1, 0x41
   10d5a: 13 06 00 05  	li	a2, 0x50
   10d5e: 63 04 be 00  	beq	t3, a1, 0x10d66 <_vfprintf_r+0x5a4>
   10d62: 6f 10 e0 66  	j	0x123d0 <_vfprintf_r+0x1c0e>
   10d66: 23 08 c1 0a  	sb	a2, 0xb0(sp)
   10d6a: 63 d4 06 00  	bgez	a3, 0x10d72 <_vfprintf_r+0x5b0>
   10d6e: 6f 10 80 41  	j	0x12186 <_vfprintf_r+0x19c4>
   10d72: 13 06 b0 02  	li	a2, 0x2b
   10d76: a3 08 c1 0a  	sb	a2, 0xb1(sp)
   10d7a: 25 46        	li	a2, 0x9
   10d7c: 63 44 d6 00  	blt	a2, a3, 0x10d84 <_vfprintf_r+0x5c2>
   10d80: 6f 10 e0 41  	j	0x1219e <_vfprintf_r+0x19dc>
   10d84: 37 d5 0c 00  	lui	a0, 0xcd
   10d88: 13 05 d5 cc  	addi	a0, a0, -0x333
   10d8c: 32 05        	slli	a0, a0, 0xc
   10d8e: 93 08 f1 0b  	addi	a7, sp, 0xbf
   10d92: 13 05 d5 cc  	addi	a0, a0, -0x333
   10d96: c6 85        	mv	a1, a7
   10d98: 13 03 30 06  	li	t1, 0x63
   10d9c: 93 17 07 02  	slli	a5, a4, 0x20
   10da0: 81 93        	srli	a5, a5, 0x20
   10da2: b3 87 a7 02  	mul	a5, a5, a0
   10da6: 3a 88        	mv	a6, a4
   10da8: 2e 86        	mv	a2, a1
   10daa: fd 15        	addi	a1, a1, -0x1
   10dac: 8d 93        	srli	a5, a5, 0x23
   10dae: 9b 96 27 00  	slliw	a3, a5, 0x2
   10db2: bd 9e        	addw	a3, a3, a5
   10db4: 9b 96 16 00  	slliw	a3, a3, 0x1
   10db8: 15 9f        	subw	a4, a4, a3
   10dba: 1b 07 07 03  	addiw	a4, a4, 0x30
   10dbe: a3 0f e6 fe  	sb	a4, -0x1(a2)
   10dc2: 3e 87        	mv	a4, a5
   10dc4: e3 4c 03 fd  	blt	t1, a6, 0x10d9c <_vfprintf_r+0x5da>
   10dc8: 1b 87 07 03  	addiw	a4, a5, 0x30
   10dcc: a3 8f e5 fe  	sb	a4, -0x1(a1)
   10dd0: 13 07 e6 ff  	addi	a4, a2, -0x2
   10dd4: 63 64 17 01  	bltu	a4, a7, 0x10ddc <_vfprintf_r+0x61a>
   10dd8: 6f 10 10 36  	j	0x12938 <_vfprintf_r+0x2176>
   10ddc: 13 05 21 0b  	addi	a0, sp, 0xb2
   10de0: aa 86        	mv	a3, a0
   10de2: 83 47 07 00  	lbu	a5, 0x0(a4)
   10de6: 05 07        	addi	a4, a4, 0x1
   10de8: 85 06        	addi	a3, a3, 0x1
   10dea: a3 8f f6 fe  	sb	a5, -0x1(a3)
   10dee: e3 1a 17 ff  	bne	a4, a7, 0x10de2 <_vfprintf_r+0x620>
   10df2: 2a 97        	add	a4, a4, a0
   10df4: 09 07        	addi	a4, a4, 0x2
   10df6: 11 8f        	sub	a4, a4, a2
   10df8: 14 19        	addi	a3, sp, 0xb0
   10dfa: bb 07 d7 40  	subw	a5, a4, a3
   10dfe: be e8        	sd	a5, 0x50(sp)
   10e00: a2 77        	ld	a5, 0x28(sp)
   10e02: 46 67        	ld	a4, 0x50(sp)
   10e04: 85 46        	li	a3, 0x1
   10e06: 3d 9f        	addw	a4, a4, a5
   10e08: 3a 8c        	mv	s8, a4
   10e0a: 63 c4 f6 00  	blt	a3, a5, 0x10e12 <_vfprintf_r+0x650>
   10e0e: 6f 10 30 0f  	j	0x12700 <_vfprintf_r+0x1f3e>
   10e12: 86 67        	ld	a5, 0x40(sp)
   10e14: 3b 8c e7 00  	addw	s8, a5, a4
   10e18: c2 77        	ld	a5, 0x30(sp)
   10e1a: 62 88        	mv	a6, s8
   10e1c: 13 ff f7 bf  	andi	t5, a5, -0x401
   10e20: 01 2f        	sext.w	t5, t5
   10e22: 13 6f 0f 10  	ori	t5, t5, 0x100
   10e26: 63 53 0c 00  	bgez	s8, 0x10e2c <_vfprintf_r+0x66a>
   10e2a: 01 48        	li	a6, 0x0
   10e2c: c2 8d        	mv	s11, a6
   10e2e: 02 fc        	sd	zero, 0x38(sp)
   10e30: 02 f8        	sd	zero, 0x30(sp)
   10e32: 02 f0        	sd	zero, 0x20(sp)
   10e34: a6 77        	ld	a5, 0x68(sp)
   10e36: 13 76 2f 00  	andi	a2, t5, 0x2
   10e3a: 99 e3        	bnez	a5, 0x10e40 <_vfprintf_r+0x67e>
   10e3c: 6f 10 e0 37  	j	0x121ba <_vfprintf_r+0x19f8>
   10e40: 13 05 d0 02  	li	a0, 0x2d
   10e44: a3 0f a1 08  	sb	a0, 0x9f(sp)
   10e48: 85 2d        	addiw	s11, s11, 0x1
   10e4a: 01 43        	li	t1, 0x0
   10e4c: e3 06 06 b0  	beqz	a2, 0x10958 <_vfprintf_r+0x196>
   10e50: 0e 7a        	ld	s4, 0xe0(sp)
   10e52: ee 45        	lw	a1, 0xd8(sp)
   10e54: 93 7c 4f 08  	andi	s9, t5, 0x84
   10e58: 89 2d        	addiw	s11, s11, 0x2
   10e5a: 52 86        	mv	a2, s4
   10e5c: ae 86        	mv	a3, a1
   10e5e: e3 8c 0c 58  	beqz	s9, 0x11bf6 <_vfprintf_r+0x1434>
   10e62: 09 47        	li	a4, 0x2
   10e64: e3 15 05 b0  	bnez	a0, 0x1096e <_vfprintf_r+0x1ac>
   10e68: 25 b6        	j	0x10990 <_vfprintf_r+0x1ce>
   10e6a: 02 65        	ld	a0, 0x0(sp)
   10e6c: 90 09        	addi	a2, sp, 0xd0
   10e6e: ca 85        	mv	a1, s2
   10e70: 1a e5        	sd	t1, 0x88(sp)
   10e72: 7a e1        	sd	t5, 0x80(sp)
   10e74: f2 fc        	sd	t3, 0x78(sp)
   10e76: ba f4        	sd	a4, 0x68(sp)
   10e78: ef 80 a0 7d  	jal	0x19652 <__sprint_r>
   10e7c: 63 14 05 78  	bnez	a0, 0x11604 <_vfprintf_r+0xe42>
   10e80: 0e 7a        	ld	s4, 0xe0(sp)
   10e82: 2a 63        	ld	t1, 0x88(sp)
   10e84: 0a 6f        	ld	t5, 0x80(sp)
   10e86: 66 7e        	ld	t3, 0x78(sp)
   10e88: 26 77        	ld	a4, 0x68(sp)
   10e8a: 93 09 01 15  	addi	s3, sp, 0x150
   10e8e: fd bc        	j	0x1098c <_vfprintf_r+0x1ca>
   10e90: 6e 4c        	lw	s8, 0xd8(sp)
   10e92: a2 77        	ld	a5, 0x28(sp)
   10e94: 85 46        	li	a3, 0x1
   10e96: 05 2c        	addiw	s8, s8, 0x1
   10e98: 36 9a        	add	s4, s4, a3
   10e9a: 62 87        	mv	a4, s8
   10e9c: 93 88 09 01  	addi	a7, s3, 0x10
   10ea0: e3 df f6 12  	bge	a3, a5, 0x117de <_vfprintf_r+0x101c>
   10ea4: 85 46        	li	a3, 0x1
   10ea6: 23 b4 d9 00  	sd	a3, 0x8(s3)
   10eaa: 23 b0 a9 01  	sd	s10, 0x0(s3)
   10eae: d2 f1        	sd	s4, 0xe0(sp)
   10eb0: ba cd        	sw	a4, 0xd8(sp)
   10eb2: 9d 46        	li	a3, 0x7
   10eb4: e3 c6 e6 5a  	blt	a3, a4, 0x11c60 <_vfprintf_r+0x149e>
   10eb8: 86 67        	ld	a5, 0x40(sp)
   10eba: 26 67        	ld	a4, 0x48(sp)
   10ebc: 05 2c        	addiw	s8, s8, 0x1
   10ebe: 3e 9a        	add	s4, s4, a5
   10ec0: 23 b0 e8 00  	sd	a4, 0x0(a7)
   10ec4: 23 b4 f8 00  	sd	a5, 0x8(a7)
   10ec8: d2 f1        	sd	s4, 0xe0(sp)
   10eca: e2 cd        	sw	s8, 0xd8(sp)
   10ecc: 1d 47        	li	a4, 0x7
   10ece: c1 08        	addi	a7, a7, 0x10
   10ed0: e3 47 87 5b  	blt	a4, s8, 0x11c7e <_vfprintf_r+0x14bc>
   10ed4: a2 77        	ld	a5, 0x28(sp)
   10ed6: 0e 65        	ld	a0, 0xc0(sp)
   10ed8: ae 65        	ld	a1, 0xc8(sp)
   10eda: 01 46        	li	a2, 0x0
   10edc: 81 46        	li	a3, 0x0
   10ede: 7a f8        	sd	t5, 0x30(sp)
   10ee0: 46 f0        	sd	a7, 0x20(sp)
   10ee2: 9b 89 f7 ff  	addiw	s3, a5, -0x1
   10ee6: ef c0 20 14  	jal	0x1d028 <__netf2>
   10eea: 82 78        	ld	a7, 0x20(sp)
   10eec: 42 7f        	ld	t5, 0x30(sp)
   10eee: e3 00 05 1c  	beqz	a0, 0x118ae <_vfprintf_r+0x10ec>
   10ef2: 93 07 1d 00  	addi	a5, s10, 0x1
   10ef6: 05 2c        	addiw	s8, s8, 0x1
   10ef8: 4e 9a        	add	s4, s4, s3
   10efa: 23 b0 f8 00  	sd	a5, 0x0(a7)
   10efe: e2 cd        	sw	s8, 0xd8(sp)
   10f00: d2 f1        	sd	s4, 0xe0(sp)
   10f02: 23 b4 38 01  	sd	s3, 0x8(a7)
   10f06: 9d 47        	li	a5, 0x7
   10f08: e3 c8 87 0f  	blt	a5, s8, 0x117f8 <_vfprintf_r+0x1036>
   10f0c: c1 08        	addi	a7, a7, 0x10
   10f0e: 46 67        	ld	a4, 0x50(sp)
   10f10: 1c 19        	addi	a5, sp, 0xb0
   10f12: 05 2c        	addiw	s8, s8, 0x1
   10f14: 3a 9a        	add	s4, s4, a4
   10f16: 23 b0 f8 00  	sd	a5, 0x0(a7)
   10f1a: d2 f1        	sd	s4, 0xe0(sp)
   10f1c: e2 cd        	sw	s8, 0xd8(sp)
   10f1e: 23 b4 e8 00  	sd	a4, 0x8(a7)
   10f22: 9d 47        	li	a5, 0x7
   10f24: 93 89 08 01  	addi	s3, a7, 0x10
   10f28: e3 db 87 ab  	bge	a5, s8, 0x109de <_vfprintf_r+0x21c>
   10f2c: 02 65        	ld	a0, 0x0(sp)
   10f2e: 90 09        	addi	a2, sp, 0xd0
   10f30: ca 85        	mv	a1, s2
   10f32: 7a f0        	sd	t5, 0x20(sp)
   10f34: ef 80 e0 71  	jal	0x19652 <__sprint_r>
   10f38: 63 16 05 6c  	bnez	a0, 0x11604 <_vfprintf_r+0xe42>
   10f3c: 0e 7a        	ld	s4, 0xe0(sp)
   10f3e: 02 7f        	ld	t5, 0x20(sp)
   10f40: 93 09 01 15  	addi	s3, sp, 0x150
   10f44: 69 bc        	j	0x109de <_vfprintf_r+0x21c>
   10f46: 13 f7 07 20  	andi	a4, a5, 0x200
   10f4a: e3 15 07 ae  	bnez	a4, 0x10a34 <_vfprintf_r+0x272>
   10f4e: 03 35 09 0a  	ld	a0, 0xa0(s2)
   10f52: ef 40 b0 32  	jal	0x15a7c <__retarget_lock_release_recursive>
   10f56: 83 17 09 01  	lh	a5, 0x10(s2)
   10f5a: e9 bc        	j	0x10a34 <_vfprintf_r+0x272>
   10f5c: 02 65        	ld	a0, 0x0(sp)
   10f5e: ef 20 20 09  	jal	0x12ff0 <__sinit>
   10f62: 61 b8        	j	0x107fa <_vfprintf_r+0x38>
   10f64: e2 67        	ld	a5, 0x18(sp)
   10f66: 13 77 0b 02  	andi	a4, s6, 0x20
   10f6a: 5a 8f        	mv	t5, s6
   10f6c: 62 83        	mv	t1, s8
   10f6e: a1 07        	addi	a5, a5, 0x8
   10f70: 63 1b 07 24  	bnez	a4, 0x111c6 <_vfprintf_r+0xa04>
   10f74: 13 77 0b 01  	andi	a4, s6, 0x10
   10f78: 19 c3        	beqz	a4, 0x10f7e <_vfprintf_r+0x7bc>
   10f7a: 6f 10 40 6b  	j	0x1262e <_vfprintf_r+0x1e6c>
   10f7e: e2 66        	ld	a3, 0x18(sp)
   10f80: 13 77 0b 04  	andi	a4, s6, 0x40
   10f84: 03 aa 06 00  	lw	s4, 0x0(a3)
   10f88: e3 09 07 74  	beqz	a4, 0x11eda <_vfprintf_r+0x1718>
   10f8c: 1b 1a 0a 01  	slliw	s4, s4, 0x10
   10f90: 1b 5a 0a 41  	sraiw	s4, s4, 0x10
   10f94: 3e ec        	sd	a5, 0x18(sp)
   10f96: 52 87        	mv	a4, s4
   10f98: 63 4d 07 22  	bltz	a4, 0x111d2 <_vfprintf_r+0xa10>
   10f9c: 63 46 03 24  	bltz	t1, 0x111e8 <_vfprintf_r+0xa26>
   10fa0: 13 7f ff f7  	andi	t5, t5, -0x81
   10fa4: 01 2f        	sext.w	t5, t5
   10fa6: 63 11 0a 24  	bnez	s4, 0x111e8 <_vfprintf_r+0xa26>
   10faa: 63 14 03 00  	bnez	t1, 0x10fb2 <_vfprintf_r+0x7f0>
   10fae: 6f 10 00 06  	j	0x1200e <_vfprintf_r+0x184c>
   10fb2: 93 07 00 03  	li	a5, 0x30
   10fb6: 81 a4        	j	0x111f6 <_vfprintf_r+0xa34>
   10fb8: 62 67        	ld	a4, 0x18(sp)
   10fba: 5a 8f        	mv	t5, s6
   10fbc: 05 4c        	li	s8, 0x1
   10fbe: 1c 43        	lw	a5, 0x0(a4)
   10fc0: a3 0f 01 08  	sb	zero, 0x9f(sp)
   10fc4: 23 04 f1 0e  	sb	a5, 0xe8(sp)
   10fc8: 93 07 87 00  	addi	a5, a4, 0x8
   10fcc: 3e ec        	sd	a5, 0x18(sp)
   10fce: ad ba        	j	0x10948 <_vfprintf_r+0x186>
   10fd0: e2 67        	ld	a5, 0x18(sp)
   10fd2: a3 0f 01 08  	sb	zero, 0x9f(sp)
   10fd6: 5a 8f        	mv	t5, s6
   10fd8: 03 bd 07 00  	ld	s10, 0x0(a5)
   10fdc: 93 8c 87 00  	addi	s9, a5, 0x8
   10fe0: e3 02 0d 3a  	beqz	s10, 0x11b84 <_vfprintf_r+0x13c2>
   10fe4: e3 49 0c 60  	bltz	s8, 0x11df6 <_vfprintf_r+0x1634>
   10fe8: 62 86        	mv	a2, s8
   10fea: 81 45        	li	a1, 0x0
   10fec: 6a 85        	mv	a0, s10
   10fee: 72 f0        	sd	t3, 0x20(sp)
   10ff0: 5a f8        	sd	s6, 0x30(sp)
   10ff2: 62 ec        	sd	s8, 0x18(sp)
   10ff4: ef 50 20 27  	jal	0x16266 <memchr>
   10ff8: 2a e8        	sd	a0, 0x10(sp)
   10ffa: 03 47 f1 09  	lbu	a4, 0x9f(sp)
   10ffe: 62 63        	ld	t1, 0x18(sp)
   11000: 02 7e        	ld	t3, 0x20(sp)
   11002: 42 7f        	ld	t5, 0x30(sp)
   11004: 19 e1        	bnez	a0, 0x1100a <_vfprintf_r+0x848>
   11006: 6f 10 c0 56  	j	0x12572 <_vfprintf_r+0x1db0>
   1100a: 3b 0c a5 41  	subw	s8, a0, s10
   1100e: e2 86        	mv	a3, s8
   11010: 63 54 0c 00  	bgez	s8, 0x11018 <_vfprintf_r+0x856>
   11014: 6f 10 60 09  	j	0x120aa <_vfprintf_r+0x18e8>
   11018: b6 8d        	mv	s11, a3
   1101a: 19 c3        	beqz	a4, 0x11020 <_vfprintf_r+0x85e>
   1101c: 6f 10 60 02  	j	0x12042 <_vfprintf_r+0x1880>
   11020: 66 ec        	sd	s9, 0x18(sp)
   11022: 0e 7a        	ld	s4, 0xe0(sp)
   11024: 02 e8        	sd	zero, 0x10(sp)
   11026: 02 fc        	sd	zero, 0x38(sp)
   11028: 02 f8        	sd	zero, 0x30(sp)
   1102a: 02 f0        	sd	zero, 0x20(sp)
   1102c: 93 7c 4f 08  	andi	s9, t5, 0x84
   11030: 01 43        	li	t1, 0x0
   11032: 52 86        	mv	a2, s4
   11034: e3 98 0c 92  	bnez	s9, 0x10964 <_vfprintf_r+0x1a2>
   11038: 3b 87 bb 41  	subw	a4, s7, s11
   1103c: 63 4d e0 7c  	bgtz	a4, 0x11816 <_vfprintf_r+0x1054>
   11040: 03 47 f1 09  	lbu	a4, 0x9f(sp)
   11044: e3 13 07 92  	bnez	a4, 0x1096a <_vfprintf_r+0x1a8>
   11048: 3b 03 83 41  	subw	t1, t1, s8
   1104c: e3 58 60 96  	blez	t1, 0x109bc <_vfprintf_r+0x1fa>
   11050: 6e 46        	lw	a2, 0xd8(sp)
   11052: 97 dc 00 00  	auipc	s9, 0xd
   11056: 93 8c 6c 6d  	addi	s9, s9, 0x6d6
   1105a: 63 db 64 04  	bge	s1, t1, 0x110b0 <_vfprintf_r+0x8ee>
   1105e: ce 87        	mv	a5, s3
   11060: 52 87        	mv	a4, s4
   11062: 66 8b        	mv	s6, s9
   11064: 9d 46        	li	a3, 0x7
   11066: f2 89        	mv	s3, t3
   11068: 7a 8a        	mv	s4, t5
   1106a: 9a 8c        	mv	s9, t1
   1106c: 21 a0        	j	0x11074 <_vfprintf_r+0x8b2>
   1106e: c1 3c        	addiw	s9, s9, -0x10
   11070: 63 da 94 03  	bge	s1, s9, 0x110a4 <_vfprintf_r+0x8e2>
   11074: 41 07        	addi	a4, a4, 0x10
   11076: 05 26        	addiw	a2, a2, 0x1
   11078: 23 b0 67 01  	sd	s6, 0x0(a5)
   1107c: 84 e7        	sd	s1, 0x8(a5)
   1107e: ba f1        	sd	a4, 0xe0(sp)
   11080: b2 cd        	sw	a2, 0xd8(sp)
   11082: c1 07        	addi	a5, a5, 0x10
   11084: e3 d5 c6 fe  	bge	a3, a2, 0x1106e <_vfprintf_r+0x8ac>
   11088: 02 65        	ld	a0, 0x0(sp)
   1108a: 90 09        	addi	a2, sp, 0xd0
   1108c: ca 85        	mv	a1, s2
   1108e: ef 80 40 5c  	jal	0x19652 <__sprint_r>
   11092: 63 19 05 56  	bnez	a0, 0x11604 <_vfprintf_r+0xe42>
   11096: c1 3c        	addiw	s9, s9, -0x10
   11098: 0e 77        	ld	a4, 0xe0(sp)
   1109a: 6e 46        	lw	a2, 0xd8(sp)
   1109c: 9c 0a        	addi	a5, sp, 0x150
   1109e: 9d 46        	li	a3, 0x7
   110a0: e3 ca 94 fd  	blt	s1, s9, 0x11074 <_vfprintf_r+0x8b2>
   110a4: 66 83        	mv	t1, s9
   110a6: 4e 8e        	mv	t3, s3
   110a8: 52 8f        	mv	t5, s4
   110aa: be 89        	mv	s3, a5
   110ac: 3a 8a        	mv	s4, a4
   110ae: da 8c        	mv	s9, s6
   110b0: 1a 9a        	add	s4, s4, t1
   110b2: 05 26        	addiw	a2, a2, 0x1
   110b4: 23 b0 99 01  	sd	s9, 0x0(s3)
   110b8: 23 b4 69 00  	sd	t1, 0x8(s3)
   110bc: d2 f1        	sd	s4, 0xe0(sp)
   110be: b2 cd        	sw	a2, 0xd8(sp)
   110c0: 1d 47        	li	a4, 0x7
   110c2: c1 09        	addi	s3, s3, 0x10
   110c4: e3 5c c7 8e  	bge	a4, a2, 0x109bc <_vfprintf_r+0x1fa>
   110c8: 02 65        	ld	a0, 0x0(sp)
   110ca: 90 09        	addi	a2, sp, 0xd0
   110cc: ca 85        	mv	a1, s2
   110ce: fa fc        	sd	t5, 0x78(sp)
   110d0: f2 f4        	sd	t3, 0x68(sp)
   110d2: ef 80 00 58  	jal	0x19652 <__sprint_r>
   110d6: 63 17 05 52  	bnez	a0, 0x11604 <_vfprintf_r+0xe42>
   110da: 66 7f        	ld	t5, 0x78(sp)
   110dc: 0e 7a        	ld	s4, 0xe0(sp)
   110de: 26 7e        	ld	t3, 0x68(sp)
   110e0: 13 77 0f 10  	andi	a4, t5, 0x100
   110e4: 93 09 01 15  	addi	s3, sp, 0x150
   110e8: e3 0e 07 8c  	beqz	a4, 0x109c4 <_vfprintf_r+0x202>
   110ec: 13 07 50 06  	li	a4, 0x65
   110f0: e3 50 c7 db  	bge	a4, t3, 0x10e90 <_vfprintf_r+0x6ce>
   110f4: 0e 65        	ld	a0, 0xc0(sp)
   110f6: ae 65        	ld	a1, 0xc8(sp)
   110f8: 01 46        	li	a2, 0x0
   110fa: 81 46        	li	a3, 0x0
   110fc: fa f4        	sd	t5, 0x68(sp)
   110fe: ef b0 b0 72  	jal	0x1d028 <__netf2>
   11102: 26 7f        	ld	t5, 0x68(sp)
   11104: 63 1d 05 5a  	bnez	a0, 0x116be <_vfprintf_r+0xefc>
   11108: ee 47        	lw	a5, 0xd8(sp)
   1110a: 05 47        	li	a4, 0x1
   1110c: 05 0a        	addi	s4, s4, 0x1
   1110e: 97 d6 00 00  	auipc	a3, 0xd
   11112: 93 86 a6 3c  	addi	a3, a3, 0x3ca
   11116: 85 27        	addiw	a5, a5, 0x1
   11118: 23 b4 e9 00  	sd	a4, 0x8(s3)
   1111c: 23 b0 d9 00  	sd	a3, 0x0(s3)
   11120: d2 f1        	sd	s4, 0xe0(sp)
   11122: be cd        	sw	a5, 0xd8(sp)
   11124: 1d 47        	li	a4, 0x7
   11126: c1 09        	addi	s3, s3, 0x10
   11128: e3 4f f7 3e  	blt	a4, a5, 0x11d26 <_vfprintf_r+0x1564>
   1112c: aa 57        	lw	a5, 0xa8(sp)
   1112e: 22 77        	ld	a4, 0x28(sp)
   11130: 63 dd e7 7c  	bge	a5, a4, 0x1190a <_vfprintf_r+0x1148>
   11134: 06 67        	ld	a4, 0x40(sp)
   11136: ee 47        	lw	a5, 0xd8(sp)
   11138: a6 66        	ld	a3, 0x48(sp)
   1113a: 3a 9a        	add	s4, s4, a4
   1113c: 85 27        	addiw	a5, a5, 0x1
   1113e: 23 b4 e9 00  	sd	a4, 0x8(s3)
   11142: 23 b0 d9 00  	sd	a3, 0x0(s3)
   11146: d2 f1        	sd	s4, 0xe0(sp)
   11148: be cd        	sw	a5, 0xd8(sp)
   1114a: 1d 47        	li	a4, 0x7
   1114c: c1 09        	addi	s3, s3, 0x10
   1114e: e3 4b f7 1e  	blt	a4, a5, 0x11b44 <_vfprintf_r+0x1382>
   11152: a2 77        	ld	a5, 0x28(sp)
   11154: 1b 8c f7 ff  	addiw	s8, a5, -0x1
   11158: e3 53 80 89  	blez	s8, 0x109de <_vfprintf_r+0x21c>
   1115c: c1 46        	li	a3, 0x10
   1115e: ee 47        	lw	a5, 0xd8(sp)
   11160: 97 dc 00 00  	auipc	s9, 0xd
   11164: 93 8c 8c 5c  	addi	s9, s9, 0x5c8
   11168: e3 d0 86 3f  	bge	a3, s8, 0x11d48 <_vfprintf_r+0x1586>
   1116c: 66 8b        	mv	s6, s9
   1116e: 36 83        	mv	t1, a3
   11170: e2 8c        	mv	s9, s8
   11172: 1d 4d        	li	s10, 0x7
   11174: 7a 8c        	mv	s8, t5
   11176: 21 a0        	j	0x1117e <_vfprintf_r+0x9bc>
   11178: c1 3c        	addiw	s9, s9, -0x10
   1117a: e3 54 93 3d  	bge	t1, s9, 0x11d42 <_vfprintf_r+0x1580>
   1117e: 41 0a        	addi	s4, s4, 0x10
   11180: 85 27        	addiw	a5, a5, 0x1
   11182: 23 b0 69 01  	sd	s6, 0x0(s3)
   11186: 23 b4 d9 00  	sd	a3, 0x8(s3)
   1118a: d2 f1        	sd	s4, 0xe0(sp)
   1118c: be cd        	sw	a5, 0xd8(sp)
   1118e: c1 09        	addi	s3, s3, 0x10
   11190: e3 54 fd fe  	bge	s10, a5, 0x11178 <_vfprintf_r+0x9b6>
   11194: 02 65        	ld	a0, 0x0(sp)
   11196: 90 09        	addi	a2, sp, 0xd0
   11198: ca 85        	mv	a1, s2
   1119a: ef 80 80 4b  	jal	0x19652 <__sprint_r>
   1119e: 63 13 05 46  	bnez	a0, 0x11604 <_vfprintf_r+0xe42>
   111a2: 41 43        	li	t1, 0x10
   111a4: 0e 7a        	ld	s4, 0xe0(sp)
   111a6: ee 47        	lw	a5, 0xd8(sp)
   111a8: 93 09 01 15  	addi	s3, sp, 0x150
   111ac: 9a 86        	mv	a3, t1
   111ae: e9 b7        	j	0x11178 <_vfprintf_r+0x9b6>
   111b0: 93 66 0b 01  	ori	a3, s6, 0x10
   111b4: 13 7f 0b 02  	andi	t5, s6, 0x20
   111b8: 62 83        	mv	t1, s8
   111ba: 81 26        	sext.w	a3, a3
   111bc: e3 0c 0f 08  	beqz	t5, 0x11a54 <_vfprintf_r+0x1292>
   111c0: e2 67        	ld	a5, 0x18(sp)
   111c2: 36 8f        	mv	t5, a3
   111c4: a1 07        	addi	a5, a5, 0x8
   111c6: 62 67        	ld	a4, 0x18(sp)
   111c8: 3e ec        	sd	a5, 0x18(sp)
   111ca: 18 63        	ld	a4, 0x0(a4)
   111cc: 3a 8a        	mv	s4, a4
   111ce: e3 57 07 dc  	bgez	a4, 0x10f9c <_vfprintf_r+0x7da>
   111d2: 93 07 d0 02  	li	a5, 0x2d
   111d6: a3 0f f1 08  	sb	a5, 0x9f(sp)
   111da: 33 0a 40 41  	neg	s4, s4
   111de: 63 45 03 00  	bltz	t1, 0x111e8 <_vfprintf_r+0xa26>
   111e2: 13 7f ff f7  	andi	t5, t5, -0x81
   111e6: 01 2f        	sext.w	t5, t5
   111e8: a5 4d        	li	s11, 0x9
   111ea: 63 e9 4d 7d  	bltu	s11, s4, 0x119bc <_vfprintf_r+0x11fa>
   111ee: 9b 07 0a 03  	addiw	a5, s4, 0x30
   111f2: 93 f7 f7 0f  	andi	a5, a5, 0xff
   111f6: a3 05 f1 14  	sb	a5, 0x14b(sp)
   111fa: 1a 88        	mv	a6, t1
   111fc: 63 43 60 00  	bgtz	t1, 0x11202 <_vfprintf_r+0xa40>
   11200: 05 48        	li	a6, 0x1
   11202: 03 47 f1 09  	lbu	a4, 0x9f(sp)
   11206: 9b 0d 08 00  	sext.w	s11, a6
   1120a: 05 4c        	li	s8, 0x1
   1120c: 13 0d b1 14  	addi	s10, sp, 0x14b
   11210: 63 03 07 22  	beqz	a4, 0x11436 <_vfprintf_r+0xc74>
   11214: 85 2d        	addiw	s11, s11, 0x1
   11216: 02 e8        	sd	zero, 0x10(sp)
   11218: 02 fc        	sd	zero, 0x38(sp)
   1121a: 02 f8        	sd	zero, 0x30(sp)
   1121c: 02 f0        	sd	zero, 0x20(sp)
   1121e: 6f f0 af f3  	j	0x10958 <_vfprintf_r+0x196>
   11222: e2 67        	ld	a5, 0x18(sp)
   11224: 83 ab 07 00  	lw	s7, 0x0(a5)
   11228: a1 07        	addi	a5, a5, 0x8
   1122a: 63 de 0b 6e  	bgez	s7, 0x11926 <_vfprintf_r+0x1164>
   1122e: bb 0b 70 41  	negw	s7, s7
   11232: 3e ec        	sd	a5, 0x18(sp)
   11234: 13 6f 4b 00  	ori	t5, s6, 0x4
   11238: 03 ce 0a 00  	lbu	t3, 0x0(s5)
   1123c: 1b 0b 0f 00  	sext.w	s6, t5
   11240: 6f f0 4f ea  	j	0x108e4 <_vfprintf_r+0x122>
   11244: 93 77 0b 02  	andi	a5, s6, 0x20
   11248: 5a 8f        	mv	t5, s6
   1124a: 62 83        	mv	t1, s8
   1124c: 63 99 07 74  	bnez	a5, 0x1199e <_vfprintf_r+0x11dc>
   11250: 93 77 0b 01  	andi	a5, s6, 0x10
   11254: 63 95 07 74  	bnez	a5, 0x1199e <_vfprintf_r+0x11dc>
   11258: e2 66        	ld	a3, 0x18(sp)
   1125a: 93 77 0b 04  	andi	a5, s6, 0x40
   1125e: 03 aa 06 00  	lw	s4, 0x0(a3)
   11262: 13 87 86 00  	addi	a4, a3, 0x8
   11266: e3 86 07 48  	beqz	a5, 0x11ef2 <_vfprintf_r+0x1730>
   1126a: 42 1a        	slli	s4, s4, 0x30
   1126c: a3 0f 01 08  	sb	zero, 0x9f(sp)
   11270: 13 5a 0a 03  	srli	s4, s4, 0x30
   11274: 63 4a 0c 1e  	bltz	s8, 0x11468 <_vfprintf_r+0xca6>
   11278: 13 7f ff f7  	andi	t5, t5, -0x81
   1127c: 01 2f        	sext.w	t5, t5
   1127e: 63 15 0a 1e  	bnez	s4, 0x11468 <_vfprintf_r+0xca6>
   11282: 3a ec        	sd	a4, 0x18(sp)
   11284: e3 0d 03 22  	beqz	t1, 0x11cbe <_vfprintf_r+0x14fc>
   11288: 01 4a        	li	s4, 0x0
   1128a: 95 b7        	j	0x111ee <_vfprintf_r+0xa2c>
   1128c: 13 6f 0b 02  	ori	t5, s6, 0x20
   11290: 03 ce 0a 00  	lbu	t3, 0x0(s5)
   11294: 1b 0b 0f 00  	sext.w	s6, t5
   11298: 6f f0 cf e4  	j	0x108e4 <_vfprintf_r+0x122>
   1129c: e2 66        	ld	a3, 0x18(sp)
   1129e: a1 67        	lui	a5, 0x8
   112a0: 93 87 07 83  	addi	a5, a5, -0x7d0
   112a4: 98 62        	ld	a4, 0x0(a3)
   112a6: 23 10 f1 0a  	sh	a5, 0xa0(sp)
   112aa: a3 0f 01 08  	sb	zero, 0x9f(sp)
   112ae: 3a e8        	sd	a4, 0x10(sp)
   112b0: 62 83        	mv	t1, s8
   112b2: 93 87 86 00  	addi	a5, a3, 0x8
   112b6: 63 48 0c 7a  	bltz	s8, 0x11a66 <_vfprintf_r+0x12a4>
   112ba: 93 76 fb f7  	andi	a3, s6, -0x81
   112be: 81 26        	sext.w	a3, a3
   112c0: 13 e5 26 00  	ori	a0, a3, 0x2
   112c4: e3 14 07 2e  	bnez	a4, 0x11dac <_vfprintf_r+0x15ea>
   112c8: e3 1b 0c 54  	bnez	s8, 0x1201e <_vfprintf_r+0x185c>
   112cc: 0e 7a        	ld	s4, 0xe0(sp)
   112ce: ee 45        	lw	a1, 0xd8(sp)
   112d0: 13 77 4b 00  	andi	a4, s6, 0x4
   112d4: 3a f8        	sd	a4, 0x30(sp)
   112d6: 3e ec        	sd	a5, 0x18(sp)
   112d8: 02 fc        	sd	zero, 0x38(sp)
   112da: 52 86        	mv	a2, s4
   112dc: ae 86        	mv	a3, a1
   112de: 2a 8f        	mv	t5, a0
   112e0: 01 4c        	li	s8, 0x0
   112e2: e3 03 07 10  	beqz	a4, 0x11be8 <_vfprintf_r+0x1426>
   112e6: 02 f8        	sd	zero, 0x30(sp)
   112e8: 02 f0        	sd	zero, 0x20(sp)
   112ea: 89 4d        	li	s11, 0x2
   112ec: 13 0d c1 14  	addi	s10, sp, 0x14c
   112f0: 13 0e 80 07  	li	t3, 0x78
   112f4: 91 4c        	li	s9, 0x4
   112f6: 6f f0 af e9  	j	0x10990 <_vfprintf_r+0x1ce>
   112fa: e2 67        	ld	a5, 0x18(sp)
   112fc: 13 77 0b 02  	andi	a4, s6, 0x20
   11300: 5a 8f        	mv	t5, s6
   11302: 62 83        	mv	t1, s8
   11304: a1 07        	addi	a5, a5, 0x8
   11306: 63 1a 07 68  	bnez	a4, 0x1199a <_vfprintf_r+0x11d8>
   1130a: 13 77 0b 01  	andi	a4, s6, 0x10
   1130e: 63 16 07 68  	bnez	a4, 0x1199a <_vfprintf_r+0x11d8>
   11312: 62 67        	ld	a4, 0x18(sp)
   11314: 93 76 0b 04  	andi	a3, s6, 0x40
   11318: 18 43        	lw	a4, 0x0(a4)
   1131a: e3 8f 06 38  	beqz	a3, 0x11eb8 <_vfprintf_r+0x16f6>
   1131e: 42 17        	slli	a4, a4, 0x30
   11320: 41 93        	srli	a4, a4, 0x30
   11322: 3e ec        	sd	a5, 0x18(sp)
   11324: 5a 88        	mv	a6, s6
   11326: 71 a0        	j	0x113b2 <_vfprintf_r+0xbf0>
   11328: e2 66        	ld	a3, 0x18(sp)
   1132a: 93 77 0b 02  	andi	a5, s6, 0x20
   1132e: 98 62        	ld	a4, 0x0(a3)
   11330: a1 06        	addi	a3, a3, 0x8
   11332: 36 ec        	sd	a3, 0x18(sp)
   11334: 63 9e 07 64  	bnez	a5, 0x11990 <_vfprintf_r+0x11ce>
   11338: 93 77 0b 01  	andi	a5, s6, 0x10
   1133c: 63 9a 07 64  	bnez	a5, 0x11990 <_vfprintf_r+0x11ce>
   11340: 93 77 0b 04  	andi	a5, s6, 0x40
   11344: e3 9d 07 54  	bnez	a5, 0x1209e <_vfprintf_r+0x18dc>
   11348: 13 7f 0b 20  	andi	t5, s6, 0x200
   1134c: a2 67        	ld	a5, 0x8(sp)
   1134e: 63 14 0f 00  	bnez	t5, 0x11356 <_vfprintf_r+0xb94>
   11352: 6f 10 a0 40  	j	0x1275c <_vfprintf_r+0x1f9a>
   11356: 23 00 f7 00  	sb	a5, 0x0(a4)
   1135a: 56 8d        	mv	s10, s5
   1135c: 6f f0 8f eb  	j	0x10a14 <_vfprintf_r+0x252>
   11360: 03 ce 0a 00  	lbu	t3, 0x0(s5)
   11364: 93 07 c0 06  	li	a5, 0x6c
   11368: 63 0c fe 7e  	beq	t3, a5, 0x11b60 <_vfprintf_r+0x139e>
   1136c: 13 6f 0b 01  	ori	t5, s6, 0x10
   11370: 1b 0b 0f 00  	sext.w	s6, t5
   11374: 6f f0 0f d7  	j	0x108e4 <_vfprintf_r+0x122>
   11378: 13 6f 8b 00  	ori	t5, s6, 0x8
   1137c: 03 ce 0a 00  	lbu	t3, 0x0(s5)
   11380: 1b 0b 0f 00  	sext.w	s6, t5
   11384: 6f f0 0f d6  	j	0x108e4 <_vfprintf_r+0x122>
   11388: 03 ce 0a 00  	lbu	t3, 0x0(s5)
   1138c: 93 07 80 06  	li	a5, 0x68
   11390: 63 01 fe 7e  	beq	t3, a5, 0x11b72 <_vfprintf_r+0x13b0>
   11394: 13 6f 0b 04  	ori	t5, s6, 0x40
   11398: 1b 0b 0f 00  	sext.w	s6, t5
   1139c: 6f f0 8f d4  	j	0x108e4 <_vfprintf_r+0x122>
   113a0: e2 67        	ld	a5, 0x18(sp)
   113a2: 13 68 0b 01  	ori	a6, s6, 0x10
   113a6: 62 83        	mv	t1, s8
   113a8: 01 28        	sext.w	a6, a6
   113aa: a1 07        	addi	a5, a5, 0x8
   113ac: 62 67        	ld	a4, 0x18(sp)
   113ae: 18 63        	ld	a4, 0x0(a4)
   113b0: 3e ec        	sd	a5, 0x18(sp)
   113b2: a3 0f 01 08  	sb	zero, 0x9f(sp)
   113b6: 63 44 03 02  	bltz	t1, 0x113de <_vfprintf_r+0xc1c>
   113ba: 13 7f f8 b7  	andi	t5, a6, -0x481
   113be: 01 2f        	sext.w	t5, t5
   113c0: 1d e3        	bnez	a4, 0x113e6 <_vfprintf_r+0xc24>
   113c2: 63 12 03 02  	bnez	t1, 0x113e6 <_vfprintf_r+0xc24>
   113c6: 93 7d 18 00  	andi	s11, a6, 0x1
   113ca: e3 80 0d 10  	beqz	s11, 0x11cca <_vfprintf_r+0x1508>
   113ce: 93 07 00 03  	li	a5, 0x30
   113d2: a3 05 f1 14  	sb	a5, 0x14b(sp)
   113d6: 6e 8c        	mv	s8, s11
   113d8: 13 0d b1 14  	addi	s10, sp, 0x14b
   113dc: a9 a8        	j	0x11436 <_vfprintf_r+0xc74>
   113de: 13 78 f8 bf  	andi	a6, a6, -0x401
   113e2: 1b 0f 08 00  	sext.w	t5, a6
   113e6: 93 0c c1 14  	addi	s9, sp, 0x14c
   113ea: 66 8d        	mv	s10, s9
   113ec: 93 76 77 00  	andi	a3, a4, 0x7
   113f0: 6a 86        	mv	a2, s10
   113f2: 93 86 06 03  	addi	a3, a3, 0x30
   113f6: 0d 83        	srli	a4, a4, 0x3
   113f8: a3 0f dd fe  	sb	a3, -0x1(s10)
   113fc: 7d 1d        	addi	s10, s10, -0x1
   113fe: 7d f7        	bnez	a4, 0x113ec <_vfprintf_r+0xc2a>
   11400: 13 77 1f 00  	andi	a4, t5, 0x1
   11404: 15 c3        	beqz	a4, 0x11428 <_vfprintf_r+0xc66>
   11406: 13 07 00 03  	li	a4, 0x30
   1140a: 63 8f e6 00  	beq	a3, a4, 0x11428 <_vfprintf_r+0xc66>
   1140e: 79 16        	addi	a2, a2, -0x2
   11410: 3b 8c cc 40  	subw	s8, s9, a2
   11414: a3 0f ed fe  	sb	a4, -0x1(s10)
   11418: 1a 88        	mv	a6, t1
   1141a: 63 53 83 01  	bge	t1, s8, 0x11420 <_vfprintf_r+0xc5e>
   1141e: 62 88        	mv	a6, s8
   11420: 9b 0d 08 00  	sext.w	s11, a6
   11424: 32 8d        	mv	s10, a2
   11426: 01 a8        	j	0x11436 <_vfprintf_r+0xc74>
   11428: 3b 8c ac 41  	subw	s8, s9, s10
   1142c: 1a 88        	mv	a6, t1
   1142e: 63 4c 83 4d  	blt	t1, s8, 0x11906 <_vfprintf_r+0x1144>
   11432: 9b 0d 08 00  	sext.w	s11, a6
   11436: 02 e8        	sd	zero, 0x10(sp)
   11438: 02 fc        	sd	zero, 0x38(sp)
   1143a: 02 f8        	sd	zero, 0x30(sp)
   1143c: 02 f0        	sd	zero, 0x20(sp)
   1143e: 6f f0 af d1  	j	0x10958 <_vfprintf_r+0x196>
   11442: e2 66        	ld	a3, 0x18(sp)
   11444: 93 67 0b 01  	ori	a5, s6, 0x10
   11448: a3 0f 01 08  	sb	zero, 0x9f(sp)
   1144c: 62 83        	mv	t1, s8
   1144e: 03 ba 06 00  	ld	s4, 0x0(a3)
   11452: 81 27        	sext.w	a5, a5
   11454: 13 87 86 00  	addi	a4, a3, 0x8
   11458: 63 4d 03 54  	bltz	t1, 0x119b2 <_vfprintf_r+0x11f0>
   1145c: 93 f7 f7 f7  	andi	a5, a5, -0x81
   11460: 1b 8f 07 00  	sext.w	t5, a5
   11464: e3 0f 0a e0  	beqz	s4, 0x11282 <_vfprintf_r+0xac0>
   11468: 3a ec        	sd	a4, 0x18(sp)
   1146a: bd bb        	j	0x111e8 <_vfprintf_r+0xa26>
   1146c: 82 6c        	ld	s9, 0x0(sp)
   1146e: 66 85        	mv	a0, s9
   11470: ef 40 a0 5e  	jal	0x15a5a <_localeconv_r>
   11474: 1c 65        	ld	a5, 0x8(a0)
   11476: 3e 85        	mv	a0, a5
   11478: be ec        	sd	a5, 0x58(sp)
   1147a: ef 50 b0 77  	jal	0x173f4 <strlen>
   1147e: aa 87        	mv	a5, a0
   11480: 66 85        	mv	a0, s9
   11482: be f8        	sd	a5, 0x70(sp)
   11484: be 8c        	mv	s9, a5
   11486: ef 40 40 5d  	jal	0x15a5a <_localeconv_r>
   1148a: 1c 69        	ld	a5, 0x10(a0)
   1148c: 03 ce 0a 00  	lbu	t3, 0x0(s5)
   11490: be f0        	sd	a5, 0x60(sp)
   11492: 63 89 0c c4  	beqz	s9, 0x108e4 <_vfprintf_r+0x122>
   11496: 63 87 07 c4  	beqz	a5, 0x108e4 <_vfprintf_r+0x122>
   1149a: 83 c7 07 00  	lbu	a5, 0x0(a5)
   1149e: 63 83 07 c4  	beqz	a5, 0x108e4 <_vfprintf_r+0x122>
   114a2: 13 6f 0b 40  	ori	t5, s6, 0x400
   114a6: 1b 0b 0f 00  	sext.w	s6, t5
   114aa: 6f f0 af c3  	j	0x108e4 <_vfprintf_r+0x122>
   114ae: 13 6f 1b 00  	ori	t5, s6, 0x1
   114b2: 03 ce 0a 00  	lbu	t3, 0x0(s5)
   114b6: 1b 0b 0f 00  	sext.w	s6, t5
   114ba: 6f f0 af c2  	j	0x108e4 <_vfprintf_r+0x122>
   114be: 83 47 f1 09  	lbu	a5, 0x9f(sp)
   114c2: 03 ce 0a 00  	lbu	t3, 0x0(s5)
   114c6: 63 9f 07 c0  	bnez	a5, 0x108e4 <_vfprintf_r+0x122>
   114ca: 93 07 00 02  	li	a5, 0x20
   114ce: a3 0f f1 08  	sb	a5, 0x9f(sp)
   114d2: 6f f0 2f c1  	j	0x108e4 <_vfprintf_r+0x122>
   114d6: 13 6f 0b 08  	ori	t5, s6, 0x80
   114da: 03 ce 0a 00  	lbu	t3, 0x0(s5)
   114de: 1b 0b 0f 00  	sext.w	s6, t5
   114e2: 6f f0 2f c0  	j	0x108e4 <_vfprintf_r+0x122>
   114e6: 93 07 b0 02  	li	a5, 0x2b
   114ea: 03 ce 0a 00  	lbu	t3, 0x0(s5)
   114ee: a3 0f f1 08  	sb	a5, 0x9f(sp)
   114f2: 6f f0 2f bf  	j	0x108e4 <_vfprintf_r+0x122>
   114f6: 03 ce 0a 00  	lbu	t3, 0x0(s5)
   114fa: 93 07 a0 02  	li	a5, 0x2a
   114fe: 13 86 1a 00  	addi	a2, s5, 0x1
   11502: 63 14 fe 00  	bne	t3, a5, 0x1150a <_vfprintf_r+0xd48>
   11506: 6f 10 e0 44  	j	0x12954 <_vfprintf_r+0x2192>
   1150a: 1b 07 0e fd  	addiw	a4, t3, -0x30
   1150e: a5 45        	li	a1, 0x9
   11510: 81 46        	li	a3, 0x0
   11512: b2 8a        	mv	s5, a2
   11514: 01 4c        	li	s8, 0x0
   11516: 63 e8 e5 bc  	bltu	a1, a4, 0x108e6 <_vfprintf_r+0x124>
   1151a: 9b 97 26 00  	slliw	a5, a3, 0x2
   1151e: 03 4e 06 00  	lbu	t3, 0x0(a2)
   11522: b5 9f        	addw	a5, a5, a3
   11524: 9b 97 17 00  	slliw	a5, a5, 0x1
   11528: bb 86 e7 00  	addw	a3, a5, a4
   1152c: 1b 07 0e fd  	addiw	a4, t3, -0x30
   11530: 05 06        	addi	a2, a2, 0x1
   11532: e3 f4 e5 fe  	bgeu	a1, a4, 0x1151a <_vfprintf_r+0xd58>
   11536: 36 83        	mv	t1, a3
   11538: 63 cb 06 58  	bltz	a3, 0x11ace <_vfprintf_r+0x130c>
   1153c: 1a 8c        	mv	s8, t1
   1153e: b2 8a        	mv	s5, a2
   11540: 6f f0 6f ba  	j	0x108e6 <_vfprintf_r+0x124>
   11544: bb 86 bb 41  	subw	a3, s7, s11
   11548: 63 56 d0 c6  	blez	a3, 0x109b4 <_vfprintf_r+0x1f2>
   1154c: c1 4f        	li	t6, 0x10
   1154e: 6e 46        	lw	a2, 0xd8(sp)
   11550: 97 dc 00 00  	auipc	s9, 0xd
   11554: 93 8c 8c 1d  	addi	s9, s9, 0x1d8
   11558: 63 d2 df 06  	bge	t6, a3, 0x115bc <_vfprintf_r+0xdfa>
   1155c: ce 87        	mv	a5, s3
   1155e: 52 87        	mv	a4, s4
   11560: e6 89        	mv	s3, s9
   11562: fe 83        	mv	t2, t6
   11564: e2 8c        	mv	s9, s8
   11566: 9d 42        	li	t0, 0x7
   11568: 36 8b        	mv	s6, a3
   1156a: f2 f4        	sd	t3, 0x68(sp)
   1156c: 7a 8a        	mv	s4, t5
   1156e: 1a 8c        	mv	s8, t1
   11570: 21 a0        	j	0x11578 <_vfprintf_r+0xdb6>
   11572: 41 3b        	addiw	s6, s6, -0x10
   11574: 63 dc 63 03  	bge	t2, s6, 0x115ac <_vfprintf_r+0xdea>
   11578: 41 07        	addi	a4, a4, 0x10
   1157a: 05 26        	addiw	a2, a2, 0x1
   1157c: 23 b0 37 01  	sd	s3, 0x0(a5)
   11580: 23 b4 f7 01  	sd	t6, 0x8(a5)
   11584: ba f1        	sd	a4, 0xe0(sp)
   11586: b2 cd        	sw	a2, 0xd8(sp)
   11588: c1 07        	addi	a5, a5, 0x10
   1158a: e3 d4 c2 fe  	bge	t0, a2, 0x11572 <_vfprintf_r+0xdb0>
   1158e: 02 65        	ld	a0, 0x0(sp)
   11590: 90 09        	addi	a2, sp, 0xd0
   11592: ca 85        	mv	a1, s2
   11594: ef 80 e0 0b  	jal	0x19652 <__sprint_r>
   11598: 35 e5        	bnez	a0, 0x11604 <_vfprintf_r+0xe42>
   1159a: c1 43        	li	t2, 0x10
   1159c: 41 3b        	addiw	s6, s6, -0x10
   1159e: 0e 77        	ld	a4, 0xe0(sp)
   115a0: 6e 46        	lw	a2, 0xd8(sp)
   115a2: 9c 0a        	addi	a5, sp, 0x150
   115a4: 9d 42        	li	t0, 0x7
   115a6: 9e 8f        	mv	t6, t2
   115a8: e3 c8 63 fd  	blt	t2, s6, 0x11578 <_vfprintf_r+0xdb6>
   115ac: 26 7e        	ld	t3, 0x68(sp)
   115ae: 52 8f        	mv	t5, s4
   115b0: 62 83        	mv	t1, s8
   115b2: da 86        	mv	a3, s6
   115b4: 66 8c        	mv	s8, s9
   115b6: 3a 8a        	mv	s4, a4
   115b8: ce 8c        	mv	s9, s3
   115ba: be 89        	mv	s3, a5
   115bc: 36 9a        	add	s4, s4, a3
   115be: 05 26        	addiw	a2, a2, 0x1
   115c0: 23 b0 99 01  	sd	s9, 0x0(s3)
   115c4: 23 b4 d9 00  	sd	a3, 0x8(s3)
   115c8: d2 f1        	sd	s4, 0xe0(sp)
   115ca: b2 cd        	sw	a2, 0xd8(sp)
   115cc: 1d 47        	li	a4, 0x7
   115ce: c1 09        	addi	s3, s3, 0x10
   115d0: 63 52 c7 be  	bge	a4, a2, 0x109b4 <_vfprintf_r+0x1f2>
   115d4: 02 65        	ld	a0, 0x0(sp)
   115d6: 90 09        	addi	a2, sp, 0xd0
   115d8: ca 85        	mv	a1, s2
   115da: 1a e1        	sd	t1, 0x80(sp)
   115dc: fa fc        	sd	t5, 0x78(sp)
   115de: f2 f4        	sd	t3, 0x68(sp)
   115e0: ef 80 20 07  	jal	0x19652 <__sprint_r>
   115e4: 05 e1        	bnez	a0, 0x11604 <_vfprintf_r+0xe42>
   115e6: 0e 7a        	ld	s4, 0xe0(sp)
   115e8: 26 7e        	ld	t3, 0x68(sp)
   115ea: 66 7f        	ld	t5, 0x78(sp)
   115ec: 0a 63        	ld	t1, 0x80(sp)
   115ee: 93 09 01 15  	addi	s3, sp, 0x150
   115f2: 6f f0 2f bc  	j	0x109b4 <_vfprintf_r+0x1f2>
   115f6: 02 65        	ld	a0, 0x0(sp)
   115f8: 90 09        	addi	a2, sp, 0xd0
   115fa: ca 85        	mv	a1, s2
   115fc: ef 80 60 05  	jal	0x19652 <__sprint_r>
   11600: 63 00 05 c0  	beqz	a0, 0x10a00 <_vfprintf_r+0x23e>
   11604: c2 62        	ld	t0, 0x10(sp)
   11606: 63 80 02 c2  	beqz	t0, 0x10a26 <_vfprintf_r+0x264>
   1160a: 02 65        	ld	a0, 0x0(sp)
   1160c: 96 85        	mv	a1, t0
   1160e: ef 10 10 59  	jal	0x1339e <_free_r>
   11612: 03 27 09 0b  	lw	a4, 0xb0(s2)
   11616: 83 17 09 01  	lh	a5, 0x10(s2)
   1161a: 05 8b        	andi	a4, a4, 0x1
   1161c: 63 1c 07 c0  	bnez	a4, 0x10a34 <_vfprintf_r+0x272>
   11620: 1d b2        	j	0x10f46 <_vfprintf_r+0x784>
   11622: 02 65        	ld	a0, 0x0(sp)
   11624: 90 09        	addi	a2, sp, 0xd0
   11626: ca 85        	mv	a1, s2
   11628: 1a e1        	sd	t1, 0x80(sp)
   1162a: fa fc        	sd	t5, 0x78(sp)
   1162c: f2 f4        	sd	t3, 0x68(sp)
   1162e: ef 80 40 02  	jal	0x19652 <__sprint_r>
   11632: 69 f9        	bnez	a0, 0x11604 <_vfprintf_r+0xe42>
   11634: 0e 7a        	ld	s4, 0xe0(sp)
   11636: 0a 63        	ld	t1, 0x80(sp)
   11638: 66 7f        	ld	t5, 0x78(sp)
   1163a: 26 7e        	ld	t3, 0x68(sp)
   1163c: 93 09 01 15  	addi	s3, sp, 0x150
   11640: 6f f0 cf b6  	j	0x109ac <_vfprintf_r+0x1ea>
   11644: 41 47        	li	a4, 0x10
   11646: 97 d6 00 00  	auipc	a3, 0xd
   1164a: 93 86 26 0f  	addi	a3, a3, 0xf2
   1164e: ee 47        	lw	a5, 0xd8(sp)
   11650: 3a 8d        	mv	s10, a4
   11652: 1d 4b        	li	s6, 0x7
   11654: b6 8c        	mv	s9, a3
   11656: 63 46 87 01  	blt	a4, s8, 0x11662 <_vfprintf_r+0xea0>
   1165a: 35 a8        	j	0x11696 <_vfprintf_r+0xed4>
   1165c: 41 3c        	addiw	s8, s8, -0x10
   1165e: 63 5b 8d 03  	bge	s10, s8, 0x11694 <_vfprintf_r+0xed2>
   11662: 41 0a        	addi	s4, s4, 0x10
   11664: 85 27        	addiw	a5, a5, 0x1
   11666: 23 b0 99 01  	sd	s9, 0x0(s3)
   1166a: 23 b4 e9 00  	sd	a4, 0x8(s3)
   1166e: d2 f1        	sd	s4, 0xe0(sp)
   11670: be cd        	sw	a5, 0xd8(sp)
   11672: c1 09        	addi	s3, s3, 0x10
   11674: e3 54 fb fe  	bge	s6, a5, 0x1165c <_vfprintf_r+0xe9a>
   11678: 02 65        	ld	a0, 0x0(sp)
   1167a: 90 09        	addi	a2, sp, 0xd0
   1167c: ca 85        	mv	a1, s2
   1167e: ef 70 50 7d  	jal	0x19652 <__sprint_r>
   11682: 49 f1        	bnez	a0, 0x11604 <_vfprintf_r+0xe42>
   11684: 41 3c        	addiw	s8, s8, -0x10
   11686: 0e 7a        	ld	s4, 0xe0(sp)
   11688: ee 47        	lw	a5, 0xd8(sp)
   1168a: 93 09 01 15  	addi	s3, sp, 0x150
   1168e: 41 47        	li	a4, 0x10
   11690: e3 49 8d fd  	blt	s10, s8, 0x11662 <_vfprintf_r+0xea0>
   11694: e6 86        	mv	a3, s9
   11696: 62 9a        	add	s4, s4, s8
   11698: 85 27        	addiw	a5, a5, 0x1
   1169a: d2 f1        	sd	s4, 0xe0(sp)
   1169c: be cd        	sw	a5, 0xd8(sp)
   1169e: 23 b0 d9 00  	sd	a3, 0x0(s3)
   116a2: 23 b4 89 01  	sd	s8, 0x8(s3)
   116a6: 1d 47        	li	a4, 0x7
   116a8: 63 53 f7 b4  	bge	a4, a5, 0x109ee <_vfprintf_r+0x22c>
   116ac: 02 65        	ld	a0, 0x0(sp)
   116ae: 90 09        	addi	a2, sp, 0xd0
   116b0: ca 85        	mv	a1, s2
   116b2: ef 70 10 7a  	jal	0x19652 <__sprint_r>
   116b6: 39 f5        	bnez	a0, 0x11604 <_vfprintf_r+0xe42>
   116b8: 0e 7a        	ld	s4, 0xe0(sp)
   116ba: 6f f0 4f b3  	j	0x109ee <_vfprintf_r+0x22c>
   116be: 2a 56        	lw	a2, 0xa8(sp)
   116c0: 63 5c c0 26  	blez	a2, 0x11938 <_vfprintf_r+0x1176>
   116c4: 82 77        	ld	a5, 0x20(sp)
   116c6: a2 76        	ld	a3, 0x28(sp)
   116c8: 3e 87        	mv	a4, a5
   116ca: 63 d3 f6 00  	bge	a3, a5, 0x116d0 <_vfprintf_r+0xf0e>
   116ce: 36 87        	mv	a4, a3
   116d0: 1b 0c 07 00  	sext.w	s8, a4
   116d4: 63 5f 80 01  	blez	s8, 0x116f2 <_vfprintf_r+0xf30>
   116d8: ee 46        	lw	a3, 0xd8(sp)
   116da: 62 9a        	add	s4, s4, s8
   116dc: 23 b0 a9 01  	sd	s10, 0x0(s3)
   116e0: 85 26        	addiw	a3, a3, 0x1
   116e2: 23 b4 89 01  	sd	s8, 0x8(s3)
   116e6: d2 f1        	sd	s4, 0xe0(sp)
   116e8: b6 cd        	sw	a3, 0xd8(sp)
   116ea: 1d 46        	li	a2, 0x7
   116ec: c1 09        	addi	s3, s3, 0x10
   116ee: e3 44 d6 52  	blt	a2, a3, 0x12416 <_vfprintf_r+0x1c54>
   116f2: e2 86        	mv	a3, s8
   116f4: 63 53 0c 00  	bgez	s8, 0x116fa <_vfprintf_r+0xf38>
   116f8: 81 46        	li	a3, 0x0
   116fa: 82 77        	ld	a5, 0x20(sp)
   116fc: 3b 8c d7 40  	subw	s8, a5, a3
   11700: 63 40 80 73  	bgtz	s8, 0x11e20 <_vfprintf_r+0x165e>
   11704: 82 77        	ld	a5, 0x20(sp)
   11706: 13 77 0f 40  	andi	a4, t5, 0x400
   1170a: b3 0c fd 00  	add	s9, s10, a5
   1170e: e3 1e 07 2a  	bnez	a4, 0x121ca <_vfprintf_r+0x1a08>
   11712: 2a 5c        	lw	s8, 0xa8(sp)
   11714: a2 77        	ld	a5, 0x28(sp)
   11716: 63 46 fc 00  	blt	s8, a5, 0x11722 <_vfprintf_r+0xf60>
   1171a: 13 77 1f 00  	andi	a4, t5, 0x1
   1171e: e3 0d 07 14  	beqz	a4, 0x12078 <_vfprintf_r+0x18b6>
   11722: 6e 47        	lw	a4, 0xd8(sp)
   11724: 86 67        	ld	a5, 0x40(sp)
   11726: a6 66        	ld	a3, 0x48(sp)
   11728: 05 27        	addiw	a4, a4, 0x1
   1172a: 3e 9a        	add	s4, s4, a5
   1172c: 23 b0 d9 00  	sd	a3, 0x0(s3)
   11730: 23 b4 f9 00  	sd	a5, 0x8(s3)
   11734: d2 f1        	sd	s4, 0xe0(sp)
   11736: ba cd        	sw	a4, 0xd8(sp)
   11738: 9d 46        	li	a3, 0x7
   1173a: c1 09        	addi	s3, s3, 0x10
   1173c: e3 c8 e6 5e  	blt	a3, a4, 0x1252c <_vfprintf_r+0x1d6a>
   11740: 22 77        	ld	a4, 0x28(sp)
   11742: b3 07 ed 00  	add	a5, s10, a4
   11746: b3 87 97 41  	sub	a5, a5, s9
   1174a: bb 06 87 41  	subw	a3, a4, s8
   1174e: 1b 87 07 00  	sext.w	a4, a5
   11752: 63 d3 e6 00  	bge	a3, a4, 0x11758 <_vfprintf_r+0xf96>
   11756: b6 87        	mv	a5, a3
   11758: 1b 8c 07 00  	sext.w	s8, a5
   1175c: 63 5f 80 01  	blez	s8, 0x1177a <_vfprintf_r+0xfb8>
   11760: 6e 47        	lw	a4, 0xd8(sp)
   11762: 62 9a        	add	s4, s4, s8
   11764: 23 b0 99 01  	sd	s9, 0x0(s3)
   11768: 05 27        	addiw	a4, a4, 0x1
   1176a: 23 b4 89 01  	sd	s8, 0x8(s3)
   1176e: d2 f1        	sd	s4, 0xe0(sp)
   11770: ba cd        	sw	a4, 0xd8(sp)
   11772: 9d 47        	li	a5, 0x7
   11774: c1 09        	addi	s3, s3, 0x10
   11776: e3 ca e7 60  	blt	a5, a4, 0x1258a <_vfprintf_r+0x1dc8>
   1177a: 62 87        	mv	a4, s8
   1177c: 63 53 0c 00  	bgez	s8, 0x11782 <_vfprintf_r+0xfc0>
   11780: 01 47        	li	a4, 0x0
   11782: 3b 8c e6 40  	subw	s8, a3, a4
   11786: 63 5c 80 a5  	blez	s8, 0x109de <_vfprintf_r+0x21c>
   1178a: c1 46        	li	a3, 0x10
   1178c: ee 47        	lw	a5, 0xd8(sp)
   1178e: 97 dc 00 00  	auipc	s9, 0xd
   11792: 93 8c ac f9  	addi	s9, s9, -0x66
   11796: 63 d9 86 5b  	bge	a3, s8, 0x11d48 <_vfprintf_r+0x1586>
   1179a: 66 8b        	mv	s6, s9
   1179c: 36 83        	mv	t1, a3
   1179e: e2 8c        	mv	s9, s8
   117a0: 1d 4d        	li	s10, 0x7
   117a2: 7a 8c        	mv	s8, t5
   117a4: 21 a0        	j	0x117ac <_vfprintf_r+0xfea>
   117a6: c1 3c        	addiw	s9, s9, -0x10
   117a8: 63 5d 93 59  	bge	t1, s9, 0x11d42 <_vfprintf_r+0x1580>
   117ac: 41 0a        	addi	s4, s4, 0x10
   117ae: 85 27        	addiw	a5, a5, 0x1
   117b0: 23 b0 69 01  	sd	s6, 0x0(s3)
   117b4: 23 b4 d9 00  	sd	a3, 0x8(s3)
   117b8: d2 f1        	sd	s4, 0xe0(sp)
   117ba: be cd        	sw	a5, 0xd8(sp)
   117bc: c1 09        	addi	s3, s3, 0x10
   117be: e3 54 fd fe  	bge	s10, a5, 0x117a6 <_vfprintf_r+0xfe4>
   117c2: 02 65        	ld	a0, 0x0(sp)
   117c4: 90 09        	addi	a2, sp, 0xd0
   117c6: ca 85        	mv	a1, s2
   117c8: ef 70 b0 68  	jal	0x19652 <__sprint_r>
   117cc: e3 1c 05 e2  	bnez	a0, 0x11604 <_vfprintf_r+0xe42>
   117d0: 41 43        	li	t1, 0x10
   117d2: 0e 7a        	ld	s4, 0xe0(sp)
   117d4: ee 47        	lw	a5, 0xd8(sp)
   117d6: 93 09 01 15  	addi	s3, sp, 0x150
   117da: 9a 86        	mv	a3, t1
   117dc: e9 b7        	j	0x117a6 <_vfprintf_r+0xfe4>
   117de: 33 76 df 00  	and	a2, t5, a3
   117e2: 63 11 06 ec  	bnez	a2, 0x10ea4 <_vfprintf_r+0x6e2>
   117e6: 23 b0 a9 01  	sd	s10, 0x0(s3)
   117ea: 23 b4 d9 00  	sd	a3, 0x8(s3)
   117ee: d2 f1        	sd	s4, 0xe0(sp)
   117f0: e2 cd        	sw	s8, 0xd8(sp)
   117f2: 9d 47        	li	a5, 0x7
   117f4: 63 dd 87 f1  	bge	a5, s8, 0x10f0e <_vfprintf_r+0x74c>
   117f8: 02 65        	ld	a0, 0x0(sp)
   117fa: 90 09        	addi	a2, sp, 0xd0
   117fc: ca 85        	mv	a1, s2
   117fe: 7a f0        	sd	t5, 0x20(sp)
   11800: ef 70 30 65  	jal	0x19652 <__sprint_r>
   11804: e3 10 05 e0  	bnez	a0, 0x11604 <_vfprintf_r+0xe42>
   11808: 0e 7a        	ld	s4, 0xe0(sp)
   1180a: 6e 4c        	lw	s8, 0xd8(sp)
   1180c: 02 7f        	ld	t5, 0x20(sp)
   1180e: 93 08 01 15  	addi	a7, sp, 0x150
   11812: 6f f0 cf ef  	j	0x10f0e <_vfprintf_r+0x74c>
   11816: ee 46        	lw	a3, 0xd8(sp)
   11818: 41 4a        	li	s4, 0x10
   1181a: b6 85        	mv	a1, a3
   1181c: 97 d6 00 00  	auipc	a3, 0xd
   11820: 93 86 c6 f1  	addi	a3, a3, -0xe4
   11824: 63 50 ea 06  	bge	s4, a4, 0x11884 <_vfprintf_r+0x10c2>
   11828: d6 f4        	sd	s5, 0x68(sp)
   1182a: ce 87        	mv	a5, s3
   1182c: d2 83        	mv	t2, s4
   1182e: 9d 42        	li	t0, 0x7
   11830: ba 89        	mv	s3, a4
   11832: f2 fc        	sd	t3, 0x78(sp)
   11834: 7a 8b        	mv	s6, t5
   11836: 1a e1        	sd	t1, 0x80(sp)
   11838: b6 8a        	mv	s5, a3
   1183a: 21 a0        	j	0x11842 <_vfprintf_r+0x1080>
   1183c: c1 39        	addiw	s3, s3, -0x10
   1183e: 63 dc 33 03  	bge	t2, s3, 0x11876 <_vfprintf_r+0x10b4>
   11842: 41 06        	addi	a2, a2, 0x10
   11844: 85 25        	addiw	a1, a1, 0x1
   11846: 23 b0 57 01  	sd	s5, 0x0(a5)
   1184a: 23 b4 47 01  	sd	s4, 0x8(a5)
   1184e: b2 f1        	sd	a2, 0xe0(sp)
   11850: ae cd        	sw	a1, 0xd8(sp)
   11852: c1 07        	addi	a5, a5, 0x10
   11854: e3 d4 b2 fe  	bge	t0, a1, 0x1183c <_vfprintf_r+0x107a>
   11858: 02 65        	ld	a0, 0x0(sp)
   1185a: 90 09        	addi	a2, sp, 0xd0
   1185c: ca 85        	mv	a1, s2
   1185e: ef 70 50 5f  	jal	0x19652 <__sprint_r>
   11862: e3 11 05 da  	bnez	a0, 0x11604 <_vfprintf_r+0xe42>
   11866: c1 43        	li	t2, 0x10
   11868: c1 39        	addiw	s3, s3, -0x10
   1186a: 0e 76        	ld	a2, 0xe0(sp)
   1186c: ee 45        	lw	a1, 0xd8(sp)
   1186e: 9c 0a        	addi	a5, sp, 0x150
   11870: 9d 42        	li	t0, 0x7
   11872: e3 c8 33 fd  	blt	t2, s3, 0x11842 <_vfprintf_r+0x1080>
   11876: d6 86        	mv	a3, s5
   11878: 66 7e        	ld	t3, 0x78(sp)
   1187a: 0a 63        	ld	t1, 0x80(sp)
   1187c: a6 7a        	ld	s5, 0x68(sp)
   1187e: 4e 87        	mv	a4, s3
   11880: 5a 8f        	mv	t5, s6
   11882: be 89        	mv	s3, a5
   11884: 33 0a c7 00  	add	s4, a4, a2
   11888: 85 25        	addiw	a1, a1, 0x1
   1188a: 23 b4 e9 00  	sd	a4, 0x8(s3)
   1188e: d2 f1        	sd	s4, 0xe0(sp)
   11890: ae cd        	sw	a1, 0xd8(sp)
   11892: 23 b0 d9 00  	sd	a3, 0x0(s3)
   11896: 1d 47        	li	a4, 0x7
   11898: 63 4e b7 42  	blt	a4, a1, 0x11cd4 <_vfprintf_r+0x1512>
   1189c: 03 47 f1 09  	lbu	a4, 0x9f(sp)
   118a0: c1 09        	addi	s3, s3, 0x10
   118a2: 59 e7        	bnez	a4, 0x11930 <_vfprintf_r+0x116e>
   118a4: 63 88 0c 90  	beqz	s9, 0x109b4 <_vfprintf_r+0x1f2>
   118a8: 81 4c        	li	s9, 0x0
   118aa: 6f f0 6f 8e  	j	0x10990 <_vfprintf_r+0x1ce>
   118ae: 22 77        	ld	a4, 0x28(sp)
   118b0: 85 47        	li	a5, 0x1
   118b2: 63 de e7 e4  	bge	a5, a4, 0x10f0e <_vfprintf_r+0x74c>
   118b6: c5 47        	li	a5, 0x11
   118b8: 97 dc 00 00  	auipc	s9, 0xd
   118bc: 93 8c 0c e7  	addi	s9, s9, -0x190
   118c0: 63 d7 e7 50  	bge	a5, a4, 0x11dce <_vfprintf_r+0x160c>
   118c4: 66 8b        	mv	s6, s9
   118c6: c1 47        	li	a5, 0x10
   118c8: ce 8c        	mv	s9, s3
   118ca: 1d 4d        	li	s10, 0x7
   118cc: fa 89        	mv	s3, t5
   118ce: 21 a0        	j	0x118d6 <_vfprintf_r+0x1114>
   118d0: c1 3c        	addiw	s9, s9, -0x10
   118d2: 63 db 97 4f  	bge	a5, s9, 0x11dc8 <_vfprintf_r+0x1606>
   118d6: 41 0a        	addi	s4, s4, 0x10
   118d8: 05 2c        	addiw	s8, s8, 0x1
   118da: 23 b0 68 01  	sd	s6, 0x0(a7)
   118de: 23 b4 f8 00  	sd	a5, 0x8(a7)
   118e2: d2 f1        	sd	s4, 0xe0(sp)
   118e4: e2 cd        	sw	s8, 0xd8(sp)
   118e6: c1 08        	addi	a7, a7, 0x10
   118e8: e3 54 8d ff  	bge	s10, s8, 0x118d0 <_vfprintf_r+0x110e>
   118ec: 02 65        	ld	a0, 0x0(sp)
   118ee: 90 09        	addi	a2, sp, 0xd0
   118f0: ca 85        	mv	a1, s2
   118f2: ef 70 10 56  	jal	0x19652 <__sprint_r>
   118f6: e3 17 05 d0  	bnez	a0, 0x11604 <_vfprintf_r+0xe42>
   118fa: 0e 7a        	ld	s4, 0xe0(sp)
   118fc: 6e 4c        	lw	s8, 0xd8(sp)
   118fe: 93 08 01 15  	addi	a7, sp, 0x150
   11902: c1 47        	li	a5, 0x10
   11904: f1 b7        	j	0x118d0 <_vfprintf_r+0x110e>
   11906: 62 88        	mv	a6, s8
   11908: 2d b6        	j	0x11432 <_vfprintf_r+0xc70>
   1190a: 93 77 1f 00  	andi	a5, t5, 0x1
   1190e: 63 88 07 8c  	beqz	a5, 0x109de <_vfprintf_r+0x21c>
   11912: 6f f0 3f 82  	j	0x11134 <_vfprintf_r+0x972>
   11916: 03 35 09 0a  	ld	a0, 0xa0(s2)
   1191a: ef 40 60 15  	jal	0x15a70 <__retarget_lock_acquire_recursive>
   1191e: 03 17 09 01  	lh	a4, 0x10(s2)
   11922: 6f e0 ff ee  	j	0x10810 <_vfprintf_r+0x4e>
   11926: 03 ce 0a 00  	lbu	t3, 0x0(s5)
   1192a: 3e ec        	sd	a5, 0x18(sp)
   1192c: 6f e0 9f fb  	j	0x108e4 <_vfprintf_r+0x122>
   11930: 66 87        	mv	a4, s9
   11932: 81 4c        	li	s9, 0x0
   11934: 6f f0 af 83  	j	0x1096e <_vfprintf_r+0x1ac>
   11938: 6e 47        	lw	a4, 0xd8(sp)
   1193a: 85 46        	li	a3, 0x1
   1193c: 05 0a        	addi	s4, s4, 0x1
   1193e: 97 d5 00 00  	auipc	a1, 0xd
   11942: 93 85 a5 b9  	addi	a1, a1, -0x466
   11946: 05 27        	addiw	a4, a4, 0x1
   11948: 23 b4 d9 00  	sd	a3, 0x8(s3)
   1194c: 23 b0 b9 00  	sd	a1, 0x0(s3)
   11950: d2 f1        	sd	s4, 0xe0(sp)
   11952: ba cd        	sw	a4, 0xd8(sp)
   11954: 9d 46        	li	a3, 0x7
   11956: c1 09        	addi	s3, s3, 0x10
   11958: 63 cd e6 68  	blt	a3, a4, 0x11ff2 <_vfprintf_r+0x1830>
   1195c: 63 1d 06 50  	bnez	a2, 0x11e76 <_vfprintf_r+0x16b4>
   11960: a2 77        	ld	a5, 0x28(sp)
   11962: 13 77 1f 00  	andi	a4, t5, 0x1
   11966: 5d 8f        	or	a4, a4, a5
   11968: 01 27        	sext.w	a4, a4
   1196a: 19 e3        	bnez	a4, 0x11970 <_vfprintf_r+0x11ae>
   1196c: 6f f0 2f 87  	j	0x109de <_vfprintf_r+0x21c>
   11970: ee 46        	lw	a3, 0xd8(sp)
   11972: 86 67        	ld	a5, 0x40(sp)
   11974: 26 67        	ld	a4, 0x48(sp)
   11976: 85 26        	addiw	a3, a3, 0x1
   11978: 3e 9a        	add	s4, s4, a5
   1197a: 23 b0 e9 00  	sd	a4, 0x0(s3)
   1197e: d2 f1        	sd	s4, 0xe0(sp)
   11980: 23 b4 f9 00  	sd	a5, 0x8(s3)
   11984: b6 cd        	sw	a3, 0xd8(sp)
   11986: 1d 47        	li	a4, 0x7
   11988: 63 4f d7 78  	blt	a4, a3, 0x12126 <_vfprintf_r+0x1964>
   1198c: c1 09        	addi	s3, s3, 0x10
   1198e: 29 a3        	j	0x11e98 <_vfprintf_r+0x16d6>
   11990: a2 67        	ld	a5, 0x8(sp)
   11992: 56 8d        	mv	s10, s5
   11994: 1c e3        	sd	a5, 0x0(a4)
   11996: 6f f0 ef 87  	j	0x10a14 <_vfprintf_r+0x252>
   1199a: 7a 88        	mv	a6, t5
   1199c: 01 bc        	j	0x113ac <_vfprintf_r+0xbea>
   1199e: e2 66        	ld	a3, 0x18(sp)
   119a0: a3 0f 01 08  	sb	zero, 0x9f(sp)
   119a4: fa 87        	mv	a5, t5
   119a6: 03 ba 06 00  	ld	s4, 0x0(a3)
   119aa: 13 87 86 00  	addi	a4, a3, 0x8
   119ae: e3 57 03 aa  	bgez	t1, 0x1145c <_vfprintf_r+0xc9a>
   119b2: 3a ec        	sd	a4, 0x18(sp)
   119b4: a5 4d        	li	s11, 0x9
   119b6: 3e 8f        	mv	t5, a5
   119b8: e3 fb 4d 83  	bgeu	s11, s4, 0x111ee <_vfprintf_r+0xa2c>
   119bc: b7 d7 cc cc  	lui	a5, 0xccccd
   119c0: 93 87 d7 cc  	addi	a5, a5, -0x333
   119c4: 13 9c 07 02  	slli	s8, a5, 0x20
   119c8: 93 0c c1 14  	addi	s9, sp, 0x14c
   119cc: 06 7b        	ld	s6, 0x60(sp)
   119ce: 3e 9c        	add	s8, s8, a5
   119d0: 66 86        	mv	a2, s9
   119d2: 93 7f 0f 40  	andi	t6, t5, 0x400
   119d6: 81 46        	li	a3, 0x0
   119d8: 13 08 f0 0f  	li	a6, 0xff
   119dc: 09 a8        	j	0x119ee <_vfprintf_r+0x122c>
   119de: d2 87        	mv	a5, s4
   119e0: 33 3a 8a 03  	mulhu	s4, s4, s8
   119e4: 6a 86        	mv	a2, s10
   119e6: 13 5a 3a 00  	srli	s4, s4, 0x3
   119ea: 63 fc fd 02  	bgeu	s11, a5, 0x11a22 <_vfprintf_r+0x1260>
   119ee: 33 37 8a 03  	mulhu	a4, s4, s8
   119f2: 85 26        	addiw	a3, a3, 0x1
   119f4: 13 0d f6 ff  	addi	s10, a2, -0x1
   119f8: 0d 83        	srli	a4, a4, 0x3
   119fa: 93 17 27 00  	slli	a5, a4, 0x2
   119fe: ba 97        	add	a5, a5, a4
   11a00: 86 07        	slli	a5, a5, 0x1
   11a02: b3 07 fa 40  	sub	a5, s4, a5
   11a06: 9b 87 07 03  	addiw	a5, a5, 0x30
   11a0a: a3 0f f6 fe  	sb	a5, -0x1(a2)
   11a0e: e3 88 0f fc  	beqz	t6, 0x119de <_vfprintf_r+0x121c>
   11a12: 83 47 0b 00  	lbu	a5, 0x0(s6)
   11a16: e3 94 d7 fc  	bne	a5, a3, 0x119de <_vfprintf_r+0x121c>
   11a1a: e3 82 07 fd  	beq	a5, a6, 0x119de <_vfprintf_r+0x121c>
   11a1e: 63 ed 4d 57  	bltu	s11, s4, 0x11f98 <_vfprintf_r+0x17d6>
   11a22: da f0        	sd	s6, 0x60(sp)
   11a24: 36 f4        	sd	a3, 0x28(sp)
   11a26: 3b 8c ac 41  	subw	s8, s9, s10
   11a2a: 1a 88        	mv	a6, t1
   11a2c: 63 53 83 01  	bge	t1, s8, 0x11a32 <_vfprintf_r+0x1270>
   11a30: 62 88        	mv	a6, s8
   11a32: 03 47 f1 09  	lbu	a4, 0x9f(sp)
   11a36: 9b 0d 08 00  	sext.w	s11, a6
   11a3a: 6f f0 6f fd  	j	0x11210 <_vfprintf_r+0xa4e>
   11a3e: e2 67        	ld	a5, 0x18(sp)
   11a40: 93 86 f7 00  	addi	a3, a5, 0xf
   11a44: c1 9a        	andi	a3, a3, -0x10
   11a46: 93 87 06 01  	addi	a5, a3, 0x10
   11a4a: 98 62        	ld	a4, 0x0(a3)
   11a4c: 8c 66        	ld	a1, 0x8(a3)
   11a4e: 3e ec        	sd	a5, 0x18(sp)
   11a50: 6f f0 0f 8d  	j	0x10b20 <_vfprintf_r+0x35e>
   11a54: e2 67        	ld	a5, 0x18(sp)
   11a56: a1 07        	addi	a5, a5, 0x8
   11a58: 62 67        	ld	a4, 0x18(sp)
   11a5a: 36 8f        	mv	t5, a3
   11a5c: 3e ec        	sd	a5, 0x18(sp)
   11a5e: 18 63        	ld	a4, 0x0(a4)
   11a60: 3a 8a        	mv	s4, a4
   11a62: 6f f0 6f d3  	j	0x10f98 <_vfprintf_r+0x7d6>
   11a66: 42 66        	ld	a2, 0x10(sp)
   11a68: 97 d5 00 00  	auipc	a1, 0xd
   11a6c: 93 85 85 a3  	addi	a1, a1, -0x5c8
   11a70: 13 6f 2b 00  	ori	t5, s6, 0x2
   11a74: 13 77 f6 00  	andi	a4, a2, 0xf
   11a78: 2e 97        	add	a4, a4, a1
   11a7a: 83 46 07 00  	lbu	a3, 0x0(a4)
   11a7e: 3e ec        	sd	a5, 0x18(sp)
   11a80: 13 57 46 00  	srli	a4, a2, 0x4
   11a84: a3 05 d1 14  	sb	a3, 0x14b(sp)
   11a88: 01 2f        	sext.w	t5, t5
   11a8a: 13 0e 80 07  	li	t3, 0x78
   11a8e: 09 46        	li	a2, 0x2
   11a90: e3 0d 07 70  	beqz	a4, 0x129aa <_vfprintf_r+0x21e8>
   11a94: 13 0d b1 14  	addi	s10, sp, 0x14b
   11a98: 93 77 f7 00  	andi	a5, a4, 0xf
   11a9c: ae 97        	add	a5, a5, a1
   11a9e: 83 c7 07 00  	lbu	a5, 0x0(a5)
   11aa2: 11 83        	srli	a4, a4, 0x4
   11aa4: 7d 1d        	addi	s10, s10, -0x1
   11aa6: 23 00 fd 00  	sb	a5, 0x0(s10)
   11aaa: 7d f7        	bnez	a4, 0x11a98 <_vfprintf_r+0x12d6>
   11aac: 93 08 c1 14  	addi	a7, sp, 0x14c
   11ab0: 3b 8c a8 41  	subw	s8, a7, s10
   11ab4: 1a 88        	mv	a6, t1
   11ab6: 63 53 83 01  	bge	t1, s8, 0x11abc <_vfprintf_r+0x12fa>
   11aba: 62 88        	mv	a6, s8
   11abc: 9b 0d 08 00  	sext.w	s11, a6
   11ac0: 02 e8        	sd	zero, 0x10(sp)
   11ac2: 02 fc        	sd	zero, 0x38(sp)
   11ac4: 02 f8        	sd	zero, 0x30(sp)
   11ac6: 02 f0        	sd	zero, 0x20(sp)
   11ac8: 01 45        	li	a0, 0x0
   11aca: 6f f0 2f b8  	j	0x10e4c <_vfprintf_r+0x68a>
   11ace: 7d 53        	li	t1, -0x1
   11ad0: b5 b4        	j	0x1153c <_vfprintf_r+0xd7a>
   11ad2: 5a 8f        	mv	t5, s6
   11ad4: 62 83        	mv	t1, s8
   11ad6: 97 d5 00 00  	auipc	a1, 0xd
   11ada: 93 85 25 9e  	addi	a1, a1, -0x61e
   11ade: e2 66        	ld	a3, 0x18(sp)
   11ae0: 13 77 0f 02  	andi	a4, t5, 0x20
   11ae4: 93 87 86 00  	addi	a5, a3, 0x8
   11ae8: 63 04 07 12  	beqz	a4, 0x11c10 <_vfprintf_r+0x144e>
   11aec: 98 62        	ld	a4, 0x0(a3)
   11aee: 93 76 1f 00  	andi	a3, t5, 0x1
   11af2: 63 89 06 12  	beqz	a3, 0x11c24 <_vfprintf_r+0x1462>
   11af6: 63 07 07 20  	beqz	a4, 0x11d04 <_vfprintf_r+0x1542>
   11afa: 93 06 00 03  	li	a3, 0x30
   11afe: a3 00 c1 0b  	sb	t3, 0xa1(sp)
   11b02: a3 0f 01 08  	sb	zero, 0x9f(sp)
   11b06: 23 00 d1 0a  	sb	a3, 0xa0(sp)
   11b0a: 63 49 03 18  	bltz	t1, 0x11c9c <_vfprintf_r+0x14da>
   11b0e: 13 7f ff b7  	andi	t5, t5, -0x481
   11b12: 01 2f        	sext.w	t5, t5
   11b14: 13 6f 2f 00  	ori	t5, t5, 0x2
   11b18: 93 76 f7 00  	andi	a3, a4, 0xf
   11b1c: ae 96        	add	a3, a3, a1
   11b1e: 83 c6 06 00  	lbu	a3, 0x0(a3)
   11b22: 13 76 2f 00  	andi	a2, t5, 0x2
   11b26: 3e ec        	sd	a5, 0x18(sp)
   11b28: a3 05 d1 14  	sb	a3, 0x14b(sp)
   11b2c: 11 83        	srli	a4, a4, 0x4
   11b2e: 3d f3        	bnez	a4, 0x11a94 <_vfprintf_r+0x12d2>
   11b30: 13 0d b1 14  	addi	s10, sp, 0x14b
   11b34: a5 bf        	j	0x11aac <_vfprintf_r+0x12ea>
   11b36: 5a 8f        	mv	t5, s6
   11b38: 62 83        	mv	t1, s8
   11b3a: 97 d5 00 00  	auipc	a1, 0xd
   11b3e: 93 85 65 96  	addi	a1, a1, -0x69a
   11b42: 71 bf        	j	0x11ade <_vfprintf_r+0x131c>
   11b44: 02 65        	ld	a0, 0x0(sp)
   11b46: 90 09        	addi	a2, sp, 0xd0
   11b48: ca 85        	mv	a1, s2
   11b4a: 7a f0        	sd	t5, 0x20(sp)
   11b4c: ef 70 70 30  	jal	0x19652 <__sprint_r>
   11b50: e3 1a 05 aa  	bnez	a0, 0x11604 <_vfprintf_r+0xe42>
   11b54: 0e 7a        	ld	s4, 0xe0(sp)
   11b56: 02 7f        	ld	t5, 0x20(sp)
   11b58: 93 09 01 15  	addi	s3, sp, 0x150
   11b5c: 6f f0 6f df  	j	0x11152 <_vfprintf_r+0x990>
   11b60: 13 6f 0b 02  	ori	t5, s6, 0x20
   11b64: 03 ce 1a 00  	lbu	t3, 0x1(s5)
   11b68: 1b 0b 0f 00  	sext.w	s6, t5
   11b6c: 85 0a        	addi	s5, s5, 0x1
   11b6e: 6f e0 7f d7  	j	0x108e4 <_vfprintf_r+0x122>
   11b72: 13 6f 0b 20  	ori	t5, s6, 0x200
   11b76: 03 ce 1a 00  	lbu	t3, 0x1(s5)
   11b7a: 1b 0b 0f 00  	sext.w	s6, t5
   11b7e: 85 0a        	addi	s5, s5, 0x1
   11b80: 6f e0 5f d6  	j	0x108e4 <_vfprintf_r+0x122>
   11b84: 99 47        	li	a5, 0x6
   11b86: 62 88        	mv	a6, s8
   11b88: 63 e1 87 4d  	bltu	a5, s8, 0x1204a <_vfprintf_r+0x1888>
   11b8c: 9b 0d 08 00  	sext.w	s11, a6
   11b90: 66 ec        	sd	s9, 0x18(sp)
   11b92: 6e 8c        	mv	s8, s11
   11b94: 02 e8        	sd	zero, 0x10(sp)
   11b96: 01 43        	li	t1, 0x0
   11b98: 02 fc        	sd	zero, 0x38(sp)
   11b9a: 02 f8        	sd	zero, 0x30(sp)
   11b9c: 02 f0        	sd	zero, 0x20(sp)
   11b9e: 17 dd 00 00  	auipc	s10, 0xd
   11ba2: 13 0d 2d 93  	addi	s10, s10, -0x6ce
   11ba6: 6f e0 3f db  	j	0x10958 <_vfprintf_r+0x196>
   11baa: 93 07 80 07  	li	a5, 0x78
   11bae: a3 00 f1 0a  	sb	a5, 0xa1(sp)
   11bb2: 93 67 2f 00  	ori	a5, t5, 0x2
   11bb6: 13 07 00 03  	li	a4, 0x30
   11bba: 81 27        	sext.w	a5, a5
   11bbc: 23 00 e1 0a  	sb	a4, 0xa0(sp)
   11bc0: 3e f8        	sd	a5, 0x30(sp)
   11bc2: 13 07 30 06  	li	a4, 0x63
   11bc6: 63 45 67 58  	blt	a4, t1, 0x12150 <_vfprintf_r+0x198e>
   11bca: 2e 6a        	ld	s4, 0xc8(sp)
   11bcc: 13 6f 2f 10  	ori	t5, t5, 0x102
   11bd0: 0e 6c        	ld	s8, 0xc0(sp)
   11bd2: 01 2f        	sext.w	t5, t5
   11bd4: e3 41 0a 2a  	bltz	s4, 0x12676 <_vfprintf_r+0x1eb4>
   11bd8: 9b 06 fe fb  	addiw	a3, t3, -0x41
   11bdc: 02 e8        	sd	zero, 0x10(sp)
   11bde: 13 0d 81 0e  	addi	s10, sp, 0xe8
   11be2: 82 f4        	sd	zero, 0x68(sp)
   11be4: 6f e0 7f fc  	j	0x10baa <_vfprintf_r+0x3e8>
   11be8: 02 f0        	sd	zero, 0x20(sp)
   11bea: 13 0d c1 14  	addi	s10, sp, 0x14c
   11bee: 01 45        	li	a0, 0x0
   11bf0: 13 0e 80 07  	li	t3, 0x78
   11bf4: 89 4d        	li	s11, 0x2
   11bf6: 3b 87 bb 41  	subw	a4, s7, s11
   11bfa: 63 49 e0 00  	bgtz	a4, 0x11c0c <_vfprintf_r+0x144a>
   11bfe: 81 4c        	li	s9, 0x0
   11c00: 19 e1        	bnez	a0, 0x11c06 <_vfprintf_r+0x1444>
   11c02: 6f e0 ff d8  	j	0x10990 <_vfprintf_r+0x1ce>
   11c06: 09 47        	li	a4, 0x2
   11c08: 6f e0 7f d6  	j	0x1096e <_vfprintf_r+0x1ac>
   11c0c: 89 4c        	li	s9, 0x2
   11c0e: 29 b1        	j	0x11818 <_vfprintf_r+0x1056>
   11c10: 13 77 0f 01  	andi	a4, t5, 0x10
   11c14: 63 00 07 10  	beqz	a4, 0x11d14 <_vfprintf_r+0x1552>
   11c18: 62 67        	ld	a4, 0x18(sp)
   11c1a: 93 76 1f 00  	andi	a3, t5, 0x1
   11c1e: 18 63        	ld	a4, 0x0(a4)
   11c20: e3 9b 06 ec  	bnez	a3, 0x11af6 <_vfprintf_r+0x1334>
   11c24: a3 0f 01 08  	sb	zero, 0x9f(sp)
   11c28: 63 4d 03 06  	bltz	t1, 0x11ca2 <_vfprintf_r+0x14e0>
   11c2c: 13 7f ff b7  	andi	t5, t5, -0x481
   11c30: 01 2f        	sext.w	t5, t5
   11c32: e3 13 07 ee  	bnez	a4, 0x11b18 <_vfprintf_r+0x1356>
   11c36: 63 03 03 08  	beqz	t1, 0x11cbc <_vfprintf_r+0x14fa>
   11c3a: 03 c7 05 00  	lbu	a4, 0x0(a1)
   11c3e: 1a 88        	mv	a6, t1
   11c40: a3 05 e1 14  	sb	a4, 0x14b(sp)
   11c44: 63 58 60 46  	blez	t1, 0x120b4 <_vfprintf_r+0x18f2>
   11c48: 9b 0d 08 00  	sext.w	s11, a6
   11c4c: 3e ec        	sd	a5, 0x18(sp)
   11c4e: 02 e8        	sd	zero, 0x10(sp)
   11c50: 05 4c        	li	s8, 0x1
   11c52: 02 fc        	sd	zero, 0x38(sp)
   11c54: 02 f8        	sd	zero, 0x30(sp)
   11c56: 02 f0        	sd	zero, 0x20(sp)
   11c58: 13 0d b1 14  	addi	s10, sp, 0x14b
   11c5c: 6f e0 df cf  	j	0x10958 <_vfprintf_r+0x196>
   11c60: 02 65        	ld	a0, 0x0(sp)
   11c62: 90 09        	addi	a2, sp, 0xd0
   11c64: ca 85        	mv	a1, s2
   11c66: 7a f0        	sd	t5, 0x20(sp)
   11c68: ef 70 b0 1e  	jal	0x19652 <__sprint_r>
   11c6c: e3 1c 05 98  	bnez	a0, 0x11604 <_vfprintf_r+0xe42>
   11c70: 0e 7a        	ld	s4, 0xe0(sp)
   11c72: 6e 4c        	lw	s8, 0xd8(sp)
   11c74: 02 7f        	ld	t5, 0x20(sp)
   11c76: 93 08 01 15  	addi	a7, sp, 0x150
   11c7a: 6f f0 ef a3  	j	0x10eb8 <_vfprintf_r+0x6f6>
   11c7e: 02 65        	ld	a0, 0x0(sp)
   11c80: 90 09        	addi	a2, sp, 0xd0
   11c82: ca 85        	mv	a1, s2
   11c84: 7a f0        	sd	t5, 0x20(sp)
   11c86: ef 70 d0 1c  	jal	0x19652 <__sprint_r>
   11c8a: e3 1d 05 96  	bnez	a0, 0x11604 <_vfprintf_r+0xe42>
   11c8e: 0e 7a        	ld	s4, 0xe0(sp)
   11c90: 6e 4c        	lw	s8, 0xd8(sp)
   11c92: 02 7f        	ld	t5, 0x20(sp)
   11c94: 93 08 01 15  	addi	a7, sp, 0x150
   11c98: 6f f0 cf a3  	j	0x10ed4 <_vfprintf_r+0x712>
   11c9c: 13 6f 2f 00  	ori	t5, t5, 0x2
   11ca0: 01 2f        	sext.w	t5, t5
   11ca2: 93 76 f7 00  	andi	a3, a4, 0xf
   11ca6: ae 96        	add	a3, a3, a1
   11ca8: 13 75 ff bf  	andi	a0, t5, -0x401
   11cac: 13 76 2f 00  	andi	a2, t5, 0x2
   11cb0: 83 c6 06 00  	lbu	a3, 0x0(a3)
   11cb4: 3e ec        	sd	a5, 0x18(sp)
   11cb6: 1b 0f 05 00  	sext.w	t5, a0
   11cba: bd b5        	j	0x11b28 <_vfprintf_r+0x1366>
   11cbc: 3e ec        	sd	a5, 0x18(sp)
   11cbe: 01 4c        	li	s8, 0x0
   11cc0: 81 4d        	li	s11, 0x0
   11cc2: 13 0d c1 14  	addi	s10, sp, 0x14c
   11cc6: 6f f0 0f f7  	j	0x11436 <_vfprintf_r+0xc74>
   11cca: 01 4c        	li	s8, 0x0
   11ccc: 13 0d c1 14  	addi	s10, sp, 0x14c
   11cd0: 6f f0 6f f6  	j	0x11436 <_vfprintf_r+0xc74>
   11cd4: 02 65        	ld	a0, 0x0(sp)
   11cd6: 90 09        	addi	a2, sp, 0xd0
   11cd8: ca 85        	mv	a1, s2
   11cda: 1a e1        	sd	t1, 0x80(sp)
   11cdc: fa fc        	sd	t5, 0x78(sp)
   11cde: f2 f4        	sd	t3, 0x68(sp)
   11ce0: ef 70 30 17  	jal	0x19652 <__sprint_r>
   11ce4: e3 10 05 92  	bnez	a0, 0x11604 <_vfprintf_r+0xe42>
   11ce8: 03 47 f1 09  	lbu	a4, 0x9f(sp)
   11cec: 0e 7a        	ld	s4, 0xe0(sp)
   11cee: 26 7e        	ld	t3, 0x68(sp)
   11cf0: 66 7f        	ld	t5, 0x78(sp)
   11cf2: 0a 63        	ld	t1, 0x80(sp)
   11cf4: 6d cb        	beqz	a4, 0x11de6 <_vfprintf_r+0x1624>
   11cf6: 66 87        	mv	a4, s9
   11cf8: ee 45        	lw	a1, 0xd8(sp)
   11cfa: 81 4c        	li	s9, 0x0
   11cfc: 93 09 01 15  	addi	s3, sp, 0x150
   11d00: 6f e0 ff c6  	j	0x1096e <_vfprintf_r+0x1ac>
   11d04: a3 0f 01 08  	sb	zero, 0x9f(sp)
   11d08: 63 4c 03 26  	bltz	t1, 0x11f80 <_vfprintf_r+0x17be>
   11d0c: 13 7f ff b7  	andi	t5, t5, -0x481
   11d10: 01 2f        	sext.w	t5, t5
   11d12: 15 b7        	j	0x11c36 <_vfprintf_r+0x1474>
   11d14: 62 67        	ld	a4, 0x18(sp)
   11d16: 93 76 0f 04  	andi	a3, t5, 0x40
   11d1a: 18 43        	lw	a4, 0x0(a4)
   11d1c: 63 88 06 1a  	beqz	a3, 0x11ecc <_vfprintf_r+0x170a>
   11d20: 42 17        	slli	a4, a4, 0x30
   11d22: 41 93        	srli	a4, a4, 0x30
   11d24: e9 b3        	j	0x11aee <_vfprintf_r+0x132c>
   11d26: 02 65        	ld	a0, 0x0(sp)
   11d28: 90 09        	addi	a2, sp, 0xd0
   11d2a: ca 85        	mv	a1, s2
   11d2c: 7a f0        	sd	t5, 0x20(sp)
   11d2e: ef 70 50 12  	jal	0x19652 <__sprint_r>
   11d32: e3 19 05 8c  	bnez	a0, 0x11604 <_vfprintf_r+0xe42>
   11d36: 0e 7a        	ld	s4, 0xe0(sp)
   11d38: 02 7f        	ld	t5, 0x20(sp)
   11d3a: 93 09 01 15  	addi	s3, sp, 0x150
   11d3e: 6f f0 ef be  	j	0x1112c <_vfprintf_r+0x96a>
   11d42: 62 8f        	mv	t5, s8
   11d44: 66 8c        	mv	s8, s9
   11d46: da 8c        	mv	s9, s6
   11d48: 62 9a        	add	s4, s4, s8
   11d4a: 85 27        	addiw	a5, a5, 0x1
   11d4c: d2 f1        	sd	s4, 0xe0(sp)
   11d4e: be cd        	sw	a5, 0xd8(sp)
   11d50: 23 b0 99 01  	sd	s9, 0x0(s3)
   11d54: 23 b4 89 01  	sd	s8, 0x8(s3)
   11d58: 1d 47        	li	a4, 0x7
   11d5a: 63 44 f7 00  	blt	a4, a5, 0x11d62 <_vfprintf_r+0x15a0>
   11d5e: 6f e0 ff c7  	j	0x109dc <_vfprintf_r+0x21a>
   11d62: 6f f0 af 9c  	j	0x10f2c <_vfprintf_r+0x76a>
   11d66: 0e 65        	ld	a0, 0xc0(sp)
   11d68: ae 65        	ld	a1, 0xc8(sp)
   11d6a: 13 7f ff f7  	andi	t5, t5, -0x81
   11d6e: 01 2f        	sext.w	t5, t5
   11d70: 01 46        	li	a2, 0x0
   11d72: 81 46        	li	a3, 0x0
   11d74: 72 f0        	sd	t3, 0x20(sp)
   11d76: 7a e8        	sd	t5, 0x10(sp)
   11d78: ef b0 20 3f  	jal	0x1d16a <__lttf2>
   11d7c: 42 6f        	ld	t5, 0x10(sp)
   11d7e: 02 7e        	ld	t3, 0x20(sp)
   11d80: 63 47 05 2c  	bltz	a0, 0x1204e <_vfprintf_r+0x188c>
   11d84: 93 06 70 04  	li	a3, 0x47
   11d88: 03 47 f1 09  	lbu	a4, 0x9f(sp)
   11d8c: 17 cd 00 00  	auipc	s10, 0xc
   11d90: 13 0d 4d 6f  	addi	s10, s10, 0x6f4
   11d94: 63 d6 c6 01  	bge	a3, t3, 0x11da0 <_vfprintf_r+0x15de>
   11d98: 17 cd 00 00  	auipc	s10, 0xc
   11d9c: 13 0d 0d 6f  	addi	s10, s10, 0x6f0
   11da0: e3 1d 07 32  	bnez	a4, 0x128da <_vfprintf_r+0x2118>
   11da4: 0d 4c        	li	s8, 0x3
   11da6: e2 8d        	mv	s11, s8
   11da8: 6f f0 af a7  	j	0x11022 <_vfprintf_r+0x860>
   11dac: 13 76 f7 00  	andi	a2, a4, 0xf
   11db0: 97 c5 00 00  	auipc	a1, 0xc
   11db4: 93 85 05 6f  	addi	a1, a1, 0x6f0
   11db8: 2e 96        	add	a2, a2, a1
   11dba: 83 46 06 00  	lbu	a3, 0x0(a2)
   11dbe: 2a 8f        	mv	t5, a0
   11dc0: 09 46        	li	a2, 0x2
   11dc2: 13 0e 80 07  	li	t3, 0x78
   11dc6: 85 b3        	j	0x11b26 <_vfprintf_r+0x1364>
   11dc8: 4e 8f        	mv	t5, s3
   11dca: e6 89        	mv	s3, s9
   11dcc: da 8c        	mv	s9, s6
   11dce: 4e 9a        	add	s4, s4, s3
   11dd0: 05 2c        	addiw	s8, s8, 0x1
   11dd2: d2 f1        	sd	s4, 0xe0(sp)
   11dd4: e2 cd        	sw	s8, 0xd8(sp)
   11dd6: 23 b0 98 01  	sd	s9, 0x0(a7)
   11dda: 23 b4 38 01  	sd	s3, 0x8(a7)
   11dde: 9d 47        	li	a5, 0x7
   11de0: 63 d6 87 93  	bge	a5, s8, 0x10f0c <_vfprintf_r+0x74a>
   11de4: 11 bc        	j	0x117f8 <_vfprintf_r+0x1036>
   11de6: 63 88 0c 2a  	beqz	s9, 0x12096 <_vfprintf_r+0x18d4>
   11dea: ee 45        	lw	a1, 0xd8(sp)
   11dec: 81 4c        	li	s9, 0x0
   11dee: 93 09 01 15  	addi	s3, sp, 0x150
   11df2: 6f e0 ff b9  	j	0x10990 <_vfprintf_r+0x1ce>
   11df6: 6a 85        	mv	a0, s10
   11df8: 72 e8        	sd	t3, 0x10(sp)
   11dfa: 5a ec        	sd	s6, 0x18(sp)
   11dfc: ef 50 80 5f  	jal	0x173f4 <strlen>
   11e00: 1b 0c 05 00  	sext.w	s8, a0
   11e04: 42 6e        	ld	t3, 0x10(sp)
   11e06: 62 6f        	ld	t5, 0x18(sp)
   11e08: 62 87        	mv	a4, s8
   11e0a: 63 43 0c 2a  	bltz	s8, 0x120b0 <_vfprintf_r+0x18ee>
   11e0e: 83 46 f1 09  	lbu	a3, 0x9f(sp)
   11e12: ba 8d        	mv	s11, a4
   11e14: 63 86 06 a0  	beqz	a3, 0x11020 <_vfprintf_r+0x85e>
   11e18: 9b 0d 17 00  	addiw	s11, a4, 0x1
   11e1c: 6f f0 4f a0  	j	0x11020 <_vfprintf_r+0x85e>
   11e20: c1 48        	li	a7, 0x10
   11e22: 6e 46        	lw	a2, 0xd8(sp)
   11e24: 97 dc 00 00  	auipc	s9, 0xd
   11e28: 93 8c 4c 90  	addi	s9, s9, -0x6fc
   11e2c: 63 d0 88 13  	bge	a7, s8, 0x11f4c <_vfprintf_r+0x178a>
   11e30: 66 8b        	mv	s6, s9
   11e32: 46 8e        	mv	t3, a7
   11e34: e2 8c        	mv	s9, s8
   11e36: 1d 43        	li	t1, 0x7
   11e38: 7a 8c        	mv	s8, t5
   11e3a: 21 a0        	j	0x11e42 <_vfprintf_r+0x1680>
   11e3c: c1 3c        	addiw	s9, s9, -0x10
   11e3e: 63 54 9e 11  	bge	t3, s9, 0x11f46 <_vfprintf_r+0x1784>
   11e42: 41 0a        	addi	s4, s4, 0x10
   11e44: 05 26        	addiw	a2, a2, 0x1
   11e46: 23 b0 69 01  	sd	s6, 0x0(s3)
   11e4a: 23 b4 19 01  	sd	a7, 0x8(s3)
   11e4e: d2 f1        	sd	s4, 0xe0(sp)
   11e50: b2 cd        	sw	a2, 0xd8(sp)
   11e52: c1 09        	addi	s3, s3, 0x10
   11e54: e3 54 c3 fe  	bge	t1, a2, 0x11e3c <_vfprintf_r+0x167a>
   11e58: 02 65        	ld	a0, 0x0(sp)
   11e5a: 90 09        	addi	a2, sp, 0xd0
   11e5c: ca 85        	mv	a1, s2
   11e5e: ef 70 40 7f  	jal	0x19652 <__sprint_r>
   11e62: 63 11 05 fa  	bnez	a0, 0x11604 <_vfprintf_r+0xe42>
   11e66: 41 4e        	li	t3, 0x10
   11e68: 0e 7a        	ld	s4, 0xe0(sp)
   11e6a: 6e 46        	lw	a2, 0xd8(sp)
   11e6c: 93 09 01 15  	addi	s3, sp, 0x150
   11e70: 1d 43        	li	t1, 0x7
   11e72: f2 88        	mv	a7, t3
   11e74: e1 b7        	j	0x11e3c <_vfprintf_r+0x167a>
   11e76: ee 46        	lw	a3, 0xd8(sp)
   11e78: 86 67        	ld	a5, 0x40(sp)
   11e7a: 26 67        	ld	a4, 0x48(sp)
   11e7c: 85 26        	addiw	a3, a3, 0x1
   11e7e: 3e 9a        	add	s4, s4, a5
   11e80: 23 b0 e9 00  	sd	a4, 0x0(s3)
   11e84: 23 b4 f9 00  	sd	a5, 0x8(s3)
   11e88: d2 f1        	sd	s4, 0xe0(sp)
   11e8a: b6 cd        	sw	a3, 0xd8(sp)
   11e8c: 1d 47        	li	a4, 0x7
   11e8e: c1 09        	addi	s3, s3, 0x10
   11e90: 63 4b d7 28  	blt	a4, a3, 0x12126 <_vfprintf_r+0x1964>
   11e94: 63 43 06 74  	bltz	a2, 0x125da <_vfprintf_r+0x1e18>
   11e98: a2 77        	ld	a5, 0x28(sp)
   11e9a: 85 26        	addiw	a3, a3, 0x1
   11e9c: b6 cd        	sw	a3, 0xd8(sp)
   11e9e: 3e 9a        	add	s4, s4, a5
   11ea0: 23 b4 f9 00  	sd	a5, 0x8(s3)
   11ea4: d2 f1        	sd	s4, 0xe0(sp)
   11ea6: 23 b0 a9 01  	sd	s10, 0x0(s3)
   11eaa: 9d 47        	li	a5, 0x7
   11eac: 63 c4 d7 00  	blt	a5, a3, 0x11eb4 <_vfprintf_r+0x16f2>
   11eb0: 6f e0 df b2  	j	0x109dc <_vfprintf_r+0x21a>
   11eb4: 6f f0 8f 87  	j	0x10f2c <_vfprintf_r+0x76a>
   11eb8: 93 76 0b 20  	andi	a3, s6, 0x200
   11ebc: 63 8c 06 20  	beqz	a3, 0x120d4 <_vfprintf_r+0x1912>
   11ec0: 13 77 f7 0f  	andi	a4, a4, 0xff
   11ec4: 3e ec        	sd	a5, 0x18(sp)
   11ec6: 5a 88        	mv	a6, s6
   11ec8: 6f f0 af ce  	j	0x113b2 <_vfprintf_r+0xbf0>
   11ecc: 93 76 0f 20  	andi	a3, t5, 0x200
   11ed0: 63 8f 06 1e  	beqz	a3, 0x120ce <_vfprintf_r+0x190c>
   11ed4: 13 77 f7 0f  	andi	a4, a4, 0xff
   11ed8: 19 b9        	j	0x11aee <_vfprintf_r+0x132c>
   11eda: 13 77 0b 20  	andi	a4, s6, 0x200
   11ede: 63 04 07 1e  	beqz	a4, 0x120c6 <_vfprintf_r+0x1904>
   11ee2: 1b 1a 8a 01  	slliw	s4, s4, 0x18
   11ee6: 1b 5a 8a 41  	sraiw	s4, s4, 0x18
   11eea: 3e ec        	sd	a5, 0x18(sp)
   11eec: 52 87        	mv	a4, s4
   11eee: 6f f0 af 8a  	j	0x10f98 <_vfprintf_r+0x7d6>
   11ef2: 93 77 0b 20  	andi	a5, s6, 0x200
   11ef6: a3 0f 01 08  	sb	zero, 0x9f(sp)
   11efa: 63 8f 07 1a  	beqz	a5, 0x120b8 <_vfprintf_r+0x18f6>
   11efe: 13 7a fa 0f  	andi	s4, s4, 0xff
   11f02: 63 5b 0c b6  	bgez	s8, 0x11278 <_vfprintf_r+0xab6>
   11f06: 6f f0 2f d6  	j	0x11468 <_vfprintf_r+0xca6>
   11f0a: ae 67        	ld	a5, 0xc8(sp)
   11f0c: 13 7f ff f7  	andi	t5, t5, -0x81
   11f10: 01 2f        	sext.w	t5, t5
   11f12: 13 d7 f7 03  	srli	a4, a5, 0x3f
   11f16: 3a f0        	sd	a4, 0x20(sp)
   11f18: 63 df 07 1c  	bgez	a5, 0x120f6 <_vfprintf_r+0x1934>
   11f1c: 93 07 d0 02  	li	a5, 0x2d
   11f20: a3 0f f1 08  	sb	a5, 0x9f(sp)
   11f24: 02 e8        	sd	zero, 0x10(sp)
   11f26: 93 07 70 04  	li	a5, 0x47
   11f2a: 02 fc        	sd	zero, 0x38(sp)
   11f2c: 02 f8        	sd	zero, 0x30(sp)
   11f2e: 02 f0        	sd	zero, 0x20(sp)
   11f30: 0d 4c        	li	s8, 0x3
   11f32: 01 43        	li	t1, 0x0
   11f34: e3 dc c7 05  	bge	a5, t3, 0x1278c <_vfprintf_r+0x1fca>
   11f38: 17 cd 00 00  	auipc	s10, 0xc
   11f3c: 13 0d 0d 56  	addi	s10, s10, 0x560
   11f40: 91 4d        	li	s11, 0x4
   11f42: 6f e0 7f a1  	j	0x10958 <_vfprintf_r+0x196>
   11f46: 62 8f        	mv	t5, s8
   11f48: 66 8c        	mv	s8, s9
   11f4a: da 8c        	mv	s9, s6
   11f4c: 62 9a        	add	s4, s4, s8
   11f4e: 05 26        	addiw	a2, a2, 0x1
   11f50: 23 b0 99 01  	sd	s9, 0x0(s3)
   11f54: 23 b4 89 01  	sd	s8, 0x8(s3)
   11f58: d2 f1        	sd	s4, 0xe0(sp)
   11f5a: b2 cd        	sw	a2, 0xd8(sp)
   11f5c: 1d 47        	li	a4, 0x7
   11f5e: c1 09        	addi	s3, s3, 0x10
   11f60: 63 52 c7 fa  	bge	a4, a2, 0x11704 <_vfprintf_r+0xf42>
   11f64: 02 65        	ld	a0, 0x0(sp)
   11f66: 90 09        	addi	a2, sp, 0xd0
   11f68: ca 85        	mv	a1, s2
   11f6a: fa f4        	sd	t5, 0x68(sp)
   11f6c: ef 70 60 6e  	jal	0x19652 <__sprint_r>
   11f70: 63 1a 05 e8  	bnez	a0, 0x11604 <_vfprintf_r+0xe42>
   11f74: 0e 7a        	ld	s4, 0xe0(sp)
   11f76: 26 7f        	ld	t5, 0x68(sp)
   11f78: 93 09 01 15  	addi	s3, sp, 0x150
   11f7c: 6f f0 8f f8  	j	0x11704 <_vfprintf_r+0xf42>
   11f80: 03 c7 05 00  	lbu	a4, 0x0(a1)
   11f84: 13 7f ff bf  	andi	t5, t5, -0x401
   11f88: 01 2f        	sext.w	t5, t5
   11f8a: a3 05 e1 14  	sb	a4, 0x14b(sp)
   11f8e: 3e ec        	sd	a5, 0x18(sp)
   11f90: 01 46        	li	a2, 0x0
   11f92: 13 0d b1 14  	addi	s10, sp, 0x14b
   11f96: 19 be        	j	0x11aac <_vfprintf_r+0x12ea>
   11f98: 33 3a 8a 03  	mulhu	s4, s4, s8
   11f9c: 46 76        	ld	a2, 0x70(sp)
   11f9e: e6 65        	ld	a1, 0x58(sp)
   11fa0: 7e fc        	sd	t6, 0x38(sp)
   11fa2: b3 08 cd 40  	sub	a7, s10, a2
   11fa6: 46 85        	mv	a0, a7
   11fa8: 1a f8        	sd	t1, 0x30(sp)
   11faa: 7a f4        	sd	t5, 0x28(sp)
   11fac: 72 f0        	sd	t3, 0x20(sp)
   11fae: 46 e8        	sd	a7, 0x10(sp)
   11fb0: 13 5a 3a 00  	srli	s4, s4, 0x3
   11fb4: ef 50 a0 4d  	jal	0x1748e <strncpy>
   11fb8: 33 37 8a 03  	mulhu	a4, s4, s8
   11fbc: 83 47 1b 00  	lbu	a5, 0x1(s6)
   11fc0: c2 68        	ld	a7, 0x10(sp)
   11fc2: 02 7e        	ld	t3, 0x20(sp)
   11fc4: b3 37 f0 00  	snez	a5, a5
   11fc8: 3e 9b        	add	s6, s6, a5
   11fca: 22 7f        	ld	t5, 0x28(sp)
   11fcc: 42 73        	ld	t1, 0x30(sp)
   11fce: e2 7f        	ld	t6, 0x38(sp)
   11fd0: 13 8d f8 ff  	addi	s10, a7, -0x1
   11fd4: 0d 83        	srli	a4, a4, 0x3
   11fd6: 93 17 27 00  	slli	a5, a4, 0x2
   11fda: ba 97        	add	a5, a5, a4
   11fdc: 86 07        	slli	a5, a5, 0x1
   11fde: b3 07 fa 40  	sub	a5, s4, a5
   11fe2: 9b 87 07 03  	addiw	a5, a5, 0x30
   11fe6: 85 46        	li	a3, 0x1
   11fe8: a3 8f f8 fe  	sb	a5, -0x1(a7)
   11fec: 13 08 f0 0f  	li	a6, 0xff
   11ff0: 0d b4        	j	0x11a12 <_vfprintf_r+0x1250>
   11ff2: 02 65        	ld	a0, 0x0(sp)
   11ff4: 90 09        	addi	a2, sp, 0xd0
   11ff6: ca 85        	mv	a1, s2
   11ff8: 7a f0        	sd	t5, 0x20(sp)
   11ffa: ef 70 80 65  	jal	0x19652 <__sprint_r>
   11ffe: 63 13 05 e0  	bnez	a0, 0x11604 <_vfprintf_r+0xe42>
   12002: 2a 56        	lw	a2, 0xa8(sp)
   12004: 0e 7a        	ld	s4, 0xe0(sp)
   12006: 02 7f        	ld	t5, 0x20(sp)
   12008: 93 09 01 15  	addi	s3, sp, 0x150
   1200c: 81 ba        	j	0x1195c <_vfprintf_r+0x119a>
   1200e: 03 47 f1 09  	lbu	a4, 0x9f(sp)
   12012: 81 4d        	li	s11, 0x0
   12014: 01 4c        	li	s8, 0x0
   12016: 13 0d c1 14  	addi	s10, sp, 0x14c
   1201a: 6f f0 6f 9f  	j	0x11210 <_vfprintf_r+0xa4e>
   1201e: 13 07 00 03  	li	a4, 0x30
   12022: 2a 8f        	mv	t5, a0
   12024: e2 8d        	mv	s11, s8
   12026: 3e ec        	sd	a5, 0x18(sp)
   12028: a3 05 e1 14  	sb	a4, 0x14b(sp)
   1202c: 02 f8        	sd	zero, 0x30(sp)
   1202e: 02 fc        	sd	zero, 0x38(sp)
   12030: 05 4c        	li	s8, 0x1
   12032: 02 f0        	sd	zero, 0x20(sp)
   12034: 13 0d b1 14  	addi	s10, sp, 0x14b
   12038: 13 0e 80 07  	li	t3, 0x78
   1203c: 01 45        	li	a0, 0x0
   1203e: 6f e0 3f e1  	j	0x10e50 <_vfprintf_r+0x68e>
   12042: 9b 8d 16 00  	addiw	s11, a3, 0x1
   12046: 6f e0 bf fd  	j	0x11020 <_vfprintf_r+0x85e>
   1204a: 3e 88        	mv	a6, a5
   1204c: 81 b6        	j	0x11b8c <_vfprintf_r+0x13ca>
   1204e: 93 07 d0 02  	li	a5, 0x2d
   12052: a3 0f f1 08  	sb	a5, 0x9f(sp)
   12056: 02 e8        	sd	zero, 0x10(sp)
   12058: 93 07 70 04  	li	a5, 0x47
   1205c: 02 fc        	sd	zero, 0x38(sp)
   1205e: 02 f8        	sd	zero, 0x30(sp)
   12060: 02 f0        	sd	zero, 0x20(sp)
   12062: 0d 4c        	li	s8, 0x3
   12064: 01 43        	li	t1, 0x0
   12066: 63 dc c7 71  	bge	a5, t3, 0x1277e <_vfprintf_r+0x1fbc>
   1206a: 17 cd 00 00  	auipc	s10, 0xc
   1206e: 13 0d ed 41  	addi	s10, s10, 0x41e
   12072: 91 4d        	li	s11, 0x4
   12074: 6f e0 5f 8e  	j	0x10958 <_vfprintf_r+0x196>
   12078: 3e 87        	mv	a4, a5
   1207a: ea 97        	add	a5, a5, s10
   1207c: b3 87 97 41  	sub	a5, a5, s9
   12080: bb 06 87 41  	subw	a3, a4, s8
   12084: 1b 87 07 00  	sext.w	a4, a5
   12088: 63 d3 e6 00  	bge	a3, a4, 0x1208e <_vfprintf_r+0x18cc>
   1208c: b6 87        	mv	a5, a3
   1208e: 1b 8c 07 00  	sext.w	s8, a5
   12092: 6f f0 8f ee  	j	0x1177a <_vfprintf_r+0xfb8>
   12096: 93 09 01 15  	addi	s3, sp, 0x150
   1209a: 6f e0 bf 91  	j	0x109b4 <_vfprintf_r+0x1f2>
   1209e: a2 67        	ld	a5, 0x8(sp)
   120a0: 56 8d        	mv	s10, s5
   120a2: 23 10 f7 00  	sh	a5, 0x0(a4)
   120a6: 6f e0 ff 96  	j	0x10a14 <_vfprintf_r+0x252>
   120aa: 81 46        	li	a3, 0x0
   120ac: 6f e0 df f6  	j	0x11018 <_vfprintf_r+0x856>
   120b0: 01 47        	li	a4, 0x0
   120b2: b1 bb        	j	0x11e0e <_vfprintf_r+0x164c>
   120b4: 05 48        	li	a6, 0x1
   120b6: 49 be        	j	0x11c48 <_vfprintf_r+0x1486>
   120b8: 02 1a        	slli	s4, s4, 0x20
   120ba: 13 5a 0a 02  	srli	s4, s4, 0x20
   120be: 63 5d 0c 9a  	bgez	s8, 0x11278 <_vfprintf_r+0xab6>
   120c2: 6f f0 6f ba  	j	0x11468 <_vfprintf_r+0xca6>
   120c6: 3e ec        	sd	a5, 0x18(sp)
   120c8: 52 87        	mv	a4, s4
   120ca: 6f e0 ff ec  	j	0x10f98 <_vfprintf_r+0x7d6>
   120ce: 02 17        	slli	a4, a4, 0x20
   120d0: 01 93        	srli	a4, a4, 0x20
   120d2: 31 bc        	j	0x11aee <_vfprintf_r+0x132c>
   120d4: 02 17        	slli	a4, a4, 0x20
   120d6: 01 93        	srli	a4, a4, 0x20
   120d8: 3e ec        	sd	a5, 0x18(sp)
   120da: 5a 88        	mv	a6, s6
   120dc: 6f f0 6f ad  	j	0x113b2 <_vfprintf_r+0xbf0>
   120e0: 02 65        	ld	a0, 0x0(sp)
   120e2: 90 09        	addi	a2, sp, 0xd0
   120e4: ca 85        	mv	a1, s2
   120e6: ef 70 c0 56  	jal	0x19652 <__sprint_r>
   120ea: 19 c1        	beqz	a0, 0x120f0 <_vfprintf_r+0x192e>
   120ec: 6f e0 bf 93  	j	0x10a26 <_vfprintf_r+0x264>
   120f0: 82 cd        	sw	zero, 0xd8(sp)
   120f2: 6f e0 5f 93  	j	0x10a26 <_vfprintf_r+0x264>
   120f6: 93 06 70 04  	li	a3, 0x47
   120fa: 03 47 f1 09  	lbu	a4, 0x9f(sp)
   120fe: 17 cd 00 00  	auipc	s10, 0xc
   12102: 13 0d 2d 39  	addi	s10, s10, 0x392
   12106: 63 d6 c6 01  	bge	a3, t3, 0x12112 <_vfprintf_r+0x1950>
   1210a: 17 cd 00 00  	auipc	s10, 0xc
   1210e: 13 0d ed 38  	addi	s10, s10, 0x38e
   12112: e3 11 07 08  	bnez	a4, 0x12994 <_vfprintf_r+0x21d2>
   12116: 0d 4c        	li	s8, 0x3
   12118: e2 8d        	mv	s11, s8
   1211a: 01 43        	li	t1, 0x0
   1211c: 02 fc        	sd	zero, 0x38(sp)
   1211e: 02 f8        	sd	zero, 0x30(sp)
   12120: 02 e8        	sd	zero, 0x10(sp)
   12122: 6f e0 7f 83  	j	0x10958 <_vfprintf_r+0x196>
   12126: 02 65        	ld	a0, 0x0(sp)
   12128: 90 09        	addi	a2, sp, 0xd0
   1212a: ca 85        	mv	a1, s2
   1212c: 7a f0        	sd	t5, 0x20(sp)
   1212e: ef 70 40 52  	jal	0x19652 <__sprint_r>
   12132: 63 19 05 cc  	bnez	a0, 0x11604 <_vfprintf_r+0xe42>
   12136: 2a 56        	lw	a2, 0xa8(sp)
   12138: 0e 7a        	ld	s4, 0xe0(sp)
   1213a: ee 46        	lw	a3, 0xd8(sp)
   1213c: 02 7f        	ld	t5, 0x20(sp)
   1213e: 93 09 01 15  	addi	s3, sp, 0x150
   12142: 89 bb        	j	0x11e94 <_vfprintf_r+0x16d2>
   12144: 03 35 09 0a  	ld	a0, 0xa0(s2)
   12148: ef 30 50 13  	jal	0x15a7c <__retarget_lock_release_recursive>
   1214c: 6f e0 9f 96  	j	0x10ab4 <_vfprintf_r+0x2f2>
   12150: 02 65        	ld	a0, 0x0(sp)
   12152: 9b 05 13 00  	addiw	a1, t1, 0x1
   12156: 7a fc        	sd	t5, 0x38(sp)
   12158: 72 f4        	sd	t3, 0x28(sp)
   1215a: 1a f0        	sd	t1, 0x20(sp)
   1215c: ef 30 d0 2b  	jal	0x15c18 <_malloc_r>
   12160: 2a e8        	sd	a0, 0x10(sp)
   12162: 02 73        	ld	t1, 0x20(sp)
   12164: 22 7e        	ld	t3, 0x28(sp)
   12166: 62 7f        	ld	t5, 0x38(sp)
   12168: e3 0e 05 00  	beqz	a0, 0x12984 <_vfprintf_r+0x21c2>
   1216c: 2e 6a        	ld	s4, 0xc8(sp)
   1216e: 13 6f 2f 10  	ori	t5, t5, 0x102
   12172: 0e 6c        	ld	s8, 0xc0(sp)
   12174: 01 2f        	sext.w	t5, t5
   12176: 63 4e 0a 76  	bltz	s4, 0x128f2 <_vfprintf_r+0x2130>
   1217a: 42 6d        	ld	s10, 0x10(sp)
   1217c: 9b 06 fe fb  	addiw	a3, t3, -0x41
   12180: 82 f4        	sd	zero, 0x68(sp)
   12182: 6f e0 9f a2  	j	0x10baa <_vfprintf_r+0x3e8>
   12186: 82 77        	ld	a5, 0x20(sp)
   12188: 93 06 d0 02  	li	a3, 0x2d
   1218c: 05 47        	li	a4, 0x1
   1218e: a3 08 d1 0a  	sb	a3, 0xb1(sp)
   12192: 1d 9f        	subw	a4, a4, a5
   12194: a5 46        	li	a3, 0x9
   12196: 63 d4 e6 00  	bge	a3, a4, 0x1219e <_vfprintf_r+0x19dc>
   1219a: 6f e0 bf be  	j	0x10d84 <_vfprintf_r+0x5c2>
   1219e: 93 06 21 0b  	addi	a3, sp, 0xb2
   121a2: 9c 0b        	addi	a5, sp, 0x1d0
   121a4: 33 86 f6 40  	sub	a2, a3, a5
   121a8: 1b 07 07 03  	addiw	a4, a4, 0x30
   121ac: 9b 07 16 12  	addiw	a5, a2, 0x121
   121b0: 23 80 e6 00  	sb	a4, 0x0(a3)
   121b4: be e8        	sd	a5, 0x50(sp)
   121b6: 6f e0 bf c4  	j	0x10e00 <_vfprintf_r+0x63e>
   121ba: 03 45 f1 09  	lbu	a0, 0x9f(sp)
   121be: 19 c1        	beqz	a0, 0x121c4 <_vfprintf_r+0x1a02>
   121c0: 6f e0 9f c8  	j	0x10e48 <_vfprintf_r+0x686>
   121c4: 01 43        	li	t1, 0x0
   121c6: 6f e0 7f c8  	j	0x10e4c <_vfprintf_r+0x68a>
   121ca: a2 77        	ld	a5, 0x28(sp)
   121cc: d6 f4        	sd	s5, 0x68(sp)
   121ce: de fc        	sd	s7, 0x78(sp)
   121d0: b3 05 fd 00  	add	a1, s10, a5
   121d4: ce 87        	mv	a5, s3
   121d6: c2 79        	ld	s3, 0x30(sp)
   121d8: 7a e1        	sd	t5, 0x80(sp)
   121da: 6e f8        	sd	s11, 0x30(sp)
   121dc: e2 7d        	ld	s11, 0x38(sp)
   121de: 6a fc        	sd	s10, 0x38(sp)
   121e0: e6 8b        	mv	s7, s9
   121e2: 02 6b        	ld	s6, 0x0(sp)
   121e4: c6 7c        	ld	s9, 0x70(sp)
   121e6: 06 7d        	ld	s10, 0x60(sp)
   121e8: 9d 46        	li	a3, 0x7
   121ea: 41 47        	li	a4, 0x10
   121ec: 17 cc 00 00  	auipc	s8, 0xc
   121f0: 13 0c cc 53  	addi	s8, s8, 0x53c
   121f4: 52 86        	mv	a2, s4
   121f6: ae 8a        	mv	s5, a1
   121f8: 63 59 30 07  	blez	s3, 0x1226a <_vfprintf_r+0x1aa8>
   121fc: 63 53 b0 11  	blez	s11, 0x12302 <_vfprintf_r+0x1b40>
   12200: fd 3d        	addiw	s11, s11, -0x1
   12202: ee 45        	lw	a1, 0xd8(sp)
   12204: 66 65        	ld	a0, 0x58(sp)
   12206: 66 96        	add	a2, a2, s9
   12208: 85 25        	addiw	a1, a1, 0x1
   1220a: 88 e3        	sd	a0, 0x0(a5)
   1220c: 23 b4 97 01  	sd	s9, 0x8(a5)
   12210: b2 f1        	sd	a2, 0xe0(sp)
   12212: ae cd        	sw	a1, 0xd8(sp)
   12214: c1 07        	addi	a5, a5, 0x10
   12216: 63 c9 b6 0e  	blt	a3, a1, 0x12308 <_vfprintf_r+0x1b46>
   1221a: 83 45 0d 00  	lbu	a1, 0x0(s10)
   1221e: b3 88 7a 41  	sub	a7, s5, s7
   12222: 1b 85 08 00  	sext.w	a0, a7
   12226: 2e 88        	mv	a6, a1
   12228: 63 d3 a5 00  	bge	a1, a0, 0x1222e <_vfprintf_r+0x1a6c>
   1222c: ae 88        	mv	a7, a1
   1222e: 1b 8a 08 00  	sext.w	s4, a7
   12232: 63 51 40 03  	blez	s4, 0x12254 <_vfprintf_r+0x1a92>
   12236: ee 45        	lw	a1, 0xd8(sp)
   12238: 52 96        	add	a2, a2, s4
   1223a: b2 f1        	sd	a2, 0xe0(sp)
   1223c: 85 25        	addiw	a1, a1, 0x1
   1223e: 23 b0 77 01  	sd	s7, 0x0(a5)
   12242: 23 b4 47 01  	sd	s4, 0x8(a5)
   12246: ae cd        	sw	a1, 0xd8(sp)
   12248: 63 cc b6 0c  	blt	a3, a1, 0x12320 <_vfprintf_r+0x1b5e>
   1224c: 83 45 0d 00  	lbu	a1, 0x0(s10)
   12250: c1 07        	addi	a5, a5, 0x10
   12252: 2e 88        	mv	a6, a1
   12254: 52 85        	mv	a0, s4
   12256: 63 53 0a 00  	bgez	s4, 0x1225c <_vfprintf_r+0x1a9a>
   1225a: 01 45        	li	a0, 0x0
   1225c: 3b 0a a8 40  	subw	s4, a6, a0
   12260: 63 48 40 03  	bgtz	s4, 0x12290 <_vfprintf_r+0x1ace>
   12264: ae 9b        	add	s7, s7, a1
   12266: e3 4b 30 f9  	bgtz	s3, 0x121fc <_vfprintf_r+0x1a3a>
   1226a: e3 4b b0 f9  	bgtz	s11, 0x12200 <_vfprintf_r+0x1a3e>
   1226e: ea f0        	sd	s10, 0x60(sp)
   12270: be 89        	mv	s3, a5
   12272: 62 7d        	ld	s10, 0x38(sp)
   12274: a2 77        	ld	a5, 0x28(sp)
   12276: de 8c        	mv	s9, s7
   12278: a6 7a        	ld	s5, 0x68(sp)
   1227a: 33 07 fd 00  	add	a4, s10, a5
   1227e: e6 7b        	ld	s7, 0x78(sp)
   12280: 0a 6f        	ld	t5, 0x80(sp)
   12282: c2 7d        	ld	s11, 0x30(sp)
   12284: 32 8a        	mv	s4, a2
   12286: 63 76 97 c9  	bgeu	a4, s9, 0x11712 <_vfprintf_r+0xf50>
   1228a: ba 8c        	mv	s9, a4
   1228c: 6f f0 6f c8  	j	0x11712 <_vfprintf_r+0xf50>
   12290: ee 45        	lw	a1, 0xd8(sp)
   12292: 97 c8 00 00  	auipc	a7, 0xc
   12296: 93 88 68 49  	addi	a7, a7, 0x496
   1229a: 63 55 47 05  	bge	a4, s4, 0x122e4 <_vfprintf_r+0x1b22>
   1229e: 4e f0        	sd	s3, 0x20(sp)
   122a0: d2 89        	mv	s3, s4
   122a2: 46 8a        	mv	s4, a7
   122a4: 21 a0        	j	0x122ac <_vfprintf_r+0x1aea>
   122a6: c1 39        	addiw	s3, s3, -0x10
   122a8: 63 5b 37 03  	bge	a4, s3, 0x122de <_vfprintf_r+0x1b1c>
   122ac: 41 06        	addi	a2, a2, 0x10
   122ae: 85 25        	addiw	a1, a1, 0x1
   122b0: 23 b0 87 01  	sd	s8, 0x0(a5)
   122b4: 98 e7        	sd	a4, 0x8(a5)
   122b6: b2 f1        	sd	a2, 0xe0(sp)
   122b8: ae cd        	sw	a1, 0xd8(sp)
   122ba: c1 07        	addi	a5, a5, 0x10
   122bc: e3 d5 b6 fe  	bge	a3, a1, 0x122a6 <_vfprintf_r+0x1ae4>
   122c0: 90 09        	addi	a2, sp, 0xd0
   122c2: ca 85        	mv	a1, s2
   122c4: 5a 85        	mv	a0, s6
   122c6: ef 70 c0 38  	jal	0x19652 <__sprint_r>
   122ca: 63 1d 05 b2  	bnez	a0, 0x11604 <_vfprintf_r+0xe42>
   122ce: 41 47        	li	a4, 0x10
   122d0: c1 39        	addiw	s3, s3, -0x10
   122d2: 0e 76        	ld	a2, 0xe0(sp)
   122d4: ee 45        	lw	a1, 0xd8(sp)
   122d6: 9c 0a        	addi	a5, sp, 0x150
   122d8: 9d 46        	li	a3, 0x7
   122da: e3 49 37 fd  	blt	a4, s3, 0x122ac <_vfprintf_r+0x1aea>
   122de: d2 88        	mv	a7, s4
   122e0: 4e 8a        	mv	s4, s3
   122e2: 82 79        	ld	s3, 0x20(sp)
   122e4: 52 96        	add	a2, a2, s4
   122e6: 85 25        	addiw	a1, a1, 0x1
   122e8: b2 f1        	sd	a2, 0xe0(sp)
   122ea: ae cd        	sw	a1, 0xd8(sp)
   122ec: 23 b0 17 01  	sd	a7, 0x0(a5)
   122f0: 23 b4 47 01  	sd	s4, 0x8(a5)
   122f4: 63 c2 b6 10  	blt	a3, a1, 0x123f8 <_vfprintf_r+0x1c36>
   122f8: 83 45 0d 00  	lbu	a1, 0x0(s10)
   122fc: c1 07        	addi	a5, a5, 0x10
   122fe: ae 9b        	add	s7, s7, a1
   12300: 9d b7        	j	0x12266 <_vfprintf_r+0x1aa4>
   12302: 7d 1d        	addi	s10, s10, -0x1
   12304: fd 39        	addiw	s3, s3, -0x1
   12306: f5 bd        	j	0x12202 <_vfprintf_r+0x1a40>
   12308: 90 09        	addi	a2, sp, 0xd0
   1230a: ca 85        	mv	a1, s2
   1230c: 5a 85        	mv	a0, s6
   1230e: ef 70 40 34  	jal	0x19652 <__sprint_r>
   12312: 63 19 05 ae  	bnez	a0, 0x11604 <_vfprintf_r+0xe42>
   12316: 0e 76        	ld	a2, 0xe0(sp)
   12318: 9c 0a        	addi	a5, sp, 0x150
   1231a: 41 47        	li	a4, 0x10
   1231c: 9d 46        	li	a3, 0x7
   1231e: f5 bd        	j	0x1221a <_vfprintf_r+0x1a58>
   12320: 90 09        	addi	a2, sp, 0xd0
   12322: ca 85        	mv	a1, s2
   12324: 5a 85        	mv	a0, s6
   12326: ef 70 c0 32  	jal	0x19652 <__sprint_r>
   1232a: 63 1d 05 ac  	bnez	a0, 0x11604 <_vfprintf_r+0xe42>
   1232e: 83 45 0d 00  	lbu	a1, 0x0(s10)
   12332: 0e 76        	ld	a2, 0xe0(sp)
   12334: 9c 0a        	addi	a5, sp, 0x150
   12336: 2e 88        	mv	a6, a1
   12338: 41 47        	li	a4, 0x10
   1233a: 9d 46        	li	a3, 0x7
   1233c: 21 bf        	j	0x12254 <_vfprintf_r+0x1a92>
   1233e: 1a f4        	sd	t1, 0x28(sp)
   12340: 8d 46        	li	a3, 0x3
   12342: 22 77        	ld	a4, 0x28(sp)
   12344: 02 65        	ld	a0, 0x0(sp)
   12346: 93 08 81 0b  	addi	a7, sp, 0xb8
   1234a: 13 08 c1 0a  	addi	a6, sp, 0xac
   1234e: 3c 11        	addi	a5, sp, 0xa8
   12350: e2 85        	mv	a1, s8
   12352: 52 86        	mv	a2, s4
   12354: 9a fc        	sd	t1, 0x78(sp)
   12356: 7a fc        	sd	t5, 0x38(sp)
   12358: 72 f0        	sd	t3, 0x20(sp)
   1235a: ef 20 20 75  	jal	0x14aac <_ldtoa_r>
   1235e: 02 7e        	ld	t3, 0x20(sp)
   12360: 62 7f        	ld	t5, 0x38(sp)
   12362: 66 73        	ld	t1, 0x78(sp)
   12364: 2a 8d        	mv	s10, a0
   12366: a2 77        	ld	a5, 0x28(sp)
   12368: 93 7c fe fd  	andi	s9, t3, -0x21
   1236c: 93 06 60 04  	li	a3, 0x46
   12370: b3 0d fd 00  	add	s11, s10, a5
   12374: 63 8f dc 12  	beq	s9, a3, 0x124b2 <_vfprintf_r+0x1cf0>
   12378: 62 85        	mv	a0, s8
   1237a: d2 85        	mv	a1, s4
   1237c: 01 46        	li	a2, 0x0
   1237e: 81 46        	li	a3, 0x0
   12380: 9a fc        	sd	t1, 0x78(sp)
   12382: 7a fc        	sd	t5, 0x38(sp)
   12384: 72 f0        	sd	t3, 0x20(sp)
   12386: ef a0 30 4a  	jal	0x1d028 <__netf2>
   1238a: 02 7e        	ld	t3, 0x20(sp)
   1238c: 62 7f        	ld	t5, 0x38(sp)
   1238e: 66 73        	ld	t1, 0x78(sp)
   12390: 63 05 05 50  	beqz	a0, 0x1289a <_vfprintf_r+0x20d8>
   12394: ea 77        	ld	a5, 0xb8(sp)
   12396: 63 fd b7 5d  	bgeu	a5, s11, 0x12970 <_vfprintf_r+0x21ae>
   1239a: 13 06 00 03  	li	a2, 0x30
   1239e: 13 87 17 00  	addi	a4, a5, 0x1
   123a2: 3a fd        	sd	a4, 0xb8(sp)
   123a4: 23 80 c7 00  	sb	a2, 0x0(a5)
   123a8: ea 77        	ld	a5, 0xb8(sp)
   123aa: e3 ea b7 ff  	bltu	a5, s11, 0x1239e <_vfprintf_r+0x1bdc>
   123ae: bb 87 a7 41  	subw	a5, a5, s10
   123b2: 3e f4        	sd	a5, 0x28(sp)
   123b4: aa 57        	lw	a5, 0xa8(sp)
   123b6: 13 07 70 04  	li	a4, 0x47
   123ba: 3e f0        	sd	a5, 0x20(sp)
   123bc: 63 84 ec 08  	beq	s9, a4, 0x12444 <_vfprintf_r+0x1c82>
   123c0: 13 07 60 04  	li	a4, 0x46
   123c4: 63 88 ec 12  	beq	s9, a4, 0x124f4 <_vfprintf_r+0x1d32>
   123c8: 82 77        	ld	a5, 0x20(sp)
   123ca: 1b 87 f7 ff  	addiw	a4, a5, -0x1
   123ce: 3a d5        	sw	a4, 0xa8(sp)
   123d0: 23 08 c1 0b  	sb	t3, 0xb0(sp)
   123d4: 63 42 07 18  	bltz	a4, 0x12558 <_vfprintf_r+0x1d96>
   123d8: 93 06 b0 02  	li	a3, 0x2b
   123dc: a3 08 d1 0a  	sb	a3, 0xb1(sp)
   123e0: a5 46        	li	a3, 0x9
   123e2: 63 d4 e6 00  	bge	a3, a4, 0x123ea <_vfprintf_r+0x1c28>
   123e6: 6f e0 ff 99  	j	0x10d84 <_vfprintf_r+0x5c2>
   123ea: 93 06 00 03  	li	a3, 0x30
   123ee: 23 09 d1 0a  	sb	a3, 0xb2(sp)
   123f2: 93 06 31 0b  	addi	a3, sp, 0xb3
   123f6: 75 b3        	j	0x121a2 <_vfprintf_r+0x19e0>
   123f8: 90 09        	addi	a2, sp, 0xd0
   123fa: ca 85        	mv	a1, s2
   123fc: 5a 85        	mv	a0, s6
   123fe: ef 70 40 25  	jal	0x19652 <__sprint_r>
   12402: 63 11 05 a0  	bnez	a0, 0x11604 <_vfprintf_r+0xe42>
   12406: 83 45 0d 00  	lbu	a1, 0x0(s10)
   1240a: 0e 76        	ld	a2, 0xe0(sp)
   1240c: 9c 0a        	addi	a5, sp, 0x150
   1240e: 41 47        	li	a4, 0x10
   12410: 9d 46        	li	a3, 0x7
   12412: ae 9b        	add	s7, s7, a1
   12414: 89 bd        	j	0x12266 <_vfprintf_r+0x1aa4>
   12416: 02 65        	ld	a0, 0x0(sp)
   12418: 90 09        	addi	a2, sp, 0xd0
   1241a: ca 85        	mv	a1, s2
   1241c: fa f4        	sd	t5, 0x68(sp)
   1241e: ef 70 40 23  	jal	0x19652 <__sprint_r>
   12422: 63 11 05 9e  	bnez	a0, 0x11604 <_vfprintf_r+0xe42>
   12426: 0e 7a        	ld	s4, 0xe0(sp)
   12428: 26 7f        	ld	t5, 0x68(sp)
   1242a: 93 09 01 15  	addi	s3, sp, 0x150
   1242e: 6f f0 4f ac  	j	0x116f2 <_vfprintf_r+0xf30>
   12432: aa 57        	lw	a5, 0xa8(sp)
   12434: 3e f0        	sd	a5, 0x20(sp)
   12436: bb 87 ad 41  	subw	a5, s11, s10
   1243a: 93 06 70 04  	li	a3, 0x47
   1243e: 3e f4        	sd	a5, 0x28(sp)
   12440: 63 9a dc 0a  	bne	s9, a3, 0x124f4 <_vfprintf_r+0x1d32>
   12444: 82 77        	ld	a5, 0x20(sp)
   12446: 75 57        	li	a4, -0x3
   12448: 63 c1 e7 10  	blt	a5, a4, 0x1254a <_vfprintf_r+0x1d88>
   1244c: 82 77        	ld	a5, 0x20(sp)
   1244e: 63 52 f3 02  	bge	t1, a5, 0x12472 <_vfprintf_r+0x1cb0>
   12452: 82 77        	ld	a5, 0x20(sp)
   12454: 79 3e        	addiw	t3, t3, -0x2
   12456: 23 08 c1 0b  	sb	t3, 0xb0(sp)
   1245a: 1b 87 f7 ff  	addiw	a4, a5, -0x1
   1245e: 3a d5        	sw	a4, 0xa8(sp)
   12460: e3 5c 07 f6  	bgez	a4, 0x123d8 <_vfprintf_r+0x1c16>
   12464: 05 47        	li	a4, 0x1
   12466: 93 06 d0 02  	li	a3, 0x2d
   1246a: 1d 9f        	subw	a4, a4, a5
   1246c: a3 08 d1 0a  	sb	a3, 0xb1(sp)
   12470: ad bf        	j	0x123ea <_vfprintf_r+0x1c28>
   12472: a2 77        	ld	a5, 0x28(sp)
   12474: 02 77        	ld	a4, 0x20(sp)
   12476: 63 4d f7 12  	blt	a4, a5, 0x125b0 <_vfprintf_r+0x1dee>
   1247a: c2 77        	ld	a5, 0x30(sp)
   1247c: 13 f7 17 00  	andi	a4, a5, 0x1
   12480: 82 77        	ld	a5, 0x20(sp)
   12482: 3e 8c        	mv	s8, a5
   12484: 01 c7        	beqz	a4, 0x1248c <_vfprintf_r+0x1cca>
   12486: 06 67        	ld	a4, 0x40(sp)
   12488: 3b 0c f7 00  	addw	s8, a4, a5
   1248c: c2 77        	ld	a5, 0x30(sp)
   1248e: 13 f7 07 40  	andi	a4, a5, 0x400
   12492: 01 c7        	beqz	a4, 0x1249a <_vfprintf_r+0x1cd8>
   12494: 82 77        	ld	a5, 0x20(sp)
   12496: 63 44 f0 32  	bgtz	a5, 0x127be <_vfprintf_r+0x1ffc>
   1249a: 62 88        	mv	a6, s8
   1249c: 63 53 0c 00  	bgez	s8, 0x124a2 <_vfprintf_r+0x1ce0>
   124a0: 01 48        	li	a6, 0x0
   124a2: 9b 0d 08 00  	sext.w	s11, a6
   124a6: 13 0e 70 06  	li	t3, 0x67
   124aa: 02 fc        	sd	zero, 0x38(sp)
   124ac: 02 f8        	sd	zero, 0x30(sp)
   124ae: 6f e0 7f 98  	j	0x10e34 <_vfprintf_r+0x672>
   124b2: 03 46 0d 00  	lbu	a2, 0x0(s10)
   124b6: 93 06 00 03  	li	a3, 0x30
   124ba: 63 00 d6 2e  	beq	a2, a3, 0x1279a <_vfprintf_r+0x1fd8>
   124be: aa 56        	lw	a3, 0xa8(sp)
   124c0: b6 9d        	add	s11, s11, a3
   124c2: 62 85        	mv	a0, s8
   124c4: d2 85        	mv	a1, s4
   124c6: 01 46        	li	a2, 0x0
   124c8: 81 46        	li	a3, 0x0
   124ca: 1a fc        	sd	t1, 0x38(sp)
   124cc: 7a f4        	sd	t5, 0x28(sp)
   124ce: 72 f0        	sd	t3, 0x20(sp)
   124d0: ef a0 90 35  	jal	0x1d028 <__netf2>
   124d4: 02 7e        	ld	t3, 0x20(sp)
   124d6: 22 7f        	ld	t5, 0x28(sp)
   124d8: 62 73        	ld	t1, 0x38(sp)
   124da: 21 dd        	beqz	a0, 0x12432 <_vfprintf_r+0x1c70>
   124dc: ea 77        	ld	a5, 0xb8(sp)
   124de: e3 ee b7 eb  	bltu	a5, s11, 0x1239a <_vfprintf_r+0x1bd8>
   124e2: bb 87 a7 41  	subw	a5, a5, s10
   124e6: 3e f4        	sd	a5, 0x28(sp)
   124e8: aa 57        	lw	a5, 0xa8(sp)
   124ea: 13 07 70 04  	li	a4, 0x47
   124ee: 3e f0        	sd	a5, 0x20(sp)
   124f0: e3 8a ec f4  	beq	s9, a4, 0x12444 <_vfprintf_r+0x1c82>
   124f4: c2 77        	ld	a5, 0x30(sp)
   124f6: 13 f7 17 00  	andi	a4, a5, 0x1
   124fa: 82 77        	ld	a5, 0x20(sp)
   124fc: 33 67 e3 00  	or	a4, t1, a4
   12500: 63 5b f0 3e  	blez	a5, 0x128f6 <_vfprintf_r+0x2134>
   12504: 63 12 07 3a  	bnez	a4, 0x128a8 <_vfprintf_r+0x20e6>
   12508: 02 7c        	ld	s8, 0x20(sp)
   1250a: 13 0e 60 06  	li	t3, 0x66
   1250e: c2 77        	ld	a5, 0x30(sp)
   12510: 13 f7 07 40  	andi	a4, a5, 0x400
   12514: 63 17 07 2a  	bnez	a4, 0x127c2 <_vfprintf_r+0x2000>
   12518: 62 88        	mv	a6, s8
   1251a: 63 45 0c 00  	bltz	s8, 0x12524 <_vfprintf_r+0x1d62>
   1251e: 9b 0d 08 00  	sext.w	s11, a6
   12522: 61 b7        	j	0x124aa <_vfprintf_r+0x1ce8>
   12524: 01 48        	li	a6, 0x0
   12526: 9b 0d 08 00  	sext.w	s11, a6
   1252a: 41 b7        	j	0x124aa <_vfprintf_r+0x1ce8>
   1252c: 02 65        	ld	a0, 0x0(sp)
   1252e: 90 09        	addi	a2, sp, 0xd0
   12530: ca 85        	mv	a1, s2
   12532: 7a f0        	sd	t5, 0x20(sp)
   12534: ef 70 e0 11  	jal	0x19652 <__sprint_r>
   12538: 63 16 05 8c  	bnez	a0, 0x11604 <_vfprintf_r+0xe42>
   1253c: 2a 5c        	lw	s8, 0xa8(sp)
   1253e: 0e 7a        	ld	s4, 0xe0(sp)
   12540: 02 7f        	ld	t5, 0x20(sp)
   12542: 93 09 01 15  	addi	s3, sp, 0x150
   12546: 6f f0 af 9f  	j	0x11740 <_vfprintf_r+0xf7e>
   1254a: 82 77        	ld	a5, 0x20(sp)
   1254c: 79 3e        	addiw	t3, t3, -0x2
   1254e: 23 08 c1 0b  	sb	t3, 0xb0(sp)
   12552: 1b 87 f7 ff  	addiw	a4, a5, -0x1
   12556: 3a d5        	sw	a4, 0xa8(sp)
   12558: 82 77        	ld	a5, 0x20(sp)
   1255a: 93 06 d0 02  	li	a3, 0x2d
   1255e: 05 47        	li	a4, 0x1
   12560: a3 08 d1 0a  	sb	a3, 0xb1(sp)
   12564: 1d 9f        	subw	a4, a4, a5
   12566: a5 46        	li	a3, 0x9
   12568: 63 d4 e6 00  	bge	a3, a4, 0x12570 <_vfprintf_r+0x1dae>
   1256c: 6f e0 9f 81  	j	0x10d84 <_vfprintf_r+0x5c2>
   12570: ad bd        	j	0x123ea <_vfprintf_r+0x1c28>
   12572: 66 ec        	sd	s9, 0x18(sp)
   12574: 63 0e 07 16  	beqz	a4, 0x126f0 <_vfprintf_r+0x1f2e>
   12578: 9b 0d 13 00  	addiw	s11, t1, 0x1
   1257c: 1a 8c        	mv	s8, t1
   1257e: 02 fc        	sd	zero, 0x38(sp)
   12580: 01 43        	li	t1, 0x0
   12582: 02 f8        	sd	zero, 0x30(sp)
   12584: 02 f0        	sd	zero, 0x20(sp)
   12586: 6f e0 2f bd  	j	0x10958 <_vfprintf_r+0x196>
   1258a: 02 65        	ld	a0, 0x0(sp)
   1258c: 90 09        	addi	a2, sp, 0xd0
   1258e: ca 85        	mv	a1, s2
   12590: 7a f0        	sd	t5, 0x20(sp)
   12592: ef 70 00 0c  	jal	0x19652 <__sprint_r>
   12596: 19 c1        	beqz	a0, 0x1259c <_vfprintf_r+0x1dda>
   12598: 6f f0 cf 86  	j	0x11604 <_vfprintf_r+0xe42>
   1259c: aa 56        	lw	a3, 0xa8(sp)
   1259e: a2 77        	ld	a5, 0x28(sp)
   125a0: 0e 7a        	ld	s4, 0xe0(sp)
   125a2: 02 7f        	ld	t5, 0x20(sp)
   125a4: 93 09 01 15  	addi	s3, sp, 0x150
   125a8: bb 86 d7 40  	subw	a3, a5, a3
   125ac: 6f f0 ef 9c  	j	0x1177a <_vfprintf_r+0xfb8>
   125b0: 86 67        	ld	a5, 0x40(sp)
   125b2: 22 77        	ld	a4, 0x28(sp)
   125b4: 13 0e 70 06  	li	t3, 0x67
   125b8: 3b 8c e7 00  	addw	s8, a5, a4
   125bc: 82 77        	ld	a5, 0x20(sp)
   125be: e3 48 f0 f4  	bgtz	a5, 0x1250e <_vfprintf_r+0x1d4c>
   125c2: bb 08 fc 40  	subw	a7, s8, a5
   125c6: 1b 8c 18 00  	addiw	s8, a7, 0x1
   125ca: 62 88        	mv	a6, s8
   125cc: 63 53 0c 00  	bgez	s8, 0x125d2 <_vfprintf_r+0x1e10>
   125d0: 01 48        	li	a6, 0x0
   125d2: c2 8d        	mv	s11, a6
   125d4: 13 0e 70 06  	li	t3, 0x67
   125d8: c9 bd        	j	0x124aa <_vfprintf_r+0x1ce8>
   125da: 41 57        	li	a4, -0x10
   125dc: 3b 0c c0 40  	negw	s8, a2
   125e0: 97 cc 00 00  	auipc	s9, 0xc
   125e4: 93 8c 8c 14  	addi	s9, s9, 0x148
   125e8: c1 48        	li	a7, 0x10
   125ea: 1d 43        	li	t1, 0x7
   125ec: 7a 8b        	mv	s6, t5
   125ee: 63 46 e6 00  	blt	a2, a4, 0x125fa <_vfprintf_r+0x1e38>
   125f2: 91 a0        	j	0x12636 <_vfprintf_r+0x1e74>
   125f4: 41 3c        	addiw	s8, s8, -0x10
   125f6: 63 df 88 03  	bge	a7, s8, 0x12634 <_vfprintf_r+0x1e72>
   125fa: 41 0a        	addi	s4, s4, 0x10
   125fc: 85 26        	addiw	a3, a3, 0x1
   125fe: 23 b0 99 01  	sd	s9, 0x0(s3)
   12602: 23 b4 19 01  	sd	a7, 0x8(s3)
   12606: d2 f1        	sd	s4, 0xe0(sp)
   12608: b6 cd        	sw	a3, 0xd8(sp)
   1260a: c1 09        	addi	s3, s3, 0x10
   1260c: e3 54 d3 fe  	bge	t1, a3, 0x125f4 <_vfprintf_r+0x1e32>
   12610: 02 65        	ld	a0, 0x0(sp)
   12612: 90 09        	addi	a2, sp, 0xd0
   12614: ca 85        	mv	a1, s2
   12616: ef 70 c0 03  	jal	0x19652 <__sprint_r>
   1261a: 19 c1        	beqz	a0, 0x12620 <_vfprintf_r+0x1e5e>
   1261c: 6f e0 9f fe  	j	0x11604 <_vfprintf_r+0xe42>
   12620: 0e 7a        	ld	s4, 0xe0(sp)
   12622: ee 46        	lw	a3, 0xd8(sp)
   12624: 93 09 01 15  	addi	s3, sp, 0x150
   12628: 1d 43        	li	t1, 0x7
   1262a: c1 48        	li	a7, 0x10
   1262c: e1 b7        	j	0x125f4 <_vfprintf_r+0x1e32>
   1262e: da 86        	mv	a3, s6
   12630: 6f f0 8f c2  	j	0x11a58 <_vfprintf_r+0x1296>
   12634: 5a 8f        	mv	t5, s6
   12636: 62 9a        	add	s4, s4, s8
   12638: 85 26        	addiw	a3, a3, 0x1
   1263a: d2 f1        	sd	s4, 0xe0(sp)
   1263c: b6 cd        	sw	a3, 0xd8(sp)
   1263e: 23 b0 99 01  	sd	s9, 0x0(s3)
   12642: 23 b4 89 01  	sd	s8, 0x8(s3)
   12646: 1d 47        	li	a4, 0x7
   12648: 63 52 d7 b4  	bge	a4, a3, 0x1198c <_vfprintf_r+0x11ca>
   1264c: 02 65        	ld	a0, 0x0(sp)
   1264e: 90 09        	addi	a2, sp, 0xd0
   12650: ca 85        	mv	a1, s2
   12652: 7a f0        	sd	t5, 0x20(sp)
   12654: ef 60 f0 7f  	jal	0x19652 <__sprint_r>
   12658: 19 c1        	beqz	a0, 0x1265e <_vfprintf_r+0x1e9c>
   1265a: 6f e0 bf fa  	j	0x11604 <_vfprintf_r+0xe42>
   1265e: 0e 7a        	ld	s4, 0xe0(sp)
   12660: ee 46        	lw	a3, 0xd8(sp)
   12662: 02 7f        	ld	t5, 0x20(sp)
   12664: 93 09 01 15  	addi	s3, sp, 0x150
   12668: 6f f0 1f 83  	j	0x11e98 <_vfprintf_r+0x16d6>
   1266c: 9b 07 13 00  	addiw	a5, t1, 0x1
   12670: 3e f4        	sd	a5, 0x28(sp)
   12672: 89 46        	li	a3, 0x2
   12674: f9 b1        	j	0x12342 <_vfprintf_r+0x1b80>
   12676: 02 e8        	sd	zero, 0x10(sp)
   12678: 13 0d 81 0e  	addi	s10, sp, 0xe8
   1267c: 7d 57        	li	a4, -0x1
   1267e: 7e 17        	slli	a4, a4, 0x3f
   12680: 93 07 d0 02  	li	a5, 0x2d
   12684: 33 4a ea 00  	xor	s4, s4, a4
   12688: be f4        	sd	a5, 0x68(sp)
   1268a: 9b 06 fe fb  	addiw	a3, t3, -0x41
   1268e: 13 07 60 02  	li	a4, 0x26
   12692: 63 84 e6 00  	beq	a3, a4, 0x1269a <_vfprintf_r+0x1ed8>
   12696: 6f e0 4f d1  	j	0x10baa <_vfprintf_r+0x3e8>
   1269a: 02 65        	ld	a0, 0x0(sp)
   1269c: 1a 87        	mv	a4, t1
   1269e: 93 08 81 0b  	addi	a7, sp, 0xb8
   126a2: 13 08 c1 0a  	addi	a6, sp, 0xac
   126a6: 3c 11        	addi	a5, sp, 0xa8
   126a8: 89 46        	li	a3, 0x2
   126aa: e2 85        	mv	a1, s8
   126ac: 52 86        	mv	a2, s4
   126ae: 7a fc        	sd	t5, 0x38(sp)
   126b0: 72 f4        	sd	t3, 0x28(sp)
   126b2: 1a f0        	sd	t1, 0x20(sp)
   126b4: ef 20 80 3f  	jal	0x14aac <_ldtoa_r>
   126b8: 02 73        	ld	t1, 0x20(sp)
   126ba: 22 7e        	ld	t3, 0x28(sp)
   126bc: 62 7f        	ld	t5, 0x38(sp)
   126be: 2a 8d        	mv	s10, a0
   126c0: c2 77        	ld	a5, 0x30(sp)
   126c2: 13 f7 17 00  	andi	a4, a5, 0x1
   126c6: 05 e3        	bnez	a4, 0x126e6 <_vfprintf_r+0x1f24>
   126c8: ea 77        	ld	a5, 0xb8(sp)
   126ca: aa 56        	lw	a3, 0xa8(sp)
   126cc: 75 57        	li	a4, -0x3
   126ce: bb 87 a7 41  	subw	a5, a5, s10
   126d2: 36 f0        	sd	a3, 0x20(sp)
   126d4: 3e f4        	sd	a5, 0x28(sp)
   126d6: e3 ca e6 e6  	blt	a3, a4, 0x1254a <_vfprintf_r+0x1d88>
   126da: e3 4c d3 d6  	blt	t1, a3, 0x12452 <_vfprintf_r+0x1c90>
   126de: e3 c9 f6 ec  	blt	a3, a5, 0x125b0 <_vfprintf_r+0x1dee>
   126e2: 02 7c        	ld	s8, 0x20(sp)
   126e4: 65 b3        	j	0x1248c <_vfprintf_r+0x1cca>
   126e6: b3 0d 6d 00  	add	s11, s10, t1
   126ea: 93 0c 70 04  	li	s9, 0x47
   126ee: d1 bb        	j	0x124c2 <_vfprintf_r+0x1d00>
   126f0: 1a 8c        	mv	s8, t1
   126f2: 9a 8d        	mv	s11, t1
   126f4: 02 fc        	sd	zero, 0x38(sp)
   126f6: 01 43        	li	t1, 0x0
   126f8: 02 f8        	sd	zero, 0x30(sp)
   126fa: 02 f0        	sd	zero, 0x20(sp)
   126fc: 6f e0 cf a5  	j	0x10958 <_vfprintf_r+0x196>
   12700: c2 77        	ld	a5, 0x30(sp)
   12702: fd 8e        	and	a3, a3, a5
   12704: 99 e2        	bnez	a3, 0x1270a <_vfprintf_r+0x1f48>
   12706: 6f e0 2f f1  	j	0x10e18 <_vfprintf_r+0x656>
   1270a: 6f e0 8f f0  	j	0x10e12 <_vfprintf_r+0x650>
   1270e: 63 13 03 00  	bnez	t1, 0x12714 <_vfprintf_r+0x1f52>
   12712: 36 83        	mv	t1, a3
   12714: 63 5b 0a 10  	bgez	s4, 0x1282a <_vfprintf_r+0x2068>
   12718: 7e 17        	slli	a4, a4, 0x3f
   1271a: 93 07 d0 02  	li	a5, 0x2d
   1271e: 7a f8        	sd	t5, 0x30(sp)
   12720: 33 4a ea 00  	xor	s4, s4, a4
   12724: 02 e8        	sd	zero, 0x10(sp)
   12726: 5a 8f        	mv	t5, s6
   12728: be f4        	sd	a5, 0x68(sp)
   1272a: 02 65        	ld	a0, 0x0(sp)
   1272c: 1a 87        	mv	a4, t1
   1272e: 93 08 81 0b  	addi	a7, sp, 0xb8
   12732: 13 08 c1 0a  	addi	a6, sp, 0xac
   12736: 3c 11        	addi	a5, sp, 0xa8
   12738: 89 46        	li	a3, 0x2
   1273a: e2 85        	mv	a1, s8
   1273c: 52 86        	mv	a2, s4
   1273e: 7a fc        	sd	t5, 0x38(sp)
   12740: 72 f4        	sd	t3, 0x28(sp)
   12742: 1a f0        	sd	t1, 0x20(sp)
   12744: ef 20 80 36  	jal	0x14aac <_ldtoa_r>
   12748: 22 7e        	ld	t3, 0x28(sp)
   1274a: 13 07 70 04  	li	a4, 0x47
   1274e: 02 73        	ld	t1, 0x20(sp)
   12750: 62 7f        	ld	t5, 0x38(sp)
   12752: 2a 8d        	mv	s10, a0
   12754: e3 06 ee f6  	beq	t3, a4, 0x126c0 <_vfprintf_r+0x1efe>
   12758: 1a f4        	sd	t1, 0x28(sp)
   1275a: 31 b1        	j	0x12366 <_vfprintf_r+0x1ba4>
   1275c: 1c c3        	sw	a5, 0x0(a4)
   1275e: 56 8d        	mv	s10, s5
   12760: 6f e0 4f ab  	j	0x10a14 <_vfprintf_r+0x252>
   12764: 2e 6a        	ld	s4, 0xc8(sp)
   12766: 13 67 0f 10  	ori	a4, t5, 0x100
   1276a: 01 27        	sext.w	a4, a4
   1276c: 7a f8        	sd	t5, 0x30(sp)
   1276e: 02 e8        	sd	zero, 0x10(sp)
   12770: 0e 6c        	ld	s8, 0xc0(sp)
   12772: 3a 8f        	mv	t5, a4
   12774: 19 43        	li	t1, 0x6
   12776: e3 43 0a f0  	bltz	s4, 0x1267c <_vfprintf_r+0x1eba>
   1277a: 82 f4        	sd	zero, 0x68(sp)
   1277c: 39 b7        	j	0x1268a <_vfprintf_r+0x1ec8>
   1277e: 17 cd 00 00  	auipc	s10, 0xc
   12782: 13 0d 2d d0  	addi	s10, s10, -0x2fe
   12786: 91 4d        	li	s11, 0x4
   12788: 6f e0 0f 9d  	j	0x10958 <_vfprintf_r+0x196>
   1278c: 17 cd 00 00  	auipc	s10, 0xc
   12790: 13 0d 4d d0  	addi	s10, s10, -0x2fc
   12794: 91 4d        	li	s11, 0x4
   12796: 6f e0 2f 9c  	j	0x10958 <_vfprintf_r+0x196>
   1279a: 01 46        	li	a2, 0x0
   1279c: 81 46        	li	a3, 0x0
   1279e: 62 85        	mv	a0, s8
   127a0: d2 85        	mv	a1, s4
   127a2: 9a fc        	sd	t1, 0x78(sp)
   127a4: 7a fc        	sd	t5, 0x38(sp)
   127a6: 72 f0        	sd	t3, 0x20(sp)
   127a8: ef a0 10 08  	jal	0x1d028 <__netf2>
   127ac: 02 7e        	ld	t3, 0x20(sp)
   127ae: 62 7f        	ld	t5, 0x38(sp)
   127b0: 66 73        	ld	t1, 0x78(sp)
   127b2: 63 13 05 10  	bnez	a0, 0x128b8 <_vfprintf_r+0x20f6>
   127b6: aa 57        	lw	a5, 0xa8(sp)
   127b8: 3e f0        	sd	a5, 0x20(sp)
   127ba: be 9d        	add	s11, s11, a5
   127bc: ad b9        	j	0x12436 <_vfprintf_r+0x1c74>
   127be: 13 0e 70 06  	li	t3, 0x67
   127c2: 06 76        	ld	a2, 0x60(sp)
   127c4: 93 06 f0 0f  	li	a3, 0xff
   127c8: 03 47 06 00  	lbu	a4, 0x0(a2)
   127cc: 63 0c d7 1c  	beq	a4, a3, 0x129a4 <_vfprintf_r+0x21e2>
   127d0: 82 77        	ld	a5, 0x20(sp)
   127d2: 01 48        	li	a6, 0x0
   127d4: 01 45        	li	a0, 0x0
   127d6: ba 85        	mv	a1, a4
   127d8: 63 5a f7 00  	bge	a4, a5, 0x127ec <_vfprintf_r+0x202a>
   127dc: 03 47 16 00  	lbu	a4, 0x1(a2)
   127e0: 8d 9f        	subw	a5, a5, a1
   127e2: 1d cb        	beqz	a4, 0x12818 <_vfprintf_r+0x2056>
   127e4: 05 25        	addiw	a0, a0, 0x1
   127e6: 05 06        	addi	a2, a2, 0x1
   127e8: e3 17 d7 fe  	bne	a4, a3, 0x127d6 <_vfprintf_r+0x2014>
   127ec: b2 f0        	sd	a2, 0x60(sp)
   127ee: 3e f0        	sd	a5, 0x20(sp)
   127f0: 2a f8        	sd	a0, 0x30(sp)
   127f2: 42 fc        	sd	a6, 0x38(sp)
   127f4: e2 77        	ld	a5, 0x38(sp)
   127f6: 42 77        	ld	a4, 0x30(sp)
   127f8: 3d 9f        	addw	a4, a4, a5
   127fa: c6 77        	ld	a5, 0x70(sp)
   127fc: 3b 07 f7 02  	mulw	a4, a4, a5
   12800: 3b 0c 87 01  	addw	s8, a4, s8
   12804: 62 88        	mv	a6, s8
   12806: 63 45 0c 00  	bltz	s8, 0x12810 <_vfprintf_r+0x204e>
   1280a: c2 8d        	mv	s11, a6
   1280c: 6f e0 8f e2  	j	0x10e34 <_vfprintf_r+0x672>
   12810: 01 48        	li	a6, 0x0
   12812: c2 8d        	mv	s11, a6
   12814: 6f e0 0f e2  	j	0x10e34 <_vfprintf_r+0x672>
   12818: 03 47 06 00  	lbu	a4, 0x0(a2)
   1281c: 05 28        	addiw	a6, a6, 0x1
   1281e: e9 b7        	j	0x127e8 <_vfprintf_r+0x2026>
   12820: 63 13 03 00  	bnez	t1, 0x12826 <_vfprintf_r+0x2064>
   12824: 36 83        	mv	t1, a3
   12826: 63 4b 0a 0e  	bltz	s4, 0x1291c <_vfprintf_r+0x215a>
   1282a: 02 65        	ld	a0, 0x0(sp)
   1282c: 1a 87        	mv	a4, t1
   1282e: 93 08 81 0b  	addi	a7, sp, 0xb8
   12832: 13 08 c1 0a  	addi	a6, sp, 0xac
   12836: 3c 11        	addi	a5, sp, 0xa8
   12838: 89 46        	li	a3, 0x2
   1283a: e2 85        	mv	a1, s8
   1283c: 52 86        	mv	a2, s4
   1283e: 7a e8        	sd	t5, 0x10(sp)
   12840: 72 f4        	sd	t3, 0x28(sp)
   12842: 1a f0        	sd	t1, 0x20(sp)
   12844: ef 20 80 26  	jal	0x14aac <_ldtoa_r>
   12848: 42 6f        	ld	t5, 0x10(sp)
   1284a: 02 73        	ld	t1, 0x20(sp)
   1284c: 22 7e        	ld	t3, 0x28(sp)
   1284e: 7a f8        	sd	t5, 0x30(sp)
   12850: 2a 8d        	mv	s10, a0
   12852: 5a 8f        	mv	t5, s6
   12854: 82 f4        	sd	zero, 0x68(sp)
   12856: 02 e8        	sd	zero, 0x10(sp)
   12858: a5 b5        	j	0x126c0 <_vfprintf_r+0x1efe>
   1285a: 5a 83        	mv	t1, s6
   1285c: bb 86 6d 00  	addw	a3, s11, t1
   12860: 4e 8b        	mv	s6, s3
   12862: bb 86 66 41  	subw	a3, a3, s6
   12866: 6a 89        	mv	s2, s10
   12868: e2 7a        	ld	s5, 0x38(sp)
   1286a: 66 7e        	ld	t3, 0x78(sp)
   1286c: c6 69        	ld	s3, 0x50(sp)
   1286e: 6e 8d        	mv	s10, s11
   12870: 63 d4 06 00  	bgez	a3, 0x12878 <_vfprintf_r+0x20b6>
   12874: 6f e0 4f cc  	j	0x10d38 <_vfprintf_r+0x576>
   12878: 13 86 16 00  	addi	a2, a3, 0x1
   1287c: 5a 96        	add	a2, a2, s6
   1287e: 5a 87        	mv	a4, s6
   12880: 93 05 00 03  	li	a1, 0x30
   12884: 05 07        	addi	a4, a4, 0x1
   12886: a3 0f b7 fe  	sb	a1, -0x1(a4)
   1288a: e3 1d c7 fe  	bne	a4, a2, 0x12884 <_vfprintf_r+0x20c2>
   1288e: 93 07 1b 00  	addi	a5, s6, 0x1
   12892: 33 8b d7 00  	add	s6, a5, a3
   12896: 6f e0 2f ca  	j	0x10d38 <_vfprintf_r+0x576>
   1289a: aa 57        	lw	a5, 0xa8(sp)
   1289c: 13 07 70 04  	li	a4, 0x47
   128a0: 3e f0        	sd	a5, 0x20(sp)
   128a2: e3 93 ec b2  	bne	s9, a4, 0x123c8 <_vfprintf_r+0x1c06>
   128a6: 79 be        	j	0x12444 <_vfprintf_r+0x1c82>
   128a8: bb 08 f3 00  	addw	a7, t1, a5
   128ac: 86 67        	ld	a5, 0x40(sp)
   128ae: 13 0e 60 06  	li	t3, 0x66
   128b2: 3b 8c f8 00  	addw	s8, a7, a5
   128b6: a1 b9        	j	0x1250e <_vfprintf_r+0x1d4c>
   128b8: a2 77        	ld	a5, 0x28(sp)
   128ba: 85 46        	li	a3, 0x1
   128bc: 9d 9e        	subw	a3, a3, a5
   128be: 36 d5        	sw	a3, 0xa8(sp)
   128c0: 01 b1        	j	0x124c0 <_vfprintf_r+0x1cfe>
   128c2: 83 27 09 0b  	lw	a5, 0xb0(s2)
   128c6: 85 8b        	andi	a5, a5, 0x1
   128c8: a5 cf        	beqz	a5, 0x12940 <_vfprintf_r+0x217e>
   128ca: fd 57        	li	a5, -0x1
   128cc: 3e e4        	sd	a5, 0x8(sp)
   128ce: 6f e0 cf 98  	j	0x10a5a <_vfprintf_r+0x298>
   128d2: 13 06 00 07  	li	a2, 0x70
   128d6: 6f e0 0f c9  	j	0x10d66 <_vfprintf_r+0x5a4>
   128da: 02 e8        	sd	zero, 0x10(sp)
   128dc: 0d 4c        	li	s8, 0x3
   128de: 01 43        	li	t1, 0x0
   128e0: 02 fc        	sd	zero, 0x38(sp)
   128e2: 02 f8        	sd	zero, 0x30(sp)
   128e4: 02 f0        	sd	zero, 0x20(sp)
   128e6: 91 4d        	li	s11, 0x4
   128e8: 6f e0 0f 87  	j	0x10958 <_vfprintf_r+0x196>
   128ec: 02 e8        	sd	zero, 0x10(sp)
   128ee: 5a 8f        	mv	t5, s6
   128f0: 71 b3        	j	0x1267c <_vfprintf_r+0x1eba>
   128f2: 42 6d        	ld	s10, 0x10(sp)
   128f4: 61 b3        	j	0x1267c <_vfprintf_r+0x1eba>
   128f6: 11 e7        	bnez	a4, 0x12902 <_vfprintf_r+0x2140>
   128f8: 85 4d        	li	s11, 0x1
   128fa: 6e 8c        	mv	s8, s11
   128fc: 13 0e 60 06  	li	t3, 0x66
   12900: 6d b6        	j	0x124aa <_vfprintf_r+0x1ce8>
   12902: 86 67        	ld	a5, 0x40(sp)
   12904: 9b 88 17 00  	addiw	a7, a5, 0x1
   12908: 3b 8c 68 00  	addw	s8, a7, t1
   1290c: 62 88        	mv	a6, s8
   1290e: 63 53 0c 00  	bgez	s8, 0x12914 <_vfprintf_r+0x2152>
   12912: 01 48        	li	a6, 0x0
   12914: c2 8d        	mv	s11, a6
   12916: 13 0e 60 06  	li	t3, 0x66
   1291a: 41 be        	j	0x124aa <_vfprintf_r+0x1ce8>
   1291c: 7e 17        	slli	a4, a4, 0x3f
   1291e: 93 07 d0 02  	li	a5, 0x2d
   12922: 7a f8        	sd	t5, 0x30(sp)
   12924: 33 4a ea 00  	xor	s4, s4, a4
   12928: 02 e8        	sd	zero, 0x10(sp)
   1292a: 5a 8f        	mv	t5, s6
   1292c: be f4        	sd	a5, 0x68(sp)
   1292e: b5 b3        	j	0x1269a <_vfprintf_r+0x1ed8>
   12930: 83 46 ac 00  	lbu	a3, 0xa(s8)
   12934: 6f e0 0f c0  	j	0x10d34 <_vfprintf_r+0x572>
   12938: 89 47        	li	a5, 0x2
   1293a: be e8        	sd	a5, 0x50(sp)
   1293c: 6f e0 4f cc  	j	0x10e00 <_vfprintf_r+0x63e>
   12940: 83 57 09 01  	lhu	a5, 0x10(s2)
   12944: 93 f7 07 20  	andi	a5, a5, 0x200
   12948: c9 f3        	bnez	a5, 0x128ca <_vfprintf_r+0x2108>
   1294a: 03 35 09 0a  	ld	a0, 0xa0(s2)
   1294e: ef 30 e0 12  	jal	0x15a7c <__retarget_lock_release_recursive>
   12952: a5 bf        	j	0x128ca <_vfprintf_r+0x2108>
   12954: 62 67        	ld	a4, 0x18(sp)
   12956: 1c 43        	lw	a5, 0x0(a4)
   12958: 21 07        	addi	a4, a4, 0x8
   1295a: 3e 83        	mv	t1, a5
   1295c: 63 d3 07 00  	bgez	a5, 0x12962 <_vfprintf_r+0x21a0>
   12960: 7d 53        	li	t1, -0x1
   12962: 03 ce 1a 00  	lbu	t3, 0x1(s5)
   12966: 1a 8c        	mv	s8, t1
   12968: 3a ec        	sd	a4, 0x18(sp)
   1296a: b2 8a        	mv	s5, a2
   1296c: 6f d0 9f f7  	j	0x108e4 <_vfprintf_r+0x122>
   12970: bb 87 a7 41  	subw	a5, a5, s10
   12974: 3e f4        	sd	a5, 0x28(sp)
   12976: aa 57        	lw	a5, 0xa8(sp)
   12978: 13 07 70 04  	li	a4, 0x47
   1297c: 3e f0        	sd	a5, 0x20(sp)
   1297e: e3 95 ec a4  	bne	s9, a4, 0x123c8 <_vfprintf_r+0x1c06>
   12982: c9 b4        	j	0x12444 <_vfprintf_r+0x1c82>
   12984: 83 57 09 01  	lhu	a5, 0x10(s2)
   12988: 93 e7 07 04  	ori	a5, a5, 0x40
   1298c: 23 18 f9 00  	sh	a5, 0x10(s2)
   12990: 6f e0 6f 89  	j	0x10a26 <_vfprintf_r+0x264>
   12994: 01 43        	li	t1, 0x0
   12996: 02 fc        	sd	zero, 0x38(sp)
   12998: 02 f8        	sd	zero, 0x30(sp)
   1299a: 02 e8        	sd	zero, 0x10(sp)
   1299c: 0d 4c        	li	s8, 0x3
   1299e: 91 4d        	li	s11, 0x4
   129a0: 6f d0 9f fb  	j	0x10958 <_vfprintf_r+0x196>
   129a4: 02 fc        	sd	zero, 0x38(sp)
   129a6: 02 f8        	sd	zero, 0x30(sp)
   129a8: b1 b5        	j	0x127f4 <_vfprintf_r+0x2032>
   129aa: 85 4d        	li	s11, 0x1
   129ac: 02 f8        	sd	zero, 0x30(sp)
   129ae: 02 fc        	sd	zero, 0x38(sp)
   129b0: 6e 8c        	mv	s8, s11
   129b2: 02 e8        	sd	zero, 0x10(sp)
   129b4: 02 f0        	sd	zero, 0x20(sp)
   129b6: 13 0d b1 14  	addi	s10, sp, 0x14b
   129ba: 13 0e 80 07  	li	t3, 0x78
   129be: 01 45        	li	a0, 0x0
   129c0: 6f e0 0f c9  	j	0x10e50 <_vfprintf_r+0x68e>

00000000000129c4 <vfprintf>:
   129c4: 2a 87        	mv	a4, a0
   129c6: 03 b5 81 70  	ld	a0, 0x708(gp)
   129ca: ae 87        	mv	a5, a1
   129cc: b2 86        	mv	a3, a2
   129ce: ba 85        	mv	a1, a4
   129d0: 3e 86        	mv	a2, a5
   129d2: 6f d0 1f df  	j	0x107c2 <_vfprintf_r>

00000000000129d6 <__sbprintf>:
   129d6: 83 d7 05 01  	lhu	a5, 0x10(a1)
   129da: 03 ae 05 0b  	lw	t3, 0xb0(a1)
   129de: 03 d3 25 01  	lhu	t1, 0x12(a1)
   129e2: 83 b8 05 03  	ld	a7, 0x30(a1)
   129e6: 03 b8 05 04  	ld	a6, 0x40(a1)
   129ea: 13 01 01 b1  	addi	sp, sp, -0x4f0
   129ee: 13 07 00 40  	li	a4, 0x400
   129f2: f5 9b        	andi	a5, a5, -0x3
   129f4: 23 30 81 4e  	sd	s0, 0x4e0(sp)
   129f8: 23 38 21 4d  	sd	s2, 0x4d0(sp)
   129fc: 2e 84        	mv	s0, a1
   129fe: 2a 89        	mv	s2, a0
   12a00: 8c 01        	addi	a1, sp, 0xc0
   12a02: 28 11        	addi	a0, sp, 0xa8
   12a04: 23 34 11 4e  	sd	ra, 0x4e8(sp)
   12a08: 23 3c 91 4c  	sd	s1, 0x4d8(sp)
   12a0c: 23 34 31 4d  	sd	s3, 0x4c8(sp)
   12a10: b2 84        	mv	s1, a2
   12a12: b6 89        	mv	s3, a3
   12a14: 23 1c f1 00  	sh	a5, 0x18(sp)
   12a18: 72 dd        	sw	t3, 0xb8(sp)
   12a1a: 23 1d 61 00  	sh	t1, 0x1a(sp)
   12a1e: 46 fc        	sd	a7, 0x38(sp)
   12a20: c2 e4        	sd	a6, 0x48(sp)
   12a22: 2e e4        	sd	a1, 0x8(sp)
   12a24: 2e f0        	sd	a1, 0x20(sp)
   12a26: 3a ca        	sw	a4, 0x14(sp)
   12a28: 3a d4        	sw	a4, 0x28(sp)
   12a2a: 02 d8        	sw	zero, 0x30(sp)
   12a2c: ef 30 c0 03  	jal	0x15a68 <__retarget_lock_init_recursive>
   12a30: 26 86        	mv	a2, s1
   12a32: ce 86        	mv	a3, s3
   12a34: 2c 00        	addi	a1, sp, 0x8
   12a36: 4a 85        	mv	a0, s2
   12a38: ef d0 bf d8  	jal	0x107c2 <_vfprintf_r>
   12a3c: aa 84        	mv	s1, a0
   12a3e: 63 5e 05 02  	bgez	a0, 0x12a7a <__sbprintf+0xa4>
   12a42: 83 57 81 01  	lhu	a5, 0x18(sp)
   12a46: 93 f7 07 04  	andi	a5, a5, 0x40
   12a4a: 99 c7        	beqz	a5, 0x12a58 <__sbprintf+0x82>
   12a4c: 83 57 04 01  	lhu	a5, 0x10(s0)
   12a50: 93 e7 07 04  	ori	a5, a5, 0x40
   12a54: 23 18 f4 00  	sh	a5, 0x10(s0)
   12a58: 2a 75        	ld	a0, 0xa8(sp)
   12a5a: ef 30 20 01  	jal	0x15a6c <__retarget_lock_close_recursive>
   12a5e: 83 30 81 4e  	ld	ra, 0x4e8(sp)
   12a62: 03 34 01 4e  	ld	s0, 0x4e0(sp)
   12a66: 03 39 01 4d  	ld	s2, 0x4d0(sp)
   12a6a: 83 39 81 4c  	ld	s3, 0x4c8(sp)
   12a6e: 26 85        	mv	a0, s1
   12a70: 83 34 81 4d  	ld	s1, 0x4d8(sp)
   12a74: 13 01 01 4f  	addi	sp, sp, 0x4f0
   12a78: 82 80        	ret
   12a7a: 2c 00        	addi	a1, sp, 0x8
   12a7c: 4a 85        	mv	a0, s2
   12a7e: ef 00 40 3b  	jal	0x12e32 <_fflush_r>
   12a82: 61 d1        	beqz	a0, 0x12a42 <__sbprintf+0x6c>
   12a84: fd 54        	li	s1, -0x1
   12a86: 75 bf        	j	0x12a42 <__sbprintf+0x6c>

0000000000012a88 <__swsetup_r>:
   12a88: 83 b7 81 70  	ld	a5, 0x708(gp)
   12a8c: 01 11        	addi	sp, sp, -0x20
   12a8e: 22 e8        	sd	s0, 0x10(sp)
   12a90: 26 e4        	sd	s1, 0x8(sp)
   12a92: 06 ec        	sd	ra, 0x18(sp)
   12a94: aa 84        	mv	s1, a0
   12a96: 2e 84        	mv	s0, a1
   12a98: 99 c3        	beqz	a5, 0x12a9e <__swsetup_r+0x16>
   12a9a: b8 4b        	lw	a4, 0x50(a5)
   12a9c: 41 c3        	beqz	a4, 0x12b1c <__swsetup_r+0x94>
   12a9e: 83 17 04 01  	lh	a5, 0x10(s0)
   12aa2: 13 f7 87 00  	andi	a4, a5, 0x8
   12aa6: 15 c3        	beqz	a4, 0x12aca <__swsetup_r+0x42>
   12aa8: 18 6c        	ld	a4, 0x18(s0)
   12aaa: 05 cf        	beqz	a4, 0x12ae2 <__swsetup_r+0x5a>
   12aac: 13 f7 17 00  	andi	a4, a5, 0x1
   12ab0: 2d c3        	beqz	a4, 0x12b12 <__swsetup_r+0x8a>
   12ab2: 1c 50        	lw	a5, 0x20(s0)
   12ab4: 23 26 04 00  	sw	zero, 0xc(s0)
   12ab8: bb 07 f0 40  	negw	a5, a5
   12abc: 1c d4        	sw	a5, 0x28(s0)
   12abe: 01 45        	li	a0, 0x0
   12ac0: e2 60        	ld	ra, 0x18(sp)
   12ac2: 42 64        	ld	s0, 0x10(sp)
   12ac4: a2 64        	ld	s1, 0x8(sp)
   12ac6: 05 61        	addi	sp, sp, 0x20
   12ac8: 82 80        	ret
   12aca: 13 f7 07 01  	andi	a4, a5, 0x10
   12ace: 61 c7        	beqz	a4, 0x12b96 <__swsetup_r+0x10e>
   12ad0: 13 f7 47 00  	andi	a4, a5, 0x4
   12ad4: 21 eb        	bnez	a4, 0x12b24 <__swsetup_r+0x9c>
   12ad6: 18 6c        	ld	a4, 0x18(s0)
   12ad8: 93 e7 87 00  	ori	a5, a5, 0x8
   12adc: 23 18 f4 00  	sh	a5, 0x10(s0)
   12ae0: 71 f7        	bnez	a4, 0x12aac <__swsetup_r+0x24>
   12ae2: 93 f6 07 28  	andi	a3, a5, 0x280
   12ae6: 13 06 00 20  	li	a2, 0x200
   12aea: 63 94 c6 06  	bne	a3, a2, 0x12b52 <__swsetup_r+0xca>
   12aee: 93 f6 17 00  	andi	a3, a5, 0x1
   12af2: d1 c2        	beqz	a3, 0x12b76 <__swsetup_r+0xee>
   12af4: 18 50        	lw	a4, 0x20(s0)
   12af6: 23 26 04 00  	sw	zero, 0xc(s0)
   12afa: 3b 07 e0 40  	negw	a4, a4
   12afe: 18 d4        	sw	a4, 0x28(s0)
   12b00: 13 f7 07 08  	andi	a4, a5, 0x80
   12b04: 4d df        	beqz	a4, 0x12abe <__swsetup_r+0x36>
   12b06: 93 e7 07 04  	ori	a5, a5, 0x40
   12b0a: 23 18 f4 00  	sh	a5, 0x10(s0)
   12b0e: 7d 55        	li	a0, -0x1
   12b10: 45 bf        	j	0x12ac0 <__swsetup_r+0x38>
   12b12: 89 8b        	andi	a5, a5, 0x2
   12b14: 85 ef        	bnez	a5, 0x12b4c <__swsetup_r+0xc4>
   12b16: 1c 50        	lw	a5, 0x20(s0)
   12b18: 5c c4        	sw	a5, 0xc(s0)
   12b1a: 55 b7        	j	0x12abe <__swsetup_r+0x36>
   12b1c: 3e 85        	mv	a0, a5
   12b1e: ef 00 20 4d  	jal	0x12ff0 <__sinit>
   12b22: b5 bf        	j	0x12a9e <__swsetup_r+0x16>
   12b24: 2c 6c        	ld	a1, 0x58(s0)
   12b26: 81 cd        	beqz	a1, 0x12b3e <__swsetup_r+0xb6>
   12b28: 13 07 44 07  	addi	a4, s0, 0x74
   12b2c: 63 87 e5 00  	beq	a1, a4, 0x12b3a <__swsetup_r+0xb2>
   12b30: 26 85        	mv	a0, s1
   12b32: ef 00 d0 06  	jal	0x1339e <_free_r>
   12b36: 83 17 04 01  	lh	a5, 0x10(s0)
   12b3a: 23 3c 04 04  	sd	zero, 0x58(s0)
   12b3e: 18 6c        	ld	a4, 0x18(s0)
   12b40: 93 f7 b7 fd  	andi	a5, a5, -0x25
   12b44: 23 24 04 00  	sw	zero, 0x8(s0)
   12b48: 18 e0        	sd	a4, 0x0(s0)
   12b4a: 79 b7        	j	0x12ad8 <__swsetup_r+0x50>
   12b4c: 23 26 04 00  	sw	zero, 0xc(s0)
   12b50: bd b7        	j	0x12abe <__swsetup_r+0x36>
   12b52: 26 85        	mv	a0, s1
   12b54: a2 85        	mv	a1, s0
   12b56: ef 20 90 72  	jal	0x15a7e <__smakebuf_r>
   12b5a: 83 17 04 01  	lh	a5, 0x10(s0)
   12b5e: 18 6c        	ld	a4, 0x18(s0)
   12b60: 93 f6 17 00  	andi	a3, a5, 0x1
   12b64: 85 c2        	beqz	a3, 0x12b84 <__swsetup_r+0xfc>
   12b66: 14 50        	lw	a3, 0x20(s0)
   12b68: 23 26 04 00  	sw	zero, 0xc(s0)
   12b6c: bb 06 d0 40  	negw	a3, a3
   12b70: 14 d4        	sw	a3, 0x28(s0)
   12b72: 59 d7        	beqz	a4, 0x12b00 <__swsetup_r+0x78>
   12b74: a9 b7        	j	0x12abe <__swsetup_r+0x36>
   12b76: 93 f6 27 00  	andi	a3, a5, 0x2
   12b7a: 99 ea        	bnez	a3, 0x12b90 <__swsetup_r+0x108>
   12b7c: 10 50        	lw	a2, 0x20(s0)
   12b7e: 50 c4        	sw	a2, 0xc(s0)
   12b80: 41 d3        	beqz	a4, 0x12b00 <__swsetup_r+0x78>
   12b82: 35 bf        	j	0x12abe <__swsetup_r+0x36>
   12b84: 93 f6 27 00  	andi	a3, a5, 0x2
   12b88: 01 46        	li	a2, 0x0
   12b8a: f5 fa        	bnez	a3, 0x12b7e <__swsetup_r+0xf6>
   12b8c: 10 50        	lw	a2, 0x20(s0)
   12b8e: c5 bf        	j	0x12b7e <__swsetup_r+0xf6>
   12b90: 23 26 04 00  	sw	zero, 0xc(s0)
   12b94: b5 b7        	j	0x12b00 <__swsetup_r+0x78>
   12b96: 25 47        	li	a4, 0x9
   12b98: 93 e7 07 04  	ori	a5, a5, 0x40
   12b9c: 98 c0        	sw	a4, 0x0(s1)
   12b9e: 23 18 f4 00  	sh	a5, 0x10(s0)
   12ba2: 7d 55        	li	a0, -0x1
   12ba4: 31 bf        	j	0x12ac0 <__swsetup_r+0x38>

0000000000012ba6 <__call_exitprocs>:
   12ba6: 1d 71        	addi	sp, sp, -0x60
   12ba8: 5a f0        	sd	s6, 0x20(sp)
   12baa: 13 8b 01 71  	addi	s6, gp, 0x710
   12bae: 56 f4        	sd	s5, 0x28(sp)
   12bb0: aa 8a        	mv	s5, a0
   12bb2: 03 35 0b 00  	ld	a0, 0x0(s6)
   12bb6: ca e0        	sd	s2, 0x40(sp)
   12bb8: 5e ec        	sd	s7, 0x18(sp)
   12bba: 66 e4        	sd	s9, 0x8(sp)
   12bbc: 86 ec        	sd	ra, 0x58(sp)
   12bbe: ae 8b        	mv	s7, a1
   12bc0: ef 20 10 6b  	jal	0x15a70 <__retarget_lock_acquire_recursive>
   12bc4: 83 bc 81 6f  	ld	s9, 0x6f8(gp)
   12bc8: 03 b9 8c 1f  	ld	s2, 0x1f8(s9)
   12bcc: 63 00 09 04  	beqz	s2, 0x12c0c <__call_exitprocs+0x66>
   12bd0: 4e fc        	sd	s3, 0x38(sp)
   12bd2: 52 f8        	sd	s4, 0x30(sp)
   12bd4: a2 e8        	sd	s0, 0x50(sp)
   12bd6: a6 e4        	sd	s1, 0x48(sp)
   12bd8: 62 e8        	sd	s8, 0x10(sp)
   12bda: fd 59        	li	s3, -0x1
   12bdc: 05 4a        	li	s4, 0x1
   12bde: 83 24 89 00  	lw	s1, 0x8(s2)
   12be2: 1b 84 f4 ff  	addiw	s0, s1, -0x1
   12be6: 63 4e 04 00  	bltz	s0, 0x12c02 <__call_exitprocs+0x5c>
   12bea: 8e 04        	slli	s1, s1, 0x3
   12bec: ca 94        	add	s1, s1, s2
   12bee: 63 8a 0b 02  	beqz	s7, 0x12c22 <__call_exitprocs+0x7c>
   12bf2: 83 b7 84 20  	ld	a5, 0x208(s1)
   12bf6: 63 86 77 03  	beq	a5, s7, 0x12c22 <__call_exitprocs+0x7c>
   12bfa: 7d 34        	addiw	s0, s0, -0x1
   12bfc: e1 14        	addi	s1, s1, -0x8
   12bfe: e3 1a 34 ff  	bne	s0, s3, 0x12bf2 <__call_exitprocs+0x4c>
   12c02: 46 64        	ld	s0, 0x50(sp)
   12c04: a6 64        	ld	s1, 0x48(sp)
   12c06: e2 79        	ld	s3, 0x38(sp)
   12c08: 42 7a        	ld	s4, 0x30(sp)
   12c0a: 42 6c        	ld	s8, 0x10(sp)
   12c0c: 03 35 0b 00  	ld	a0, 0x0(s6)
   12c10: e6 60        	ld	ra, 0x58(sp)
   12c12: 06 69        	ld	s2, 0x40(sp)
   12c14: a2 7a        	ld	s5, 0x28(sp)
   12c16: 02 7b        	ld	s6, 0x20(sp)
   12c18: e2 6b        	ld	s7, 0x18(sp)
   12c1a: a2 6c        	ld	s9, 0x8(sp)
   12c1c: 25 61        	addi	sp, sp, 0x60
   12c1e: 6f 20 f0 65  	j	0x15a7c <__retarget_lock_release_recursive>
   12c22: 83 27 89 00  	lw	a5, 0x8(s2)
   12c26: 94 64        	ld	a3, 0x8(s1)
   12c28: fd 37        	addiw	a5, a5, -0x1
   12c2a: 63 8c 87 04  	beq	a5, s0, 0x12c82 <__call_exitprocs+0xdc>
   12c2e: 23 b4 04 00  	sd	zero, 0x8(s1)
   12c32: 95 c2        	beqz	a3, 0x12c56 <__call_exitprocs+0xb0>
   12c34: 83 27 09 31  	lw	a5, 0x310(s2)
   12c38: 3b 17 8a 00  	sllw	a4, s4, s0
   12c3c: 03 2c 89 00  	lw	s8, 0x8(s2)
   12c40: f9 8f        	and	a5, a5, a4
   12c42: 99 ef        	bnez	a5, 0x12c60 <__call_exitprocs+0xba>
   12c44: 82 96        	jalr	a3
   12c46: 83 27 89 00  	lw	a5, 0x8(s2)
   12c4a: 63 97 87 03  	bne	a5, s8, 0x12c78 <__call_exitprocs+0xd2>
   12c4e: 83 b7 8c 1f  	ld	a5, 0x1f8(s9)
   12c52: 63 93 27 03  	bne	a5, s2, 0x12c78 <__call_exitprocs+0xd2>
   12c56: 7d 34        	addiw	s0, s0, -0x1
   12c58: e1 14        	addi	s1, s1, -0x8
   12c5a: e3 1a 34 f9  	bne	s0, s3, 0x12bee <__call_exitprocs+0x48>
   12c5e: 55 b7        	j	0x12c02 <__call_exitprocs+0x5c>
   12c60: 83 27 49 31  	lw	a5, 0x314(s2)
   12c64: 83 b5 84 10  	ld	a1, 0x108(s1)
   12c68: 7d 8f        	and	a4, a4, a5
   12c6a: 19 ef        	bnez	a4, 0x12c88 <__call_exitprocs+0xe2>
   12c6c: 56 85        	mv	a0, s5
   12c6e: 82 96        	jalr	a3
   12c70: 83 27 89 00  	lw	a5, 0x8(s2)
   12c74: e3 8d 87 fd  	beq	a5, s8, 0x12c4e <__call_exitprocs+0xa8>
   12c78: 03 b9 8c 1f  	ld	s2, 0x1f8(s9)
   12c7c: e3 11 09 f6  	bnez	s2, 0x12bde <__call_exitprocs+0x38>
   12c80: 49 b7        	j	0x12c02 <__call_exitprocs+0x5c>
   12c82: 23 24 89 00  	sw	s0, 0x8(s2)
   12c86: 75 b7        	j	0x12c32 <__call_exitprocs+0x8c>
   12c88: 2e 85        	mv	a0, a1
   12c8a: 82 96        	jalr	a3
   12c8c: 6d bf        	j	0x12c46 <__call_exitprocs+0xa0>

0000000000012c8e <atexit>:
   12c8e: aa 85        	mv	a1, a0
   12c90: 81 46        	li	a3, 0x0
   12c92: 01 46        	li	a2, 0x0
   12c94: 01 45        	li	a0, 0x0
   12c96: 6f 70 f0 29  	j	0x1a734 <__register_exitproc>

0000000000012c9a <__sflush_r>:
   12c9a: 03 97 05 01  	lh	a4, 0x10(a1)
   12c9e: 79 71        	addi	sp, sp, -0x30
   12ca0: 22 f0        	sd	s0, 0x20(sp)
   12ca2: 4e e4        	sd	s3, 0x8(sp)
   12ca4: 06 f4        	sd	ra, 0x28(sp)
   12ca6: 93 77 87 00  	andi	a5, a4, 0x8
   12caa: 2e 84        	mv	s0, a1
   12cac: aa 89        	mv	s3, a0
   12cae: e1 e7        	bnez	a5, 0x12d76 <__sflush_r+0xdc>
   12cb0: 85 67        	lui	a5, 0x1
   12cb2: 93 87 07 80  	addi	a5, a5, -0x800
   12cb6: 94 45        	lw	a3, 0x8(a1)
   12cb8: d9 8f        	or	a5, a5, a4
   12cba: 23 98 f5 00  	sh	a5, 0x10(a1)
   12cbe: 63 59 d0 10  	blez	a3, 0x12dd0 <__sflush_r+0x136>
   12cc2: 03 38 84 04  	ld	a6, 0x48(s0)
   12cc6: 63 02 08 0a  	beqz	a6, 0x12d6a <__sflush_r+0xd0>
   12cca: 26 ec        	sd	s1, 0x18(sp)
   12ccc: 93 16 37 03  	slli	a3, a4, 0x33
   12cd0: 83 a4 09 00  	lw	s1, 0x0(s3)
   12cd4: 23 a0 09 00  	sw	zero, 0x0(s3)
   12cd8: 63 c3 06 10  	bltz	a3, 0x12dde <__sflush_r+0x144>
   12cdc: 0c 78        	ld	a1, 0x30(s0)
   12cde: 01 46        	li	a2, 0x0
   12ce0: 85 46        	li	a3, 0x1
   12ce2: 4e 85        	mv	a0, s3
   12ce4: 02 98        	jalr	a6
   12ce6: fd 57        	li	a5, -0x1
   12ce8: 2a 86        	mv	a2, a0
   12cea: 63 01 f5 12  	beq	a0, a5, 0x12e0c <__sflush_r+0x172>
   12cee: 83 17 04 01  	lh	a5, 0x10(s0)
   12cf2: 03 38 84 04  	ld	a6, 0x48(s0)
   12cf6: 91 8b        	andi	a5, a5, 0x4
   12cf8: 99 c7        	beqz	a5, 0x12d06 <__sflush_r+0x6c>
   12cfa: 18 44        	lw	a4, 0x8(s0)
   12cfc: 3c 6c        	ld	a5, 0x58(s0)
   12cfe: 19 8e        	sub	a2, a2, a4
   12d00: 99 c3        	beqz	a5, 0x12d06 <__sflush_r+0x6c>
   12d02: 3c 58        	lw	a5, 0x70(s0)
   12d04: 1d 8e        	sub	a2, a2, a5
   12d06: 0c 78        	ld	a1, 0x30(s0)
   12d08: 81 46        	li	a3, 0x0
   12d0a: 4e 85        	mv	a0, s3
   12d0c: 02 98        	jalr	a6
   12d0e: 7d 57        	li	a4, -0x1
   12d10: 83 17 04 01  	lh	a5, 0x10(s0)
   12d14: 63 17 e5 0c  	bne	a0, a4, 0x12de2 <__sflush_r+0x148>
   12d18: 83 a6 09 00  	lw	a3, 0x0(s3)
   12d1c: 75 47        	li	a4, 0x1d
   12d1e: 63 63 d7 10  	bltu	a4, a3, 0x12e24 <__sflush_r+0x18a>
   12d22: 37 07 40 20  	lui	a4, 0x20400
   12d26: 05 07        	addi	a4, a4, 0x1
   12d28: 33 57 d7 00  	srl	a4, a4, a3
   12d2c: 05 8b        	andi	a4, a4, 0x1
   12d2e: 7d cb        	beqz	a4, 0x12e24 <__sflush_r+0x18a>
   12d30: 10 6c        	ld	a2, 0x18(s0)
   12d32: 7d 77        	lui	a4, 0xfffff
   12d34: 13 07 f7 7f  	addi	a4, a4, 0x7ff
   12d38: 7d 8f        	and	a4, a4, a5
   12d3a: 23 18 e4 00  	sh	a4, 0x10(s0)
   12d3e: 23 24 04 00  	sw	zero, 0x8(s0)
   12d42: 10 e0        	sd	a2, 0x0(s0)
   12d44: 13 97 37 03  	slli	a4, a5, 0x33
   12d48: 63 53 07 00  	bgez	a4, 0x12d4e <__sflush_r+0xb4>
   12d4c: cd ca        	beqz	a3, 0x12dfe <__sflush_r+0x164>
   12d4e: 2c 6c        	ld	a1, 0x58(s0)
   12d50: 23 a0 99 00  	sw	s1, 0x0(s3)
   12d54: d5 c9        	beqz	a1, 0x12e08 <__sflush_r+0x16e>
   12d56: 93 07 44 07  	addi	a5, s0, 0x74
   12d5a: 63 85 f5 00  	beq	a1, a5, 0x12d64 <__sflush_r+0xca>
   12d5e: 4e 85        	mv	a0, s3
   12d60: ef 00 e0 63  	jal	0x1339e <_free_r>
   12d64: e2 64        	ld	s1, 0x18(sp)
   12d66: 23 3c 04 04  	sd	zero, 0x58(s0)
   12d6a: a2 70        	ld	ra, 0x28(sp)
   12d6c: 02 74        	ld	s0, 0x20(sp)
   12d6e: a2 69        	ld	s3, 0x8(sp)
   12d70: 01 45        	li	a0, 0x0
   12d72: 45 61        	addi	sp, sp, 0x30
   12d74: 82 80        	ret
   12d76: 4a e8        	sd	s2, 0x10(sp)
   12d78: 03 b9 85 01  	ld	s2, 0x18(a1)
   12d7c: 63 0f 09 04  	beqz	s2, 0x12dda <__sflush_r+0x140>
   12d80: 26 ec        	sd	s1, 0x18(sp)
   12d82: 84 61        	ld	s1, 0x0(a1)
   12d84: 0d 8b        	andi	a4, a4, 0x3
   12d86: 23 b0 25 01  	sd	s2, 0x0(a1)
   12d8a: bb 84 24 41  	subw	s1, s1, s2
   12d8e: 81 47        	li	a5, 0x0
   12d90: 11 e3        	bnez	a4, 0x12d94 <__sflush_r+0xfa>
   12d92: 9c 51        	lw	a5, 0x20(a1)
   12d94: 5c c4        	sw	a5, 0xc(s0)
   12d96: 63 46 90 00  	bgtz	s1, 0x12da2 <__sflush_r+0x108>
   12d9a: 3d a8        	j	0x12dd8 <__sflush_r+0x13e>
   12d9c: 2a 99        	add	s2, s2, a0
   12d9e: 63 5d 90 02  	blez	s1, 0x12dd8 <__sflush_r+0x13e>
   12da2: 3c 60        	ld	a5, 0x40(s0)
   12da4: 0c 78        	ld	a1, 0x30(s0)
   12da6: a6 86        	mv	a3, s1
   12da8: 4a 86        	mv	a2, s2
   12daa: 4e 85        	mv	a0, s3
   12dac: 82 97        	jalr	a5
   12dae: 89 9c        	subw	s1, s1, a0
   12db0: e3 46 a0 fe  	bgtz	a0, 0x12d9c <__sflush_r+0x102>
   12db4: 83 17 04 01  	lh	a5, 0x10(s0)
   12db8: 42 69        	ld	s2, 0x10(sp)
   12dba: 93 e7 07 04  	ori	a5, a5, 0x40
   12dbe: a2 70        	ld	ra, 0x28(sp)
   12dc0: 23 18 f4 00  	sh	a5, 0x10(s0)
   12dc4: 02 74        	ld	s0, 0x20(sp)
   12dc6: e2 64        	ld	s1, 0x18(sp)
   12dc8: a2 69        	ld	s3, 0x8(sp)
   12dca: 7d 55        	li	a0, -0x1
   12dcc: 45 61        	addi	sp, sp, 0x30
   12dce: 82 80        	ret
   12dd0: b4 59        	lw	a3, 0x70(a1)
   12dd2: e3 48 d0 ee  	bgtz	a3, 0x12cc2 <__sflush_r+0x28>
   12dd6: 51 bf        	j	0x12d6a <__sflush_r+0xd0>
   12dd8: e2 64        	ld	s1, 0x18(sp)
   12dda: 42 69        	ld	s2, 0x10(sp)
   12ddc: 79 b7        	j	0x12d6a <__sflush_r+0xd0>
   12dde: 50 68        	ld	a2, 0x90(s0)
   12de0: 19 bf        	j	0x12cf6 <__sflush_r+0x5c>
   12de2: 14 6c        	ld	a3, 0x18(s0)
   12de4: 7d 77        	lui	a4, 0xfffff
   12de6: 13 07 f7 7f  	addi	a4, a4, 0x7ff
   12dea: 7d 8f        	and	a4, a4, a5
   12dec: 23 18 e4 00  	sh	a4, 0x10(s0)
   12df0: 23 24 04 00  	sw	zero, 0x8(s0)
   12df4: 14 e0        	sd	a3, 0x0(s0)
   12df6: 13 97 37 03  	slli	a4, a5, 0x33
   12dfa: e3 5a 07 f4  	bgez	a4, 0x12d4e <__sflush_r+0xb4>
   12dfe: 2c 6c        	ld	a1, 0x58(s0)
   12e00: 48 e8        	sd	a0, 0x90(s0)
   12e02: 23 a0 99 00  	sw	s1, 0x0(s3)
   12e06: a1 f9        	bnez	a1, 0x12d56 <__sflush_r+0xbc>
   12e08: e2 64        	ld	s1, 0x18(sp)
   12e0a: 85 b7        	j	0x12d6a <__sflush_r+0xd0>
   12e0c: 83 a7 09 00  	lw	a5, 0x0(s3)
   12e10: e3 8f 07 ec  	beqz	a5, 0x12cee <__sflush_r+0x54>
   12e14: 75 47        	li	a4, 0x1d
   12e16: 63 8a e7 00  	beq	a5, a4, 0x12e2a <__sflush_r+0x190>
   12e1a: 59 47        	li	a4, 0x16
   12e1c: 63 87 e7 00  	beq	a5, a4, 0x12e2a <__sflush_r+0x190>
   12e20: 83 17 04 01  	lh	a5, 0x10(s0)
   12e24: 93 e7 07 04  	ori	a5, a5, 0x40
   12e28: 59 bf        	j	0x12dbe <__sflush_r+0x124>
   12e2a: 23 a0 99 00  	sw	s1, 0x0(s3)
   12e2e: e2 64        	ld	s1, 0x18(sp)
   12e30: 2d bf        	j	0x12d6a <__sflush_r+0xd0>

0000000000012e32 <_fflush_r>:
   12e32: 01 11        	addi	sp, sp, -0x20
   12e34: 22 e8        	sd	s0, 0x10(sp)
   12e36: 26 e4        	sd	s1, 0x8(sp)
   12e38: 06 ec        	sd	ra, 0x18(sp)
   12e3a: 4a e0        	sd	s2, 0x0(sp)
   12e3c: aa 84        	mv	s1, a0
   12e3e: 2e 84        	mv	s0, a1
   12e40: 19 c1        	beqz	a0, 0x12e46 <_fflush_r+0x14>
   12e42: 3c 49        	lw	a5, 0x50(a0)
   12e44: a9 c3        	beqz	a5, 0x12e86 <_fflush_r+0x54>
   12e46: 83 17 04 01  	lh	a5, 0x10(s0)
   12e4a: 01 49        	li	s2, 0x0
   12e4c: 95 c7        	beqz	a5, 0x12e78 <_fflush_r+0x46>
   12e4e: 03 27 04 0b  	lw	a4, 0xb0(s0)
   12e52: 05 8b        	andi	a4, a4, 0x1
   12e54: 01 e7        	bnez	a4, 0x12e5c <_fflush_r+0x2a>
   12e56: 93 f7 07 20  	andi	a5, a5, 0x200
   12e5a: 8d cb        	beqz	a5, 0x12e8c <_fflush_r+0x5a>
   12e5c: 26 85        	mv	a0, s1
   12e5e: a2 85        	mv	a1, s0
   12e60: ef f0 bf e3  	jal	0x12c9a <__sflush_r>
   12e64: 83 27 04 0b  	lw	a5, 0xb0(s0)
   12e68: 2a 89        	mv	s2, a0
   12e6a: 85 8b        	andi	a5, a5, 0x1
   12e6c: 91 e7        	bnez	a5, 0x12e78 <_fflush_r+0x46>
   12e6e: 83 57 04 01  	lhu	a5, 0x10(s0)
   12e72: 93 f7 07 20  	andi	a5, a5, 0x200
   12e76: 85 cb        	beqz	a5, 0x12ea6 <_fflush_r+0x74>
   12e78: e2 60        	ld	ra, 0x18(sp)
   12e7a: 42 64        	ld	s0, 0x10(sp)
   12e7c: a2 64        	ld	s1, 0x8(sp)
   12e7e: 4a 85        	mv	a0, s2
   12e80: 02 69        	ld	s2, 0x0(sp)
   12e82: 05 61        	addi	sp, sp, 0x20
   12e84: 82 80        	ret
   12e86: ef 00 a0 16  	jal	0x12ff0 <__sinit>
   12e8a: 75 bf        	j	0x12e46 <_fflush_r+0x14>
   12e8c: 48 70        	ld	a0, 0xa0(s0)
   12e8e: ef 20 30 3e  	jal	0x15a70 <__retarget_lock_acquire_recursive>
   12e92: 26 85        	mv	a0, s1
   12e94: a2 85        	mv	a1, s0
   12e96: ef f0 5f e0  	jal	0x12c9a <__sflush_r>
   12e9a: 83 27 04 0b  	lw	a5, 0xb0(s0)
   12e9e: 2a 89        	mv	s2, a0
   12ea0: 85 8b        	andi	a5, a5, 0x1
   12ea2: f9 fb        	bnez	a5, 0x12e78 <_fflush_r+0x46>
   12ea4: e9 b7        	j	0x12e6e <_fflush_r+0x3c>
   12ea6: 48 70        	ld	a0, 0xa0(s0)
   12ea8: ef 20 50 3d  	jal	0x15a7c <__retarget_lock_release_recursive>
   12eac: e2 60        	ld	ra, 0x18(sp)
   12eae: 42 64        	ld	s0, 0x10(sp)
   12eb0: a2 64        	ld	s1, 0x8(sp)
   12eb2: 4a 85        	mv	a0, s2
   12eb4: 02 69        	ld	s2, 0x0(sp)
   12eb6: 05 61        	addi	sp, sp, 0x20
   12eb8: 82 80        	ret

0000000000012eba <fflush>:
   12eba: 35 c9        	beqz	a0, 0x12f2e <fflush+0x74>
   12ebc: 01 11        	addi	sp, sp, -0x20
   12ebe: 4a e0        	sd	s2, 0x0(sp)
   12ec0: 03 b9 81 70  	ld	s2, 0x708(gp)
   12ec4: 22 e8        	sd	s0, 0x10(sp)
   12ec6: 06 ec        	sd	ra, 0x18(sp)
   12ec8: 26 e4        	sd	s1, 0x8(sp)
   12eca: 2a 84        	mv	s0, a0
   12ecc: 63 05 09 00  	beqz	s2, 0x12ed6 <fflush+0x1c>
   12ed0: 83 27 09 05  	lw	a5, 0x50(s2)
   12ed4: a9 c3        	beqz	a5, 0x12f16 <fflush+0x5c>
   12ed6: 83 17 04 01  	lh	a5, 0x10(s0)
   12eda: 81 44        	li	s1, 0x0
   12edc: 95 c7        	beqz	a5, 0x12f08 <fflush+0x4e>
   12ede: 03 27 04 0b  	lw	a4, 0xb0(s0)
   12ee2: 05 8b        	andi	a4, a4, 0x1
   12ee4: 01 e7        	bnez	a4, 0x12eec <fflush+0x32>
   12ee6: 93 f7 07 20  	andi	a5, a5, 0x200
   12eea: 95 cb        	beqz	a5, 0x12f1e <fflush+0x64>
   12eec: 4a 85        	mv	a0, s2
   12eee: a2 85        	mv	a1, s0
   12ef0: ef f0 bf da  	jal	0x12c9a <__sflush_r>
   12ef4: 83 27 04 0b  	lw	a5, 0xb0(s0)
   12ef8: aa 84        	mv	s1, a0
   12efa: 85 8b        	andi	a5, a5, 0x1
   12efc: 91 e7        	bnez	a5, 0x12f08 <fflush+0x4e>
   12efe: 83 57 04 01  	lhu	a5, 0x10(s0)
   12f02: 93 f7 07 20  	andi	a5, a5, 0x200
   12f06: 85 c3        	beqz	a5, 0x12f26 <fflush+0x6c>
   12f08: e2 60        	ld	ra, 0x18(sp)
   12f0a: 42 64        	ld	s0, 0x10(sp)
   12f0c: 02 69        	ld	s2, 0x0(sp)
   12f0e: 26 85        	mv	a0, s1
   12f10: a2 64        	ld	s1, 0x8(sp)
   12f12: 05 61        	addi	sp, sp, 0x20
   12f14: 82 80        	ret
   12f16: 4a 85        	mv	a0, s2
   12f18: ef 00 80 0d  	jal	0x12ff0 <__sinit>
   12f1c: 6d bf        	j	0x12ed6 <fflush+0x1c>
   12f1e: 48 70        	ld	a0, 0xa0(s0)
   12f20: ef 20 10 35  	jal	0x15a70 <__retarget_lock_acquire_recursive>
   12f24: e1 b7        	j	0x12eec <fflush+0x32>
   12f26: 48 70        	ld	a0, 0xa0(s0)
   12f28: ef 20 50 35  	jal	0x15a7c <__retarget_lock_release_recursive>
   12f2c: f1 bf        	j	0x12f08 <fflush+0x4e>
   12f2e: 03 b5 81 6f  	ld	a0, 0x6f8(gp)
   12f32: 97 05 00 00  	auipc	a1, 0x0
   12f36: 93 85 05 f0  	addi	a1, a1, -0x100
   12f3a: 6f 00 20 72  	j	0x1365c <_fwalk_reent>

0000000000012f3e <_cleanup_r>:
   12f3e: 97 85 00 00  	auipc	a1, 0x8
   12f42: 93 85 c5 99  	addi	a1, a1, -0x664
   12f46: 6f 00 60 71  	j	0x1365c <_fwalk_reent>

0000000000012f4a <__fp_lock>:
   12f4a: 83 27 05 0b  	lw	a5, 0xb0(a0)
   12f4e: 85 8b        	andi	a5, a5, 0x1
   12f50: 91 e7        	bnez	a5, 0x12f5c <__fp_lock+0x12>
   12f52: 83 57 05 01  	lhu	a5, 0x10(a0)
   12f56: 93 f7 07 20  	andi	a5, a5, 0x200
   12f5a: 99 c3        	beqz	a5, 0x12f60 <__fp_lock+0x16>
   12f5c: 01 45        	li	a0, 0x0
   12f5e: 82 80        	ret
   12f60: 48 71        	ld	a0, 0xa0(a0)
   12f62: 41 11        	addi	sp, sp, -0x10
   12f64: 06 e4        	sd	ra, 0x8(sp)
   12f66: ef 20 b0 30  	jal	0x15a70 <__retarget_lock_acquire_recursive>
   12f6a: a2 60        	ld	ra, 0x8(sp)
   12f6c: 01 45        	li	a0, 0x0
   12f6e: 41 01        	addi	sp, sp, 0x10
   12f70: 82 80        	ret

0000000000012f72 <__fp_unlock>:
   12f72: 83 27 05 0b  	lw	a5, 0xb0(a0)
   12f76: 85 8b        	andi	a5, a5, 0x1
   12f78: 91 e7        	bnez	a5, 0x12f84 <__fp_unlock+0x12>
   12f7a: 83 57 05 01  	lhu	a5, 0x10(a0)
   12f7e: 93 f7 07 20  	andi	a5, a5, 0x200
   12f82: 99 c3        	beqz	a5, 0x12f88 <__fp_unlock+0x16>
   12f84: 01 45        	li	a0, 0x0
   12f86: 82 80        	ret
   12f88: 48 71        	ld	a0, 0xa0(a0)
   12f8a: 41 11        	addi	sp, sp, -0x10
   12f8c: 06 e4        	sd	ra, 0x8(sp)
   12f8e: ef 20 f0 2e  	jal	0x15a7c <__retarget_lock_release_recursive>
   12f92: a2 60        	ld	ra, 0x8(sp)
   12f94: 01 45        	li	a0, 0x0
   12f96: 41 01        	addi	sp, sp, 0x10
   12f98: 82 80        	ret

0000000000012f9a <__sfmoreglue>:
   12f9a: 01 11        	addi	sp, sp, -0x20
   12f9c: 26 e4        	sd	s1, 0x8(sp)
   12f9e: 93 07 80 0b  	li	a5, 0xb8
   12fa2: 9b 84 f5 ff  	addiw	s1, a1, -0x1
   12fa6: b3 84 f4 02  	mul	s1, s1, a5
   12faa: 4a e0        	sd	s2, 0x0(sp)
   12fac: 2e 89        	mv	s2, a1
   12fae: 22 e8        	sd	s0, 0x10(sp)
   12fb0: 06 ec        	sd	ra, 0x18(sp)
   12fb2: 93 85 04 0d  	addi	a1, s1, 0xd0
   12fb6: ef 20 30 46  	jal	0x15c18 <_malloc_r>
   12fba: 2a 84        	mv	s0, a0
   12fbc: 01 cd        	beqz	a0, 0x12fd4 <__sfmoreglue+0x3a>
   12fbe: 61 05        	addi	a0, a0, 0x18
   12fc0: 23 30 04 00  	sd	zero, 0x0(s0)
   12fc4: 23 24 24 01  	sw	s2, 0x8(s0)
   12fc8: 13 86 84 0b  	addi	a2, s1, 0xb8
   12fcc: 08 e8        	sd	a0, 0x10(s0)
   12fce: 81 45        	li	a1, 0x0
   12fd0: ef d0 0f ea  	jal	0x10670 <memset>
   12fd4: e2 60        	ld	ra, 0x18(sp)
   12fd6: 22 85        	mv	a0, s0
   12fd8: 42 64        	ld	s0, 0x10(sp)
   12fda: a2 64        	ld	s1, 0x8(sp)
   12fdc: 02 69        	ld	s2, 0x0(sp)
   12fde: 05 61        	addi	sp, sp, 0x20
   12fe0: 82 80        	ret

0000000000012fe2 <_cleanup>:
   12fe2: 03 b5 81 6f  	ld	a0, 0x6f8(gp)
   12fe6: 97 85 00 00  	auipc	a1, 0x8
   12fea: 93 85 45 8f  	addi	a1, a1, -0x70c
   12fee: bd a5        	j	0x1365c <_fwalk_reent>

0000000000012ff0 <__sinit>:
   12ff0: 39 71        	addi	sp, sp, -0x40
   12ff2: 26 f4        	sd	s1, 0x28(sp)
   12ff4: aa 84        	mv	s1, a0
   12ff6: 13 85 81 76  	addi	a0, gp, 0x768
   12ffa: 06 fc        	sd	ra, 0x38(sp)
   12ffc: ef 20 50 27  	jal	0x15a70 <__retarget_lock_acquire_recursive>
   13000: bc 48        	lw	a5, 0x50(s1)
   13002: 13 85 81 76  	addi	a0, gp, 0x768
   13006: 63 97 07 12  	bnez	a5, 0x13134 <__sinit+0x144>
   1300a: 22 f8        	sd	s0, 0x30(sp)
   1300c: 80 64        	ld	s0, 0x8(s1)
   1300e: 4a f0        	sd	s2, 0x20(sp)
   13010: 4e ec        	sd	s3, 0x18(sp)
   13012: 52 e8        	sd	s4, 0x10(sp)
   13014: 56 e4        	sd	s5, 0x8(sp)
   13016: 97 06 00 00  	auipc	a3, 0x0
   1301a: 93 86 86 f2  	addi	a3, a3, -0xd8
   1301e: 0d 47        	li	a4, 0x3
   13020: 93 87 84 53  	addi	a5, s1, 0x538
   13024: b4 ec        	sd	a3, 0x58(s1)
   13026: 23 a4 e4 52  	sw	a4, 0x528(s1)
   1302a: 23 b8 f4 52  	sd	a5, 0x530(s1)
   1302e: 23 b0 04 52  	sd	zero, 0x520(s1)
   13032: 91 47        	li	a5, 0x4
   13034: 1c c8        	sw	a5, 0x10(s0)
   13036: 21 46        	li	a2, 0x8
   13038: 81 45        	li	a1, 0x0
   1303a: 23 30 04 00  	sd	zero, 0x0(s0)
   1303e: 23 34 04 00  	sd	zero, 0x8(s0)
   13042: 23 28 04 0a  	sw	zero, 0xb0(s0)
   13046: 23 3c 04 00  	sd	zero, 0x18(s0)
   1304a: 23 20 04 02  	sw	zero, 0x20(s0)
   1304e: 23 24 04 02  	sw	zero, 0x28(s0)
   13052: 13 05 84 0a  	addi	a0, s0, 0xa8
   13056: ef d0 af e1  	jal	0x10670 <memset>
   1305a: 97 4a 00 00  	auipc	s5, 0x4
   1305e: 93 8a aa 21  	addi	s5, s5, 0x21a
   13062: 17 4a 00 00  	auipc	s4, 0x4
   13066: 13 0a ea 24  	addi	s4, s4, 0x24e
   1306a: 97 49 00 00  	auipc	s3, 0x4
   1306e: 93 89 a9 29  	addi	s3, s3, 0x29a
   13072: 17 49 00 00  	auipc	s2, 0x4
   13076: 13 09 09 2d  	addi	s2, s2, 0x2d0
   1307a: 23 3c 54 03  	sd	s5, 0x38(s0)
   1307e: 23 30 44 05  	sd	s4, 0x40(s0)
   13082: 23 34 34 05  	sd	s3, 0x48(s0)
   13086: 23 38 24 05  	sd	s2, 0x50(s0)
   1308a: 13 05 04 0a  	addi	a0, s0, 0xa0
   1308e: 00 f8        	sd	s0, 0x30(s0)
   13090: ef 20 90 1d  	jal	0x15a68 <__retarget_lock_init_recursive>
   13094: 80 68        	ld	s0, 0x10(s1)
   13096: c1 67        	lui	a5, 0x10
   13098: a5 07        	addi	a5, a5, 0x9
   1309a: 1c c8        	sw	a5, 0x10(s0)
   1309c: 21 46        	li	a2, 0x8
   1309e: 81 45        	li	a1, 0x0
   130a0: 23 30 04 00  	sd	zero, 0x0(s0)
   130a4: 23 34 04 00  	sd	zero, 0x8(s0)
   130a8: 23 28 04 0a  	sw	zero, 0xb0(s0)
   130ac: 23 3c 04 00  	sd	zero, 0x18(s0)
   130b0: 23 20 04 02  	sw	zero, 0x20(s0)
   130b4: 23 24 04 02  	sw	zero, 0x28(s0)
   130b8: 13 05 84 0a  	addi	a0, s0, 0xa8
   130bc: ef d0 4f db  	jal	0x10670 <memset>
   130c0: 13 05 04 0a  	addi	a0, s0, 0xa0
   130c4: 23 3c 54 03  	sd	s5, 0x38(s0)
   130c8: 23 30 44 05  	sd	s4, 0x40(s0)
   130cc: 23 34 34 05  	sd	s3, 0x48(s0)
   130d0: 23 38 24 05  	sd	s2, 0x50(s0)
   130d4: 00 f8        	sd	s0, 0x30(s0)
   130d6: ef 20 30 19  	jal	0x15a68 <__retarget_lock_init_recursive>
   130da: 80 6c        	ld	s0, 0x18(s1)
   130dc: b7 07 02 00  	lui	a5, 0x20
   130e0: c9 07        	addi	a5, a5, 0x12
   130e2: 1c c8        	sw	a5, 0x10(s0)
   130e4: 23 30 04 00  	sd	zero, 0x0(s0)
   130e8: 23 34 04 00  	sd	zero, 0x8(s0)
   130ec: 23 28 04 0a  	sw	zero, 0xb0(s0)
   130f0: 23 3c 04 00  	sd	zero, 0x18(s0)
   130f4: 23 20 04 02  	sw	zero, 0x20(s0)
   130f8: 23 24 04 02  	sw	zero, 0x28(s0)
   130fc: 13 05 84 0a  	addi	a0, s0, 0xa8
   13100: 21 46        	li	a2, 0x8
   13102: 81 45        	li	a1, 0x0
   13104: ef d0 cf d6  	jal	0x10670 <memset>
   13108: 13 05 04 0a  	addi	a0, s0, 0xa0
   1310c: 23 3c 54 03  	sd	s5, 0x38(s0)
   13110: 23 30 44 05  	sd	s4, 0x40(s0)
   13114: 23 34 34 05  	sd	s3, 0x48(s0)
   13118: 23 38 24 05  	sd	s2, 0x50(s0)
   1311c: 00 f8        	sd	s0, 0x30(s0)
   1311e: ef 20 b0 14  	jal	0x15a68 <__retarget_lock_init_recursive>
   13122: 42 74        	ld	s0, 0x30(sp)
   13124: 02 79        	ld	s2, 0x20(sp)
   13126: e2 69        	ld	s3, 0x18(sp)
   13128: 42 6a        	ld	s4, 0x10(sp)
   1312a: a2 6a        	ld	s5, 0x8(sp)
   1312c: 85 47        	li	a5, 0x1
   1312e: bc c8        	sw	a5, 0x50(s1)
   13130: 13 85 81 76  	addi	a0, gp, 0x768
   13134: e2 70        	ld	ra, 0x38(sp)
   13136: a2 74        	ld	s1, 0x28(sp)
   13138: 21 61        	addi	sp, sp, 0x40
   1313a: 6f 20 30 14  	j	0x15a7c <__retarget_lock_release_recursive>

000000000001313e <__sfp>:
   1313e: 79 71        	addi	sp, sp, -0x30
   13140: 4a e8        	sd	s2, 0x10(sp)
   13142: 2a 89        	mv	s2, a0
   13144: 13 85 01 76  	addi	a0, gp, 0x760
   13148: 26 ec        	sd	s1, 0x18(sp)
   1314a: 06 f4        	sd	ra, 0x28(sp)
   1314c: 22 f0        	sd	s0, 0x20(sp)
   1314e: 4e e4        	sd	s3, 0x8(sp)
   13150: ef 20 10 12  	jal	0x15a70 <__retarget_lock_acquire_recursive>
   13154: 83 b4 81 6f  	ld	s1, 0x6f8(gp)
   13158: bc 48        	lw	a5, 0x50(s1)
   1315a: d9 c7        	beqz	a5, 0x131e8 <__sfp+0xaa>
   1315c: 93 84 04 52  	addi	s1, s1, 0x520
   13160: 93 09 80 0b  	li	s3, 0xb8
   13164: 98 44        	lw	a4, 0x8(s1)
   13166: 80 68        	ld	s0, 0x10(s1)
   13168: 63 5c e0 06  	blez	a4, 0x131e0 <__sfp+0xa2>
   1316c: 02 17        	slli	a4, a4, 0x20
   1316e: 01 93        	srli	a4, a4, 0x20
   13170: 33 07 37 03  	mul	a4, a4, s3
   13174: 22 97        	add	a4, a4, s0
   13176: 29 a0        	j	0x13180 <__sfp+0x42>
   13178: 13 04 84 0b  	addi	s0, s0, 0xb8
   1317c: 63 02 e4 06  	beq	s0, a4, 0x131e0 <__sfp+0xa2>
   13180: 83 17 04 01  	lh	a5, 0x10(s0)
   13184: f5 fb        	bnez	a5, 0x13178 <__sfp+0x3a>
   13186: c1 77        	lui	a5, 0xffff0
   13188: 85 07        	addi	a5, a5, 0x1
   1318a: 1c c8        	sw	a5, 0x10(s0)
   1318c: 13 05 04 0a  	addi	a0, s0, 0xa0
   13190: 23 28 04 0a  	sw	zero, 0xb0(s0)
   13194: ef 20 50 0d  	jal	0x15a68 <__retarget_lock_init_recursive>
   13198: 13 85 01 76  	addi	a0, gp, 0x760
   1319c: ef 20 10 0e  	jal	0x15a7c <__retarget_lock_release_recursive>
   131a0: 13 05 84 0a  	addi	a0, s0, 0xa8
   131a4: 23 30 04 00  	sd	zero, 0x0(s0)
   131a8: 23 34 04 00  	sd	zero, 0x8(s0)
   131ac: 23 3c 04 00  	sd	zero, 0x18(s0)
   131b0: 23 20 04 02  	sw	zero, 0x20(s0)
   131b4: 23 24 04 02  	sw	zero, 0x28(s0)
   131b8: 21 46        	li	a2, 0x8
   131ba: 81 45        	li	a1, 0x0
   131bc: ef d0 4f cb  	jal	0x10670 <memset>
   131c0: 23 3c 04 04  	sd	zero, 0x58(s0)
   131c4: 23 20 04 06  	sw	zero, 0x60(s0)
   131c8: 23 3c 04 06  	sd	zero, 0x78(s0)
   131cc: 23 20 04 08  	sw	zero, 0x80(s0)
   131d0: a2 70        	ld	ra, 0x28(sp)
   131d2: 22 85        	mv	a0, s0
   131d4: 02 74        	ld	s0, 0x20(sp)
   131d6: e2 64        	ld	s1, 0x18(sp)
   131d8: 42 69        	ld	s2, 0x10(sp)
   131da: a2 69        	ld	s3, 0x8(sp)
   131dc: 45 61        	addi	sp, sp, 0x30
   131de: 82 80        	ret
   131e0: 80 60        	ld	s0, 0x0(s1)
   131e2: 19 c4        	beqz	s0, 0x131f0 <__sfp+0xb2>
   131e4: a2 84        	mv	s1, s0
   131e6: bd bf        	j	0x13164 <__sfp+0x26>
   131e8: 26 85        	mv	a0, s1
   131ea: ef f0 7f e0  	jal	0x12ff0 <__sinit>
   131ee: bd b7        	j	0x1315c <__sfp+0x1e>
   131f0: 93 05 80 2f  	li	a1, 0x2f8
   131f4: 4a 85        	mv	a0, s2
   131f6: ef 20 30 22  	jal	0x15c18 <_malloc_r>
   131fa: 2a 84        	mv	s0, a0
   131fc: 19 cd        	beqz	a0, 0x1321a <__sfp+0xdc>
   131fe: 91 47        	li	a5, 0x4
   13200: 61 05        	addi	a0, a0, 0x18
   13202: 23 30 04 00  	sd	zero, 0x0(s0)
   13206: 1c c4        	sw	a5, 0x8(s0)
   13208: 08 e8        	sd	a0, 0x10(s0)
   1320a: 13 06 00 2e  	li	a2, 0x2e0
   1320e: 81 45        	li	a1, 0x0
   13210: ef d0 0f c6  	jal	0x10670 <memset>
   13214: 80 e0        	sd	s0, 0x0(s1)
   13216: a2 84        	mv	s1, s0
   13218: b1 b7        	j	0x13164 <__sfp+0x26>
   1321a: 23 b0 04 00  	sd	zero, 0x0(s1)
   1321e: 13 85 01 76  	addi	a0, gp, 0x760
   13222: ef 20 b0 05  	jal	0x15a7c <__retarget_lock_release_recursive>
   13226: b1 47        	li	a5, 0xc
   13228: 23 20 f9 00  	sw	a5, 0x0(s2)
   1322c: 55 b7        	j	0x131d0 <__sfp+0x92>

000000000001322e <__sfp_lock_acquire>:
   1322e: 13 85 01 76  	addi	a0, gp, 0x760
   13232: 6f 20 f0 03  	j	0x15a70 <__retarget_lock_acquire_recursive>

0000000000013236 <__sfp_lock_release>:
   13236: 13 85 01 76  	addi	a0, gp, 0x760
   1323a: 6f 20 30 04  	j	0x15a7c <__retarget_lock_release_recursive>

000000000001323e <__sinit_lock_acquire>:
   1323e: 13 85 81 76  	addi	a0, gp, 0x768
   13242: 6f 20 f0 02  	j	0x15a70 <__retarget_lock_acquire_recursive>

0000000000013246 <__sinit_lock_release>:
   13246: 13 85 81 76  	addi	a0, gp, 0x768
   1324a: 6f 20 30 03  	j	0x15a7c <__retarget_lock_release_recursive>

000000000001324e <__fp_lock_all>:
   1324e: 41 11        	addi	sp, sp, -0x10
   13250: 13 85 01 76  	addi	a0, gp, 0x760
   13254: 06 e4        	sd	ra, 0x8(sp)
   13256: ef 20 b0 01  	jal	0x15a70 <__retarget_lock_acquire_recursive>
   1325a: a2 60        	ld	ra, 0x8(sp)
   1325c: 03 b5 81 70  	ld	a0, 0x708(gp)
   13260: 97 05 00 00  	auipc	a1, 0x0
   13264: 93 85 a5 ce  	addi	a1, a1, -0x316
   13268: 41 01        	addi	sp, sp, 0x10
   1326a: 9d ae        	j	0x135e0 <_fwalk>

000000000001326c <__fp_unlock_all>:
   1326c: 03 b5 81 70  	ld	a0, 0x708(gp)
   13270: 41 11        	addi	sp, sp, -0x10
   13272: 97 05 00 00  	auipc	a1, 0x0
   13276: 93 85 05 d0  	addi	a1, a1, -0x300
   1327a: 06 e4        	sd	ra, 0x8(sp)
   1327c: ef 00 40 36  	jal	0x135e0 <_fwalk>
   13280: a2 60        	ld	ra, 0x8(sp)
   13282: 13 85 01 76  	addi	a0, gp, 0x760
   13286: 41 01        	addi	sp, sp, 0x10
   13288: 6f 20 40 7f  	j	0x15a7c <__retarget_lock_release_recursive>

000000000001328c <__libc_fini_array>:
   1328c: 01 11        	addi	sp, sp, -0x20
   1328e: 22 e8        	sd	s0, 0x10(sp)
   13290: 97 d7 00 00  	auipc	a5, 0xd
   13294: 93 87 07 fc  	addi	a5, a5, -0x40
   13298: 17 d4 00 00  	auipc	s0, 0xd
   1329c: 13 04 04 fc  	addi	s0, s0, -0x40
   132a0: 1d 8c        	sub	s0, s0, a5
   132a2: 26 e4        	sd	s1, 0x8(sp)
   132a4: 06 ec        	sd	ra, 0x18(sp)
   132a6: 93 54 34 40  	srai	s1, s0, 0x3
   132aa: 81 c8        	beqz	s1, 0x132ba <__libc_fini_array+0x2e>
   132ac: 61 14        	addi	s0, s0, -0x8
   132ae: 3e 94        	add	s0, s0, a5
   132b0: 1c 60        	ld	a5, 0x0(s0)
   132b2: fd 14        	addi	s1, s1, -0x1
   132b4: 61 14        	addi	s0, s0, -0x8
   132b6: 82 97        	jalr	a5
   132b8: e5 fc        	bnez	s1, 0x132b0 <__libc_fini_array+0x24>
   132ba: e2 60        	ld	ra, 0x18(sp)
   132bc: 42 64        	ld	s0, 0x10(sp)
   132be: a2 64        	ld	s1, 0x8(sp)
   132c0: 05 61        	addi	sp, sp, 0x20
   132c2: 82 80        	ret

00000000000132c4 <_malloc_trim_r>:
   132c4: 79 71        	addi	sp, sp, -0x30
   132c6: 22 f0        	sd	s0, 0x20(sp)
   132c8: 26 ec        	sd	s1, 0x18(sp)
   132ca: 4a e8        	sd	s2, 0x10(sp)
   132cc: 4e e4        	sd	s3, 0x8(sp)
   132ce: 52 e0        	sd	s4, 0x0(sp)
   132d0: ae 89        	mv	s3, a1
   132d2: 06 f4        	sd	ra, 0x28(sp)
   132d4: 2a 89        	mv	s2, a0
   132d6: 17 da 00 00  	auipc	s4, 0xd
   132da: 13 0a 2a 6e  	addi	s4, s4, 0x6e2
   132de: ef 30 80 02  	jal	0x16306 <__malloc_lock>
   132e2: 83 37 0a 01  	ld	a5, 0x10(s4)
   132e6: 05 64        	lui	s0, 0x1
   132e8: 13 04 f4 fd  	addi	s0, s0, -0x21
   132ec: 84 67        	ld	s1, 0x8(a5)
   132ee: 85 67        	lui	a5, 0x1
   132f0: f1 98        	andi	s1, s1, -0x4
   132f2: 26 94        	add	s0, s0, s1
   132f4: 33 04 34 41  	sub	s0, s0, s3
   132f8: 31 80        	srli	s0, s0, 0xc
   132fa: 7d 14        	addi	s0, s0, -0x1
   132fc: 32 04        	slli	s0, s0, 0xc
   132fe: 63 4b f4 00  	blt	s0, a5, 0x13314 <_malloc_trim_r+0x50>
   13302: 81 45        	li	a1, 0x0
   13304: 4a 85        	mv	a0, s2
   13306: ef 30 70 6b  	jal	0x171bc <_sbrk_r>
   1330a: 83 37 0a 01  	ld	a5, 0x10(s4)
   1330e: a6 97        	add	a5, a5, s1
   13310: 63 0e f5 00  	beq	a0, a5, 0x1332c <_malloc_trim_r+0x68>
   13314: 4a 85        	mv	a0, s2
   13316: ef 20 90 7f  	jal	0x1630e <__malloc_unlock>
   1331a: a2 70        	ld	ra, 0x28(sp)
   1331c: 02 74        	ld	s0, 0x20(sp)
   1331e: e2 64        	ld	s1, 0x18(sp)
   13320: 42 69        	ld	s2, 0x10(sp)
   13322: a2 69        	ld	s3, 0x8(sp)
   13324: 02 6a        	ld	s4, 0x0(sp)
   13326: 01 45        	li	a0, 0x0
   13328: 45 61        	addi	sp, sp, 0x30
   1332a: 82 80        	ret
   1332c: b3 05 80 40  	neg	a1, s0
   13330: 4a 85        	mv	a0, s2
   13332: ef 30 b0 68  	jal	0x171bc <_sbrk_r>
   13336: fd 57        	li	a5, -0x1
   13338: 63 0d f5 02  	beq	a0, a5, 0x13372 <_malloc_trim_r+0xae>
   1333c: 03 37 0a 01  	ld	a4, 0x10(s4)
   13340: 97 e7 00 00  	auipc	a5, 0xe
   13344: 83 a7 87 14  	lw	a5, 0x148(a5)
   13348: 81 8c        	sub	s1, s1, s0
   1334a: 93 e4 14 00  	ori	s1, s1, 0x1
   1334e: 04 e7        	sd	s1, 0x8(a4)
   13350: 4a 85        	mv	a0, s2
   13352: 81 9f        	subw	a5, a5, s0
   13354: 17 e7 00 00  	auipc	a4, 0xe
   13358: 23 2a f7 12  	sw	a5, 0x134(a4)
   1335c: ef 20 30 7b  	jal	0x1630e <__malloc_unlock>
   13360: a2 70        	ld	ra, 0x28(sp)
   13362: 02 74        	ld	s0, 0x20(sp)
   13364: e2 64        	ld	s1, 0x18(sp)
   13366: 42 69        	ld	s2, 0x10(sp)
   13368: a2 69        	ld	s3, 0x8(sp)
   1336a: 02 6a        	ld	s4, 0x0(sp)
   1336c: 05 45        	li	a0, 0x1
   1336e: 45 61        	addi	sp, sp, 0x30
   13370: 82 80        	ret
   13372: 81 45        	li	a1, 0x0
   13374: 4a 85        	mv	a0, s2
   13376: ef 30 70 64  	jal	0x171bc <_sbrk_r>
   1337a: 03 37 0a 01  	ld	a4, 0x10(s4)
   1337e: fd 46        	li	a3, 0x1f
   13380: b3 07 e5 40  	sub	a5, a0, a4
   13384: e3 d8 f6 f8  	bge	a3, a5, 0x13314 <_malloc_trim_r+0x50>
   13388: 83 b6 81 71  	ld	a3, 0x718(gp)
   1338c: 93 e7 17 00  	ori	a5, a5, 0x1
   13390: 1c e7        	sd	a5, 0x8(a4)
   13392: 15 8d        	sub	a0, a0, a3
   13394: 97 e7 00 00  	auipc	a5, 0xe
   13398: 23 aa a7 0e  	sw	a0, 0xf4(a5)
   1339c: a5 bf        	j	0x13314 <_malloc_trim_r+0x50>

000000000001339e <_free_r>:
   1339e: fd c1        	beqz	a1, 0x13484 <_free_r+0xe6>
   133a0: 01 11        	addi	sp, sp, -0x20
   133a2: 22 e8        	sd	s0, 0x10(sp)
   133a4: 26 e4        	sd	s1, 0x8(sp)
   133a6: 2e 84        	mv	s0, a1
   133a8: aa 84        	mv	s1, a0
   133aa: 06 ec        	sd	ra, 0x18(sp)
   133ac: ef 20 b0 75  	jal	0x16306 <__malloc_lock>
   133b0: 83 35 84 ff  	ld	a1, -0x8(s0)
   133b4: 13 07 04 ff  	addi	a4, s0, -0x10
   133b8: 17 d8 00 00  	auipc	a6, 0xd
   133bc: 13 08 08 60  	addi	a6, a6, 0x600
   133c0: 93 f7 e5 ff  	andi	a5, a1, -0x2
   133c4: 33 06 f7 00  	add	a2, a4, a5
   133c8: 14 66        	ld	a3, 0x8(a2)
   133ca: 03 35 08 01  	ld	a0, 0x10(a6)
   133ce: 93 f8 15 00  	andi	a7, a1, 0x1
   133d2: f1 9a        	andi	a3, a3, -0x4
   133d4: 63 05 c5 12  	beq	a0, a2, 0x134fe <_free_r+0x160>
   133d8: 14 e6        	sd	a3, 0x8(a2)
   133da: 33 05 d6 00  	add	a0, a2, a3
   133de: 08 65        	ld	a0, 0x8(a0)
   133e0: 05 89        	andi	a0, a0, 0x1
   133e2: 63 9e 08 06  	bnez	a7, 0x1345e <_free_r+0xc0>
   133e6: 03 33 04 ff  	ld	t1, -0x10(s0)
   133ea: 97 d8 00 00  	auipc	a7, 0xd
   133ee: 93 88 e8 5d  	addi	a7, a7, 0x5de
   133f2: 33 07 67 40  	sub	a4, a4, t1
   133f6: 0c 6b        	ld	a1, 0x10(a4)
   133f8: 9a 97        	add	a5, a5, t1
   133fa: 63 86 15 0f  	beq	a1, a7, 0x134e6 <_free_r+0x148>
   133fe: 03 33 87 01  	ld	t1, 0x18(a4)
   13402: 23 bc 65 00  	sd	t1, 0x18(a1)
   13406: 23 38 b3 00  	sd	a1, 0x10(t1)
   1340a: 63 04 05 12  	beqz	a0, 0x13532 <_free_r+0x194>
   1340e: 93 e6 17 00  	ori	a3, a5, 0x1
   13412: 14 e7        	sd	a3, 0x8(a4)
   13414: 1c e2        	sd	a5, 0x0(a2)
   13416: 93 06 f0 1f  	li	a3, 0x1ff
   1341a: 63 ef f6 06  	bltu	a3, a5, 0x13498 <_free_r+0xfa>
   1341e: 8d 83        	srli	a5, a5, 0x3
   13420: 81 27        	sext.w	a5, a5
   13422: 9b 86 17 00  	addiw	a3, a5, 0x1
   13426: 9b 96 16 00  	slliw	a3, a3, 0x1
   1342a: 8e 06        	slli	a3, a3, 0x3
   1342c: 03 35 88 00  	ld	a0, 0x8(a6)
   13430: c2 96        	add	a3, a3, a6
   13432: 8c 62        	ld	a1, 0x0(a3)
   13434: 05 46        	li	a2, 0x1
   13436: 9b d7 27 40  	sraiw	a5, a5, 0x2
   1343a: b3 17 f6 00  	sll	a5, a2, a5
   1343e: c9 8f        	or	a5, a5, a0
   13440: 13 86 06 ff  	addi	a2, a3, -0x10
   13444: 0c eb        	sd	a1, 0x10(a4)
   13446: 10 ef        	sd	a2, 0x18(a4)
   13448: 23 34 f8 00  	sd	a5, 0x8(a6)
   1344c: 98 e2        	sd	a4, 0x0(a3)
   1344e: 98 ed        	sd	a4, 0x18(a1)
   13450: 42 64        	ld	s0, 0x10(sp)
   13452: e2 60        	ld	ra, 0x18(sp)
   13454: 26 85        	mv	a0, s1
   13456: a2 64        	ld	s1, 0x8(sp)
   13458: 05 61        	addi	sp, sp, 0x20
   1345a: 6f 20 50 6b  	j	0x1630e <__malloc_unlock>
   1345e: 05 e5        	bnez	a0, 0x13486 <_free_r+0xe8>
   13460: b6 97        	add	a5, a5, a3
   13462: 97 d8 00 00  	auipc	a7, 0xd
   13466: 93 88 68 56  	addi	a7, a7, 0x566
   1346a: 14 6a        	ld	a3, 0x10(a2)
   1346c: 13 e5 17 00  	ori	a0, a5, 0x1
   13470: b3 05 f7 00  	add	a1, a4, a5
   13474: 63 8f 16 0f  	beq	a3, a7, 0x13572 <_free_r+0x1d4>
   13478: 10 6e        	ld	a2, 0x18(a2)
   1347a: 90 ee        	sd	a2, 0x18(a3)
   1347c: 14 ea        	sd	a3, 0x10(a2)
   1347e: 08 e7        	sd	a0, 0x8(a4)
   13480: 9c e1        	sd	a5, 0x0(a1)
   13482: 51 bf        	j	0x13416 <_free_r+0x78>
   13484: 82 80        	ret
   13486: 93 e5 15 00  	ori	a1, a1, 0x1
   1348a: 23 3c b4 fe  	sd	a1, -0x8(s0)
   1348e: 1c e2        	sd	a5, 0x0(a2)
   13490: 93 06 f0 1f  	li	a3, 0x1ff
   13494: e3 f5 f6 f8  	bgeu	a3, a5, 0x1341e <_free_r+0x80>
   13498: 93 d6 97 00  	srli	a3, a5, 0x9
   1349c: 11 46        	li	a2, 0x4
   1349e: 63 6c d6 08  	bltu	a2, a3, 0x13536 <_free_r+0x198>
   134a2: 93 d6 67 00  	srli	a3, a5, 0x6
   134a6: 9b 85 96 03  	addiw	a1, a3, 0x39
   134aa: 9b 95 15 00  	slliw	a1, a1, 0x1
   134ae: 8e 05        	slli	a1, a1, 0x3
   134b0: 1b 86 86 03  	addiw	a2, a3, 0x38
   134b4: c2 95        	add	a1, a1, a6
   134b6: 94 61        	ld	a3, 0x0(a1)
   134b8: c1 15        	addi	a1, a1, -0x10
   134ba: 63 96 d5 00  	bne	a1, a3, 0x134c6 <_free_r+0x128>
   134be: e9 a0        	j	0x13588 <_free_r+0x1ea>
   134c0: 94 6a        	ld	a3, 0x10(a3)
   134c2: 63 86 d5 00  	beq	a1, a3, 0x134ce <_free_r+0x130>
   134c6: 90 66        	ld	a2, 0x8(a3)
   134c8: 71 9a        	andi	a2, a2, -0x4
   134ca: e3 eb c7 fe  	bltu	a5, a2, 0x134c0 <_free_r+0x122>
   134ce: 8c 6e        	ld	a1, 0x18(a3)
   134d0: 0c ef        	sd	a1, 0x18(a4)
   134d2: 14 eb        	sd	a3, 0x10(a4)
   134d4: 42 64        	ld	s0, 0x10(sp)
   134d6: e2 60        	ld	ra, 0x18(sp)
   134d8: 98 e9        	sd	a4, 0x10(a1)
   134da: 26 85        	mv	a0, s1
   134dc: a2 64        	ld	s1, 0x8(sp)
   134de: 98 ee        	sd	a4, 0x18(a3)
   134e0: 05 61        	addi	sp, sp, 0x20
   134e2: 6f 20 d0 62  	j	0x1630e <__malloc_unlock>
   134e6: 2d e9        	bnez	a0, 0x13558 <_free_r+0x1ba>
   134e8: 0c 6e        	ld	a1, 0x18(a2)
   134ea: 10 6a        	ld	a2, 0x10(a2)
   134ec: be 96        	add	a3, a3, a5
   134ee: 93 e7 16 00  	ori	a5, a3, 0x1
   134f2: 0c ee        	sd	a1, 0x18(a2)
   134f4: 90 e9        	sd	a2, 0x10(a1)
   134f6: 1c e7        	sd	a5, 0x8(a4)
   134f8: 36 97        	add	a4, a4, a3
   134fa: 14 e3        	sd	a3, 0x0(a4)
   134fc: 91 bf        	j	0x13450 <_free_r+0xb2>
   134fe: be 96        	add	a3, a3, a5
   13500: 63 9a 08 00  	bnez	a7, 0x13514 <_free_r+0x176>
   13504: 83 35 04 ff  	ld	a1, -0x10(s0)
   13508: 0d 8f        	sub	a4, a4, a1
   1350a: 1c 6f        	ld	a5, 0x18(a4)
   1350c: 10 6b        	ld	a2, 0x10(a4)
   1350e: ae 96        	add	a3, a3, a1
   13510: 1c ee        	sd	a5, 0x18(a2)
   13512: 90 eb        	sd	a2, 0x10(a5)
   13514: 13 e6 16 00  	ori	a2, a3, 0x1
   13518: 83 b7 01 72  	ld	a5, 0x720(gp)
   1351c: 10 e7        	sd	a2, 0x8(a4)
   1351e: 23 38 e8 00  	sd	a4, 0x10(a6)
   13522: e3 e7 f6 f2  	bltu	a3, a5, 0x13450 <_free_r+0xb2>
   13526: 83 b5 01 78  	ld	a1, 0x780(gp)
   1352a: 26 85        	mv	a0, s1
   1352c: ef f0 9f d9  	jal	0x132c4 <_malloc_trim_r>
   13530: 05 b7        	j	0x13450 <_free_r+0xb2>
   13532: b6 97        	add	a5, a5, a3
   13534: 1d bf        	j	0x1346a <_free_r+0xcc>
   13536: 51 46        	li	a2, 0x14
   13538: 63 75 d6 02  	bgeu	a2, a3, 0x13562 <_free_r+0x1c4>
   1353c: 13 06 40 05  	li	a2, 0x54
   13540: 63 6f d6 04  	bltu	a2, a3, 0x1359e <_free_r+0x200>
   13544: 93 d6 c7 00  	srli	a3, a5, 0xc
   13548: 9b 85 f6 06  	addiw	a1, a3, 0x6f
   1354c: 9b 95 15 00  	slliw	a1, a1, 0x1
   13550: 8e 05        	slli	a1, a1, 0x3
   13552: 1b 86 e6 06  	addiw	a2, a3, 0x6e
   13556: b9 bf        	j	0x134b4 <_free_r+0x116>
   13558: 93 e6 17 00  	ori	a3, a5, 0x1
   1355c: 14 e7        	sd	a3, 0x8(a4)
   1355e: 1c e2        	sd	a5, 0x0(a2)
   13560: c5 bd        	j	0x13450 <_free_r+0xb2>
   13562: 9b 85 c6 05  	addiw	a1, a3, 0x5c
   13566: 9b 95 15 00  	slliw	a1, a1, 0x1
   1356a: 8e 05        	slli	a1, a1, 0x3
   1356c: 1b 86 b6 05  	addiw	a2, a3, 0x5b
   13570: 91 b7        	j	0x134b4 <_free_r+0x116>
   13572: 23 34 e8 02  	sd	a4, 0x28(a6)
   13576: 23 30 e8 02  	sd	a4, 0x20(a6)
   1357a: 23 3c 17 01  	sd	a7, 0x18(a4)
   1357e: 23 38 17 01  	sd	a7, 0x10(a4)
   13582: 08 e7        	sd	a0, 0x8(a4)
   13584: 9c e1        	sd	a5, 0x0(a1)
   13586: e9 b5        	j	0x13450 <_free_r+0xb2>
   13588: 03 35 88 00  	ld	a0, 0x8(a6)
   1358c: 1b 56 26 40  	sraiw	a2, a2, 0x2
   13590: 85 47        	li	a5, 0x1
   13592: b3 97 c7 00  	sll	a5, a5, a2
   13596: c9 8f        	or	a5, a5, a0
   13598: 23 34 f8 00  	sd	a5, 0x8(a6)
   1359c: 15 bf        	j	0x134d0 <_free_r+0x132>
   1359e: 13 06 40 15  	li	a2, 0x154
   135a2: 63 6c d6 00  	bltu	a2, a3, 0x135ba <_free_r+0x21c>
   135a6: 93 d6 f7 00  	srli	a3, a5, 0xf
   135aa: 9b 85 86 07  	addiw	a1, a3, 0x78
   135ae: 9b 95 15 00  	slliw	a1, a1, 0x1
   135b2: 8e 05        	slli	a1, a1, 0x3
   135b4: 1b 86 76 07  	addiw	a2, a3, 0x77
   135b8: f5 bd        	j	0x134b4 <_free_r+0x116>
   135ba: 13 06 40 55  	li	a2, 0x554
   135be: 63 6c d6 00  	bltu	a2, a3, 0x135d6 <_free_r+0x238>
   135c2: 93 d6 27 01  	srli	a3, a5, 0x12
   135c6: 9b 85 d6 07  	addiw	a1, a3, 0x7d
   135ca: 9b 95 15 00  	slliw	a1, a1, 0x1
   135ce: 8e 05        	slli	a1, a1, 0x3
   135d0: 1b 86 c6 07  	addiw	a2, a3, 0x7c
   135d4: c5 b5        	j	0x134b4 <_free_r+0x116>
   135d6: 93 05 00 7f  	li	a1, 0x7f0
   135da: 13 06 e0 07  	li	a2, 0x7e
   135de: d9 bd        	j	0x134b4 <_free_r+0x116>

00000000000135e0 <_fwalk>:
   135e0: 5d 71        	addi	sp, sp, -0x50
   135e2: 4a f8        	sd	s2, 0x30(sp)
   135e4: 4e f4        	sd	s3, 0x28(sp)
   135e6: 52 f0        	sd	s4, 0x20(sp)
   135e8: 56 ec        	sd	s5, 0x18(sp)
   135ea: 5a e8        	sd	s6, 0x10(sp)
   135ec: 5e e4        	sd	s7, 0x8(sp)
   135ee: 86 e4        	sd	ra, 0x48(sp)
   135f0: a2 e0        	sd	s0, 0x40(sp)
   135f2: 26 fc        	sd	s1, 0x38(sp)
   135f4: 93 09 05 52  	addi	s3, a0, 0x520
   135f8: ae 8a        	mv	s5, a1
   135fa: 01 49        	li	s2, 0x0
   135fc: 13 0b 80 0b  	li	s6, 0xb8
   13600: 85 4b        	li	s7, 0x1
   13602: 7d 5a        	li	s4, -0x1
   13604: 83 a4 89 00  	lw	s1, 0x8(s3)
   13608: 03 b4 09 01  	ld	s0, 0x10(s3)
   1360c: 63 58 90 02  	blez	s1, 0x1363c <_fwalk+0x5c>
   13610: 82 14        	slli	s1, s1, 0x20
   13612: 81 90        	srli	s1, s1, 0x20
   13614: b3 84 64 03  	mul	s1, s1, s6
   13618: a2 94        	add	s1, s1, s0
   1361a: 83 57 04 01  	lhu	a5, 0x10(s0)
   1361e: 63 fb fb 00  	bgeu	s7, a5, 0x13634 <_fwalk+0x54>
   13622: 83 17 24 01  	lh	a5, 0x12(s0)
   13626: 22 85        	mv	a0, s0
   13628: 63 86 47 01  	beq	a5, s4, 0x13634 <_fwalk+0x54>
   1362c: 82 9a        	jalr	s5
   1362e: 33 69 25 01  	or	s2, a0, s2
   13632: 01 29        	sext.w	s2, s2
   13634: 13 04 84 0b  	addi	s0, s0, 0xb8
   13638: e3 11 94 fe  	bne	s0, s1, 0x1361a <_fwalk+0x3a>
   1363c: 83 b9 09 00  	ld	s3, 0x0(s3)
   13640: e3 92 09 fc  	bnez	s3, 0x13604 <_fwalk+0x24>
   13644: a6 60        	ld	ra, 0x48(sp)
   13646: 06 64        	ld	s0, 0x40(sp)
   13648: e2 74        	ld	s1, 0x38(sp)
   1364a: a2 79        	ld	s3, 0x28(sp)
   1364c: 02 7a        	ld	s4, 0x20(sp)
   1364e: e2 6a        	ld	s5, 0x18(sp)
   13650: 42 6b        	ld	s6, 0x10(sp)
   13652: a2 6b        	ld	s7, 0x8(sp)
   13654: 4a 85        	mv	a0, s2
   13656: 42 79        	ld	s2, 0x30(sp)
   13658: 61 61        	addi	sp, sp, 0x50
   1365a: 82 80        	ret

000000000001365c <_fwalk_reent>:
   1365c: 5d 71        	addi	sp, sp, -0x50
   1365e: 4a f8        	sd	s2, 0x30(sp)
   13660: 4e f4        	sd	s3, 0x28(sp)
   13662: 52 f0        	sd	s4, 0x20(sp)
   13664: 56 ec        	sd	s5, 0x18(sp)
   13666: 5a e8        	sd	s6, 0x10(sp)
   13668: 5e e4        	sd	s7, 0x8(sp)
   1366a: 62 e0        	sd	s8, 0x0(sp)
   1366c: 86 e4        	sd	ra, 0x48(sp)
   1366e: a2 e0        	sd	s0, 0x40(sp)
   13670: 26 fc        	sd	s1, 0x38(sp)
   13672: aa 89        	mv	s3, a0
   13674: 2e 8b        	mv	s6, a1
   13676: 13 0a 05 52  	addi	s4, a0, 0x520
   1367a: 01 49        	li	s2, 0x0
   1367c: 93 0b 80 0b  	li	s7, 0xb8
   13680: 05 4c        	li	s8, 0x1
   13682: fd 5a        	li	s5, -0x1
   13684: 83 24 8a 00  	lw	s1, 0x8(s4)
   13688: 03 34 0a 01  	ld	s0, 0x10(s4)
   1368c: 63 59 90 02  	blez	s1, 0x136be <_fwalk_reent+0x62>
   13690: 82 14        	slli	s1, s1, 0x20
   13692: 81 90        	srli	s1, s1, 0x20
   13694: b3 84 74 03  	mul	s1, s1, s7
   13698: a2 94        	add	s1, s1, s0
   1369a: 83 57 04 01  	lhu	a5, 0x10(s0)
   1369e: 63 7c fc 00  	bgeu	s8, a5, 0x136b6 <_fwalk_reent+0x5a>
   136a2: 83 17 24 01  	lh	a5, 0x12(s0)
   136a6: a2 85        	mv	a1, s0
   136a8: 4e 85        	mv	a0, s3
   136aa: 63 86 57 01  	beq	a5, s5, 0x136b6 <_fwalk_reent+0x5a>
   136ae: 02 9b        	jalr	s6
   136b0: 33 69 25 01  	or	s2, a0, s2
   136b4: 01 29        	sext.w	s2, s2
   136b6: 13 04 84 0b  	addi	s0, s0, 0xb8
   136ba: e3 10 94 fe  	bne	s0, s1, 0x1369a <_fwalk_reent+0x3e>
   136be: 03 3a 0a 00  	ld	s4, 0x0(s4)
   136c2: e3 11 0a fc  	bnez	s4, 0x13684 <_fwalk_reent+0x28>
   136c6: a6 60        	ld	ra, 0x48(sp)
   136c8: 06 64        	ld	s0, 0x40(sp)
   136ca: e2 74        	ld	s1, 0x38(sp)
   136cc: a2 79        	ld	s3, 0x28(sp)
   136ce: 02 7a        	ld	s4, 0x20(sp)
   136d0: e2 6a        	ld	s5, 0x18(sp)
   136d2: 42 6b        	ld	s6, 0x10(sp)
   136d4: a2 6b        	ld	s7, 0x8(sp)
   136d6: 02 6c        	ld	s8, 0x0(sp)
   136d8: 4a 85        	mv	a0, s2
   136da: 42 79        	ld	s2, 0x30(sp)
   136dc: 61 61        	addi	sp, sp, 0x50
   136de: 82 80        	ret

00000000000136e0 <_gettimeofday_r>:
   136e0: 41 11        	addi	sp, sp, -0x10
   136e2: 2e 87        	mv	a4, a1
   136e4: 22 e0        	sd	s0, 0x0(sp)
   136e6: b2 85        	mv	a1, a2
   136e8: 2a 84        	mv	s0, a0
   136ea: 3a 85        	mv	a0, a4
   136ec: 23 a4 01 78  	sw	zero, 0x788(gp)
   136f0: 06 e4        	sd	ra, 0x8(sp)
   136f2: ef 90 60 76  	jal	0x1ce58 <_gettimeofday>
   136f6: fd 57        	li	a5, -0x1
   136f8: 63 06 f5 00  	beq	a0, a5, 0x13704 <_gettimeofday_r+0x24>
   136fc: a2 60        	ld	ra, 0x8(sp)
   136fe: 02 64        	ld	s0, 0x0(sp)
   13700: 41 01        	addi	sp, sp, 0x10
   13702: 82 80        	ret
   13704: 83 a7 81 78  	lw	a5, 0x788(gp)
   13708: f5 db        	beqz	a5, 0x136fc <_gettimeofday_r+0x1c>
   1370a: a2 60        	ld	ra, 0x8(sp)
   1370c: 1c c0        	sw	a5, 0x0(s0)
   1370e: 02 64        	ld	s0, 0x0(sp)
   13710: 41 01        	addi	sp, sp, 0x10
   13712: 82 80        	ret

0000000000013714 <eshdn1>:
   13714: 93 06 45 00  	addi	a3, a0, 0x4
   13718: 81 47        	li	a5, 0x0
   1371a: 69 05        	addi	a0, a0, 0x1a
   1371c: 61 78        	lui	a6, 0xffff8
   1371e: 11 a8        	j	0x13732 <eshdn1+0x1e>
   13720: 9b 97 17 00  	slliw	a5, a5, 0x1
   13724: 23 90 e6 00  	sh	a4, 0x0(a3)
   13728: c2 17        	slli	a5, a5, 0x30
   1372a: 89 06        	addi	a3, a3, 0x2
   1372c: c1 93        	srli	a5, a5, 0x30
   1372e: 63 06 d5 02  	beq	a0, a3, 0x1375a <eshdn1+0x46>
   13732: 03 d7 06 00  	lhu	a4, 0x0(a3)
   13736: 13 f6 27 00  	andi	a2, a5, 0x2
   1373a: 93 75 17 00  	andi	a1, a4, 0x1
   1373e: 05 83        	srli	a4, a4, 0x1
   13740: cd 8f        	or	a5, a5, a1
   13742: b3 65 07 01  	or	a1, a4, a6
   13746: 69 de        	beqz	a2, 0x13720 <eshdn1+0xc>
   13748: 9b 97 17 00  	slliw	a5, a5, 0x1
   1374c: 23 90 b6 00  	sh	a1, 0x0(a3)
   13750: c2 17        	slli	a5, a5, 0x30
   13752: 89 06        	addi	a3, a3, 0x2
   13754: c1 93        	srli	a5, a5, 0x30
   13756: e3 1e d5 fc  	bne	a0, a3, 0x13732 <eshdn1+0x1e>
   1375a: 82 80        	ret

000000000001375c <eshup1>:
   1375c: 93 06 85 01  	addi	a3, a0, 0x18
   13760: 01 47        	li	a4, 0x0
   13762: 09 05        	addi	a0, a0, 0x2
   13764: 11 a8        	j	0x13778 <eshup1+0x1c>
   13766: 1b 17 17 00  	slliw	a4, a4, 0x1
   1376a: 23 90 f6 00  	sh	a5, 0x0(a3)
   1376e: 42 17        	slli	a4, a4, 0x30
   13770: f9 16        	addi	a3, a3, -0x2
   13772: 41 93        	srli	a4, a4, 0x30
   13774: 63 00 d5 04  	beq	a0, a3, 0x137b4 <eshup1+0x58>
   13778: 83 d7 06 00  	lhu	a5, 0x0(a3)
   1377c: 1b 96 07 01  	slliw	a2, a5, 0x10
   13780: 1b 56 06 41  	sraiw	a2, a2, 0x10
   13784: 9b 97 17 00  	slliw	a5, a5, 0x1
   13788: c2 17        	slli	a5, a5, 0x30
   1378a: 93 15 06 02  	slli	a1, a2, 0x20
   1378e: c1 93        	srli	a5, a5, 0x30
   13790: 63 d4 05 00  	bgez	a1, 0x13798 <eshup1+0x3c>
   13794: 13 67 17 00  	ori	a4, a4, 0x1
   13798: 13 76 27 00  	andi	a2, a4, 0x2
   1379c: 93 e5 17 00  	ori	a1, a5, 0x1
   137a0: 79 d2        	beqz	a2, 0x13766 <eshup1+0xa>
   137a2: 1b 17 17 00  	slliw	a4, a4, 0x1
   137a6: 23 90 b6 00  	sh	a1, 0x0(a3)
   137aa: 42 17        	slli	a4, a4, 0x30
   137ac: f9 16        	addi	a3, a3, -0x2
   137ae: 41 93        	srli	a4, a4, 0x30
   137b0: e3 14 d5 fc  	bne	a0, a3, 0x13778 <eshup1+0x1c>
   137b4: 82 80        	ret

00000000000137b6 <m16m>:
   137b6: 01 11        	addi	sp, sp, -0x20
   137b8: e1 05        	addi	a1, a1, 0x18
   137ba: 23 1b 01 00  	sh	zero, 0x16(sp)
   137be: 23 1c 01 00  	sh	zero, 0x18(sp)
   137c2: 3c 08        	addi	a5, sp, 0x18
   137c4: 13 08 41 00  	addi	a6, sp, 0x4
   137c8: 03 d7 05 00  	lhu	a4, 0x0(a1)
   137cc: f9 17        	addi	a5, a5, -0x2
   137ce: f9 15        	addi	a1, a1, -0x2
   137d0: 0d c7        	beqz	a4, 0x137fa <m16m+0x44>
   137d2: 33 07 a7 02  	mul	a4, a4, a0
   137d6: 83 d8 27 00  	lhu	a7, 0x2(a5)
   137da: 03 d3 07 00  	lhu	t1, 0x0(a5)
   137de: 93 16 07 03  	slli	a3, a4, 0x30
   137e2: c1 92        	srli	a3, a3, 0x30
   137e4: c6 96        	add	a3, a3, a7
   137e6: 41 83        	srli	a4, a4, 0x10
   137e8: 1a 97        	add	a4, a4, t1
   137ea: 93 d8 06 01  	srli	a7, a3, 0x10
   137ee: 46 97        	add	a4, a4, a7
   137f0: 23 90 e7 00  	sh	a4, 0x0(a5)
   137f4: 23 91 d7 00  	sh	a3, 0x2(a5)
   137f8: 41 83        	srli	a4, a4, 0x10
   137fa: 23 9f e7 fe  	sh	a4, -0x2(a5)
   137fe: e3 95 07 fd  	bne	a5, a6, 0x137c8 <m16m+0x12>
   13802: 11 06        	addi	a2, a2, 0x4
   13804: 93 06 a1 01  	addi	a3, sp, 0x1a
   13808: 03 d7 07 00  	lhu	a4, 0x0(a5)
   1380c: 89 07        	addi	a5, a5, 0x2
   1380e: 09 06        	addi	a2, a2, 0x2
   13810: 23 1f e6 fe  	sh	a4, -0x2(a2)
   13814: e3 9a f6 fe  	bne	a3, a5, 0x13808 <m16m+0x52>
   13818: 05 61        	addi	sp, sp, 0x20
   1381a: 82 80        	ret

000000000001381c <emovo.isra.0>:
   1381c: 03 57 05 00  	lhu	a4, 0x0(a0)
   13820: 83 57 25 00  	lhu	a5, 0x2(a0)
   13824: 19 c3        	beqz	a4, 0x1382a <emovo.isra.0+0xe>
   13826: 21 67        	lui	a4, 0x8
   13828: d9 8f        	or	a5, a5, a4
   1382a: 23 99 f5 00  	sh	a5, 0x12(a1)
   1382e: 03 57 25 00  	lhu	a4, 0x2(a0)
   13832: a1 67        	lui	a5, 0x8
   13834: fd 17        	addi	a5, a5, -0x1
   13836: 63 0f f7 00  	beq	a4, a5, 0x13854 <emovo.isra.0+0x38>
   1383a: 93 07 65 00  	addi	a5, a0, 0x6
   1383e: c1 05        	addi	a1, a1, 0x10
   13840: 61 05        	addi	a0, a0, 0x18
   13842: 03 d7 07 00  	lhu	a4, 0x0(a5)
   13846: 89 07        	addi	a5, a5, 0x2
   13848: f9 15        	addi	a1, a1, -0x2
   1384a: 23 91 e5 00  	sh	a4, 0x2(a1)
   1384e: e3 9a a7 fe  	bne	a5, a0, 0x13842 <emovo.isra.0+0x26>
   13852: 82 80        	ret
   13854: 93 07 65 00  	addi	a5, a0, 0x6
   13858: 69 05        	addi	a0, a0, 0x1a
   1385a: 03 d7 07 00  	lhu	a4, 0x0(a5)
   1385e: 89 07        	addi	a5, a5, 0x2
   13860: 1d e3        	bnez	a4, 0x13886 <emovo.isra.0+0x6a>
   13862: e3 9c a7 fe  	bne	a5, a0, 0x1385a <emovo.isra.0+0x3e>
   13866: 13 87 25 01  	addi	a4, a1, 0x12
   1386a: ae 87        	mv	a5, a1
   1386c: 89 07        	addi	a5, a5, 0x2
   1386e: 23 9f 07 fe  	sh	zero, -0x2(a5)
   13872: e3 9d e7 fe  	bne	a5, a4, 0x1386c <emovo.isra.0+0x50>
   13876: 83 d7 25 01  	lhu	a5, 0x12(a1)
   1387a: 21 67        	lui	a4, 0x8
   1387c: 7d 17        	addi	a4, a4, -0x1
   1387e: d9 8f        	or	a5, a5, a4
   13880: 23 99 f5 00  	sh	a5, 0x12(a1)
   13884: 82 80        	ret
   13886: 13 87 05 01  	addi	a4, a1, 0x10
   1388a: ae 87        	mv	a5, a1
   1388c: 89 07        	addi	a5, a5, 0x2
   1388e: 23 9f 07 fe  	sh	zero, -0x2(a5)
   13892: e3 9d e7 fe  	bne	a5, a4, 0x1388c <emovo.isra.0+0x70>
   13896: e1 77        	lui	a5, 0xffff8
   13898: 93 c7 f7 ff  	not	a5, a5
   1389c: 71 77        	lui	a4, 0xffffc
   1389e: 23 99 f5 00  	sh	a5, 0x12(a1)
   138a2: 23 98 e5 00  	sh	a4, 0x10(a1)
   138a6: 82 80        	ret

00000000000138a8 <enormlz>:
   138a8: 83 57 45 00  	lhu	a5, 0x4(a0)
   138ac: 01 11        	addi	sp, sp, -0x20
   138ae: 26 e4        	sd	s1, 0x8(sp)
   138b0: 06 ec        	sd	ra, 0x18(sp)
   138b2: 22 e8        	sd	s0, 0x10(sp)
   138b4: aa 84        	mv	s1, a0
   138b6: c5 eb        	bnez	a5, 0x13966 <enormlz+0xbe>
   138b8: 83 57 65 00  	lhu	a5, 0x6(a0)
   138bc: 01 44        	li	s0, 0x0
   138be: 1b 97 07 01  	slliw	a4, a5, 0x10
   138c2: 1b 57 07 41  	sraiw	a4, a4, 0x10
   138c6: 93 16 07 02  	slli	a3, a4, 0x20
   138ca: 63 c8 06 08  	bltz	a3, 0x1395a <enormlz+0xb2>
   138ce: 93 06 85 01  	addi	a3, a0, 0x18
   138d2: 13 06 00 0a  	li	a2, 0xa0
   138d6: 95 e3        	bnez	a5, 0x138fa <enormlz+0x52>
   138d8: 93 87 44 00  	addi	a5, s1, 0x4
   138dc: 03 d7 27 00  	lhu	a4, 0x2(a5)
   138e0: 89 07        	addi	a5, a5, 0x2
   138e2: 23 9f e7 fe  	sh	a4, -0x2(a5)
   138e6: e3 9b d7 fe  	bne	a5, a3, 0x138dc <enormlz+0x34>
   138ea: 23 9c 04 00  	sh	zero, 0x18(s1)
   138ee: 41 24        	addiw	s0, s0, 0x10
   138f0: 63 05 c4 06  	beq	s0, a2, 0x1395a <enormlz+0xb2>
   138f4: 83 d7 64 00  	lhu	a5, 0x6(s1)
   138f8: e5 d3        	beqz	a5, 0x138d8 <enormlz+0x30>
   138fa: 4a e0        	sd	s2, 0x0(sp)
   138fc: 13 05 f0 0f  	li	a0, 0xff
   13900: 63 69 f5 02  	bltu	a0, a5, 0x13932 <enormlz+0x8a>
   13904: 13 88 84 01  	addi	a6, s1, 0x18
   13908: 93 85 24 00  	addi	a1, s1, 0x2
   1390c: 81 47        	li	a5, 0x0
   1390e: 42 87        	mv	a4, a6
   13910: 83 56 07 00  	lhu	a3, 0x0(a4)
   13914: 79 17        	addi	a4, a4, -0x2
   13916: 1b 96 86 00  	slliw	a2, a3, 0x8
   1391a: d1 8f        	or	a5, a5, a2
   1391c: 23 11 f7 00  	sh	a5, 0x2(a4)
   13920: 93 d7 86 00  	srli	a5, a3, 0x8
   13924: e3 16 b7 fe  	bne	a4, a1, 0x13910 <enormlz+0x68>
   13928: 83 d7 64 00  	lhu	a5, 0x6(s1)
   1392c: 21 24        	addiw	s0, s0, 0x8
   1392e: e3 7f f5 fc  	bgeu	a0, a5, 0x1390c <enormlz+0x64>
   13932: 13 09 00 0a  	li	s2, 0xa0
   13936: 01 a8        	j	0x13946 <enormlz+0x9e>
   13938: 05 24        	addiw	s0, s0, 0x1
   1393a: ef f0 3f e2  	jal	0x1375c <eshup1>
   1393e: 63 4d 89 00  	blt	s2, s0, 0x13958 <enormlz+0xb0>
   13942: 83 d7 64 00  	lhu	a5, 0x6(s1)
   13946: 9b 97 07 01  	slliw	a5, a5, 0x10
   1394a: 9b d7 07 41  	sraiw	a5, a5, 0x10
   1394e: 13 97 07 02  	slli	a4, a5, 0x20
   13952: 26 85        	mv	a0, s1
   13954: e3 52 07 fe  	bgez	a4, 0x13938 <enormlz+0x90>
   13958: 02 69        	ld	s2, 0x0(sp)
   1395a: e2 60        	ld	ra, 0x18(sp)
   1395c: 22 85        	mv	a0, s0
   1395e: 42 64        	ld	s0, 0x10(sp)
   13960: a2 64        	ld	s1, 0x8(sp)
   13962: 05 61        	addi	sp, sp, 0x20
   13964: 82 80        	ret
   13966: 4a e0        	sd	s2, 0x0(sp)
   13968: 13 07 f0 0f  	li	a4, 0xff
   1396c: 01 44        	li	s0, 0x0
   1396e: 63 60 f7 02  	bltu	a4, a5, 0x1398e <enormlz+0xe6>
   13972: 13 09 f0 f6  	li	s2, -0x91
   13976: 01 a8        	j	0x13986 <enormlz+0xde>
   13978: 7d 34        	addiw	s0, s0, -0x1
   1397a: ef f0 bf d9  	jal	0x13714 <eshdn1>
   1397e: e3 0d 24 fd  	beq	s0, s2, 0x13958 <enormlz+0xb0>
   13982: 83 d7 44 00  	lhu	a5, 0x4(s1)
   13986: 26 85        	mv	a0, s1
   13988: e5 fb        	bnez	a5, 0x13978 <enormlz+0xd0>
   1398a: 02 69        	ld	s2, 0x0(sp)
   1398c: f9 b7        	j	0x1395a <enormlz+0xb2>
   1398e: 13 07 45 00  	addi	a4, a0, 0x4
   13992: 93 05 a5 01  	addi	a1, a0, 0x1a
   13996: 81 47        	li	a5, 0x0
   13998: 83 56 07 00  	lhu	a3, 0x0(a4)
   1399c: 09 07        	addi	a4, a4, 0x2
   1399e: 1b d6 86 00  	srliw	a2, a3, 0x8
   139a2: d1 8f        	or	a5, a5, a2
   139a4: 9b 96 86 00  	slliw	a3, a3, 0x8
   139a8: 23 1f f7 fe  	sh	a5, -0x2(a4)
   139ac: 93 97 06 03  	slli	a5, a3, 0x30
   139b0: c1 93        	srli	a5, a5, 0x30
   139b2: e3 13 b7 fe  	bne	a4, a1, 0x13998 <enormlz+0xf0>
   139b6: 83 d7 44 00  	lhu	a5, 0x4(s1)
   139ba: 61 54        	li	s0, -0x8
   139bc: 5d bf        	j	0x13972 <enormlz+0xca>

00000000000139be <eshift.part.0>:
   139be: 79 71        	addi	sp, sp, -0x30
   139c0: 22 f0        	sd	s0, 0x20(sp)
   139c2: 26 ec        	sd	s1, 0x18(sp)
   139c4: 06 f4        	sd	ra, 0x28(sp)
   139c6: ae 84        	mv	s1, a1
   139c8: 2a 84        	mv	s0, a0
   139ca: 63 ce 05 06  	bltz	a1, 0x13a46 <eshift.part.0+0x88>
   139ce: bd 45        	li	a1, 0xf
   139d0: 11 05        	addi	a0, a0, 0x4
   139d2: 26 86        	mv	a2, s1
   139d4: 93 06 84 01  	addi	a3, s0, 0x18
   139d8: 63 da 95 10  	bge	a1, s1, 0x13aec <eshift.part.0+0x12e>
   139dc: aa 87        	mv	a5, a0
   139de: 03 d7 27 00  	lhu	a4, 0x2(a5)
   139e2: 89 07        	addi	a5, a5, 0x2
   139e4: 23 9f e7 fe  	sh	a4, -0x2(a5)
   139e8: e3 9b d7 fe  	bne	a5, a3, 0x139de <eshift.part.0+0x20>
   139ec: 23 1c 04 00  	sh	zero, 0x18(s0)
   139f0: 41 36        	addiw	a2, a2, -0x10
   139f2: e3 c5 c5 fe  	blt	a1, a2, 0x139dc <eshift.part.0+0x1e>
   139f6: 9b d7 44 00  	srliw	a5, s1, 0x4
   139fa: fd 37        	addiw	a5, a5, -0x1
   139fc: bb 07 f0 40  	negw	a5, a5
   13a00: 9b 97 47 00  	slliw	a5, a5, 0x4
   13a04: c1 34        	addiw	s1, s1, -0x10
   13a06: bd 9c        	addw	s1, s1, a5
   13a08: 9d 47        	li	a5, 0x7
   13a0a: 63 d2 97 02  	bge	a5, s1, 0x13a2e <eshift.part.0+0x70>
   13a0e: 93 05 24 00  	addi	a1, s0, 0x2
   13a12: 81 47        	li	a5, 0x0
   13a14: 03 d7 06 00  	lhu	a4, 0x0(a3)
   13a18: f9 16        	addi	a3, a3, -0x2
   13a1a: 1b 16 87 00  	slliw	a2, a4, 0x8
   13a1e: d1 8f        	or	a5, a5, a2
   13a20: 23 91 f6 00  	sh	a5, 0x2(a3)
   13a24: 93 57 87 00  	srli	a5, a4, 0x8
   13a28: e3 96 b6 fe  	bne	a3, a1, 0x13a14 <eshift.part.0+0x56>
   13a2c: e1 34        	addiw	s1, s1, -0x8
   13a2e: 91 c4        	beqz	s1, 0x13a3a <eshift.part.0+0x7c>
   13a30: 22 85        	mv	a0, s0
   13a32: fd 34        	addiw	s1, s1, -0x1
   13a34: ef f0 9f d2  	jal	0x1375c <eshup1>
   13a38: e5 fc        	bnez	s1, 0x13a30 <eshift.part.0+0x72>
   13a3a: 01 45        	li	a0, 0x0
   13a3c: a2 70        	ld	ra, 0x28(sp)
   13a3e: 02 74        	ld	s0, 0x20(sp)
   13a40: e2 64        	ld	s1, 0x18(sp)
   13a42: 45 61        	addi	sp, sp, 0x30
   13a44: 82 80        	ret
   13a46: 4a e8        	sd	s2, 0x10(sp)
   13a48: 4e e4        	sd	s3, 0x8(sp)
   13a4a: c5 57        	li	a5, -0xf
   13a4c: 3b 09 b0 40  	negw	s2, a1
   13a50: 63 d7 f5 0a  	bge	a1, a5, 0x13afe <eshift.part.0+0x140>
   13a54: 93 05 85 01  	addi	a1, a0, 0x18
   13a58: 81 49        	li	s3, 0x0
   13a5a: 93 06 45 00  	addi	a3, a0, 0x4
   13a5e: 3d 46        	li	a2, 0xf
   13a60: 03 57 84 01  	lhu	a4, 0x18(s0)
   13a64: ae 87        	mv	a5, a1
   13a66: b3 e9 e9 00  	or	s3, s3, a4
   13a6a: 03 d7 e7 ff  	lhu	a4, -0x2(a5)
   13a6e: f9 17        	addi	a5, a5, -0x2
   13a70: 23 91 e7 00  	sh	a4, 0x2(a5)
   13a74: e3 9b d7 fe  	bne	a5, a3, 0x13a6a <eshift.part.0+0xac>
   13a78: 23 12 04 00  	sh	zero, 0x4(s0)
   13a7c: 41 39        	addiw	s2, s2, -0x10
   13a7e: e3 41 26 ff  	blt	a2, s2, 0x13a60 <eshift.part.0+0xa2>
   13a82: 33 09 90 40  	neg	s2, s1
   13a86: 13 79 f9 00  	andi	s2, s2, 0xf
   13a8a: 9d 47        	li	a5, 0x7
   13a8c: 63 d9 27 03  	bge	a5, s2, 0x13abe <eshift.part.0+0x100>
   13a90: 83 47 84 01  	lbu	a5, 0x18(s0)
   13a94: 93 05 a4 01  	addi	a1, s0, 0x1a
   13a98: b3 e9 f9 00  	or	s3, s3, a5
   13a9c: 81 47        	li	a5, 0x0
   13a9e: 03 d7 06 00  	lhu	a4, 0x0(a3)
   13aa2: 89 06        	addi	a3, a3, 0x2
   13aa4: 1b 56 87 00  	srliw	a2, a4, 0x8
   13aa8: d1 8f        	or	a5, a5, a2
   13aaa: 1b 17 87 00  	slliw	a4, a4, 0x8
   13aae: 23 9f f6 fe  	sh	a5, -0x2(a3)
   13ab2: 93 17 07 03  	slli	a5, a4, 0x30
   13ab6: c1 93        	srli	a5, a5, 0x30
   13ab8: e3 93 b6 fe  	bne	a3, a1, 0x13a9e <eshift.part.0+0xe0>
   13abc: 61 39        	addiw	s2, s2, -0x8
   13abe: 63 0b 09 02  	beqz	s2, 0x13af4 <eshift.part.0+0x136>
   13ac2: 83 57 84 01  	lhu	a5, 0x18(s0)
   13ac6: 22 85        	mv	a0, s0
   13ac8: 7d 39        	addiw	s2, s2, -0x1
   13aca: 85 8b        	andi	a5, a5, 0x1
   13acc: b3 e9 f9 00  	or	s3, s3, a5
   13ad0: ef f0 5f c4  	jal	0x13714 <eshdn1>
   13ad4: e3 17 09 fe  	bnez	s2, 0x13ac2 <eshift.part.0+0x104>
   13ad8: a2 70        	ld	ra, 0x28(sp)
   13ada: 02 74        	ld	s0, 0x20(sp)
   13adc: 81 29        	sext.w	s3, s3
   13ade: 42 69        	ld	s2, 0x10(sp)
   13ae0: e2 64        	ld	s1, 0x18(sp)
   13ae2: 33 35 30 01  	snez	a0, s3
   13ae6: a2 69        	ld	s3, 0x8(sp)
   13ae8: 45 61        	addi	sp, sp, 0x30
   13aea: 82 80        	ret
   13aec: 9d 47        	li	a5, 0x7
   13aee: e3 c0 97 f2  	blt	a5, s1, 0x13a0e <eshift.part.0+0x50>
   13af2: 3d bf        	j	0x13a30 <eshift.part.0+0x72>
   13af4: 33 35 30 01  	snez	a0, s3
   13af8: 42 69        	ld	s2, 0x10(sp)
   13afa: a2 69        	ld	s3, 0x8(sp)
   13afc: 81 b7        	j	0x13a3c <eshift.part.0+0x7e>
   13afe: e5 57        	li	a5, -0x7
   13b00: 81 49        	li	s3, 0x0
   13b02: 93 06 45 00  	addi	a3, a0, 0x4
   13b06: e3 c5 f5 f8  	blt	a1, a5, 0x13a90 <eshift.part.0+0xd2>
   13b0a: 65 bf        	j	0x13ac2 <eshift.part.0+0x104>

0000000000013b0c <emovi>:
   13b0c: 83 57 25 01  	lhu	a5, 0x12(a0)
   13b10: a1 66        	lui	a3, 0x8
   13b12: fd 16        	addi	a3, a3, -0x1
   13b14: 9b d7 f7 00  	srliw	a5, a5, 0xf
   13b18: bb 07 f0 40  	negw	a5, a5
   13b1c: 23 90 f5 00  	sh	a5, 0x0(a1)
   13b20: 03 57 25 01  	lhu	a4, 0x12(a0)
   13b24: 93 07 05 01  	addi	a5, a0, 0x10
   13b28: 75 8f        	and	a4, a4, a3
   13b2a: 23 91 e5 00  	sh	a4, 0x2(a1)
   13b2e: 1b 06 07 00  	sext.w	a2, a4
   13b32: 63 02 d7 02  	beq	a4, a3, 0x13b56 <emovi+0x4a>
   13b36: 23 92 05 00  	sh	zero, 0x4(a1)
   13b3a: 79 15        	addi	a0, a0, -0x2
   13b3c: 13 87 65 00  	addi	a4, a1, 0x6
   13b40: 83 d6 07 00  	lhu	a3, 0x0(a5)
   13b44: f9 17        	addi	a5, a5, -0x2
   13b46: 09 07        	addi	a4, a4, 0x2
   13b48: 23 1f d7 fe  	sh	a3, -0x2(a4)
   13b4c: e3 9a a7 fe  	bne	a5, a0, 0x13b40 <emovi+0x34>
   13b50: 23 9c 05 00  	sh	zero, 0x18(a1)
   13b54: 82 80        	ret
   13b56: 03 57 25 01  	lhu	a4, 0x12(a0)
   13b5a: 71 8f        	and	a4, a4, a2
   13b5c: 63 1b c7 00  	bne	a4, a2, 0x13b72 <emovi+0x66>
   13b60: 13 06 25 01  	addi	a2, a0, 0x12
   13b64: 2a 87        	mv	a4, a0
   13b66: 83 56 07 00  	lhu	a3, 0x0(a4)
   13b6a: 09 07        	addi	a4, a4, 0x2
   13b6c: 81 ee        	bnez	a3, 0x13b84 <emovi+0x78>
   13b6e: e3 1c c7 fe  	bne	a4, a2, 0x13b66 <emovi+0x5a>
   13b72: 93 87 45 00  	addi	a5, a1, 0x4
   13b76: e9 05        	addi	a1, a1, 0x1a
   13b78: 89 07        	addi	a5, a5, 0x2
   13b7a: 23 9f 07 fe  	sh	zero, -0x2(a5)
   13b7e: e3 9d b7 fe  	bne	a5, a1, 0x13b78 <emovi+0x6c>
   13b82: 82 80        	ret
   13b84: 23 92 05 00  	sh	zero, 0x4(a1)
   13b88: 71 15        	addi	a0, a0, -0x4
   13b8a: 99 05        	addi	a1, a1, 0x6
   13b8c: 03 d7 07 00  	lhu	a4, 0x0(a5)
   13b90: f9 17        	addi	a5, a5, -0x2
   13b92: 89 05        	addi	a1, a1, 0x2
   13b94: 23 9f e5 fe  	sh	a4, -0x2(a1)
   13b98: e3 1a f5 fe  	bne	a0, a5, 0x13b8c <emovi+0x80>
   13b9c: 82 80        	ret

0000000000013b9e <ecmp>:
   13b9e: 83 57 25 01  	lhu	a5, 0x12(a0)
   13ba2: 5d 71        	addi	sp, sp, -0x50
   13ba4: a2 e0        	sd	s0, 0x40(sp)
   13ba6: 93 c7 f7 ff  	not	a5, a5
   13baa: 86 e4        	sd	ra, 0x48(sp)
   13bac: 13 97 17 03  	slli	a4, a5, 0x31
   13bb0: 2e 84        	mv	s0, a1
   13bb2: 11 eb        	bnez	a4, 0x13bc6 <ecmp+0x28>
   13bb4: 93 06 25 01  	addi	a3, a0, 0x12
   13bb8: aa 87        	mv	a5, a0
   13bba: 03 d7 07 00  	lhu	a4, 0x0(a5)
   13bbe: 89 07        	addi	a5, a5, 0x2
   13bc0: 25 eb        	bnez	a4, 0x13c30 <ecmp+0x92>
   13bc2: e3 9c d7 fe  	bne	a5, a3, 0x13bba <ecmp+0x1c>
   13bc6: 83 57 24 01  	lhu	a5, 0x12(s0)
   13bca: 93 c7 f7 ff  	not	a5, a5
   13bce: 13 97 17 03  	slli	a4, a5, 0x31
   13bd2: 31 c3        	beqz	a4, 0x13c16 <ecmp+0x78>
   13bd4: 8a 85        	mv	a1, sp
   13bd6: ef f0 7f f3  	jal	0x13b0c <emovi>
   13bda: 0c 10        	addi	a1, sp, 0x20
   13bdc: 22 85        	mv	a0, s0
   13bde: ef f0 ff f2  	jal	0x13b0c <emovi>
   13be2: 83 55 01 00  	lhu	a1, 0x0(sp)
   13be6: 83 57 01 02  	lhu	a5, 0x20(sp)
   13bea: 63 88 b7 04  	beq	a5, a1, 0x13c3a <ecmp+0x9c>
   13bee: 93 07 21 00  	addi	a5, sp, 0x2
   13bf2: 13 07 21 02  	addi	a4, sp, 0x22
   13bf6: 30 08        	addi	a2, sp, 0x18
   13bf8: 83 d6 07 00  	lhu	a3, 0x0(a5)
   13bfc: 89 07        	addi	a5, a5, 0x2
   13bfe: b5 ea        	bnez	a3, 0x13c72 <ecmp+0xd4>
   13c00: 83 56 07 00  	lhu	a3, 0x0(a4)
   13c04: 09 07        	addi	a4, a4, 0x2
   13c06: b5 e6        	bnez	a3, 0x13c72 <ecmp+0xd4>
   13c08: e3 98 c7 fe  	bne	a5, a2, 0x13bf8 <ecmp+0x5a>
   13c0c: 01 45        	li	a0, 0x0
   13c0e: a6 60        	ld	ra, 0x48(sp)
   13c10: 06 64        	ld	s0, 0x40(sp)
   13c12: 61 61        	addi	sp, sp, 0x50
   13c14: 82 80        	ret
   13c16: a2 87        	mv	a5, s0
   13c18: 03 d7 07 00  	lhu	a4, 0x0(a5)
   13c1c: 89 07        	addi	a5, a5, 0x2
   13c1e: 93 06 24 01  	addi	a3, s0, 0x12
   13c22: 19 e7        	bnez	a4, 0x13c30 <ecmp+0x92>
   13c24: e3 88 f6 fa  	beq	a3, a5, 0x13bd4 <ecmp+0x36>
   13c28: 03 d7 07 00  	lhu	a4, 0x0(a5)
   13c2c: 89 07        	addi	a5, a5, 0x2
   13c2e: 7d db        	beqz	a4, 0x13c24 <ecmp+0x86>
   13c30: a6 60        	ld	ra, 0x48(sp)
   13c32: 06 64        	ld	s0, 0x40(sp)
   13c34: 79 55        	li	a0, -0x2
   13c36: 61 61        	addi	sp, sp, 0x50
   13c38: 82 80        	ret
   13c3a: 7d 55        	li	a0, -0x1
   13c3c: a9 c1        	beqz	a1, 0x13c7e <ecmp+0xe0>
   13c3e: 18 10        	addi	a4, sp, 0x20
   13c40: 8a 87        	mv	a5, sp
   13c42: 03 d6 07 00  	lhu	a2, 0x0(a5)
   13c46: 83 56 07 00  	lhu	a3, 0x0(a4)
   13c4a: 89 07        	addi	a5, a5, 0x2
   13c4c: 09 07        	addi	a4, a4, 0x2
   13c4e: 2c 08        	addi	a1, sp, 0x18
   13c50: 63 1c d6 00  	bne	a2, a3, 0x13c68 <ecmp+0xca>
   13c54: e3 8c b7 fa  	beq	a5, a1, 0x13c0c <ecmp+0x6e>
   13c58: 03 d6 07 00  	lhu	a2, 0x0(a5)
   13c5c: 83 56 07 00  	lhu	a3, 0x0(a4)
   13c60: 89 07        	addi	a5, a5, 0x2
   13c62: 09 07        	addi	a4, a4, 0x2
   13c64: e3 08 d6 fe  	beq	a2, a3, 0x13c54 <ecmp+0xb6>
   13c68: e3 e3 c6 fa  	bltu	a3, a2, 0x13c0e <ecmp+0x70>
   13c6c: 3b 05 a0 40  	negw	a0, a0
   13c70: 79 bf        	j	0x13c0e <ecmp+0x70>
   13c72: 81 e9        	bnez	a1, 0x13c82 <ecmp+0xe4>
   13c74: a6 60        	ld	ra, 0x48(sp)
   13c76: 06 64        	ld	s0, 0x40(sp)
   13c78: 05 45        	li	a0, 0x1
   13c7a: 61 61        	addi	sp, sp, 0x50
   13c7c: 82 80        	ret
   13c7e: 05 45        	li	a0, 0x1
   13c80: 7d bf        	j	0x13c3e <ecmp+0xa0>
   13c82: 7d 55        	li	a0, -0x1
   13c84: 69 b7        	j	0x13c0e <ecmp+0x70>

0000000000013c86 <emdnorm>:
   13c86: 39 71        	addi	sp, sp, -0x40
   13c88: 22 f8        	sd	s0, 0x30(sp)
   13c8a: 26 f4        	sd	s1, 0x28(sp)
   13c8c: 4a f0        	sd	s2, 0x20(sp)
   13c8e: 4e ec        	sd	s3, 0x18(sp)
   13c90: 52 e8        	sd	s4, 0x10(sp)
   13c92: 56 e4        	sd	s5, 0x8(sp)
   13c94: 36 89        	mv	s2, a3
   13c96: 3e 84        	mv	s0, a5
   13c98: 06 fc        	sd	ra, 0x38(sp)
   13c9a: ae 89        	mv	s3, a1
   13c9c: 32 8a        	mv	s4, a2
   13c9e: ba 8a        	mv	s5, a4
   13ca0: aa 84        	mv	s1, a0
   13ca2: ef f0 7f c0  	jal	0x138a8 <enormlz>
   13ca6: 93 07 00 09  	li	a5, 0x90
   13caa: 33 09 a9 40  	sub	s2, s2, a0
   13cae: 63 dc a7 06  	bge	a5, a0, 0x13d26 <emdnorm+0xa0>
   13cb2: a1 67        	lui	a5, 0x8
   13cb4: f9 17        	addi	a5, a5, -0x2
   13cb6: 63 d8 27 21  	bge	a5, s2, 0x13ec6 <emdnorm+0x240>
   13cba: 63 89 0a 12  	beqz	s5, 0x13dec <emdnorm+0x166>
   13cbe: 83 2a 44 00  	lw	s5, 0x4(s0)
   13cc2: 1c 40        	lw	a5, 0x0(s0)
   13cc4: 63 88 fa 18  	beq	s5, a5, 0x13e54 <emdnorm+0x1ce>
   13cc8: 13 07 a4 01  	addi	a4, s0, 0x1a
   13ccc: 93 07 44 03  	addi	a5, s0, 0x34
   13cd0: 09 07        	addi	a4, a4, 0x2
   13cd2: 23 1f 07 fe  	sh	zero, -0x2(a4)
   13cd6: e3 9d e7 fe  	bne	a5, a4, 0x13cd0 <emdnorm+0x4a>
   13cda: 93 07 80 03  	li	a5, 0x38
   13cde: 63 8a fa 28  	beq	s5, a5, 0x13f72 <emdnorm+0x2ec>
   13ce2: 63 d5 57 13  	bge	a5, s5, 0x13e0c <emdnorm+0x186>
   13ce6: 93 07 00 04  	li	a5, 0x40
   13cea: 63 85 fa 30  	beq	s5, a5, 0x13ff4 <emdnorm+0x36e>
   13cee: 93 07 10 07  	li	a5, 0x71
   13cf2: 63 90 fa 2e  	bne	s5, a5, 0x13fd2 <emdnorm+0x34c>
   13cf6: b7 87 00 40  	lui	a5, 0x40008
   13cfa: a9 46        	li	a3, 0xa
   13cfc: 61 77        	lui	a4, 0xffff8
   13cfe: fd 17        	addi	a5, a5, -0x1
   13d00: 23 20 54 01  	sw	s5, 0x0(s0)
   13d04: 5c c8        	sw	a5, 0x14(s0)
   13d06: 14 c4        	sw	a3, 0x8(s0)
   13d08: 54 c4        	sw	a3, 0xc(s0)
   13d0a: 23 1c e4 00  	sh	a4, 0x18(s0)
   13d0e: 23 17 e4 02  	sh	a4, 0x2e(s0)
   13d12: 63 57 20 13  	blez	s2, 0x13e40 <emdnorm+0x1ba>
   13d16: 03 d6 44 01  	lhu	a2, 0x14(s1)
   13d1a: 93 85 44 01  	addi	a1, s1, 0x14
   13d1e: ad 46        	li	a3, 0xb
   13d20: 46 16        	slli	a2, a2, 0x31
   13d22: 45 92        	srli	a2, a2, 0x31
   13d24: cd aa        	j	0x13f16 <emdnorm+0x290>
   13d26: 63 46 09 0a  	bltz	s2, 0x13dd2 <emdnorm+0x14c>
   13d2a: 63 83 0a 08  	beqz	s5, 0x13db0 <emdnorm+0x12a>
   13d2e: 83 2a 44 00  	lw	s5, 0x4(s0)
   13d32: 1c 40        	lw	a5, 0x0(s0)
   13d34: e3 9a fa f8  	bne	s5, a5, 0x13cc8 <emdnorm+0x42>
   13d38: 63 4d 20 31  	bgtz	s2, 0x14052 <emdnorm+0x3cc>
   13d3c: 13 07 00 09  	li	a4, 0x90
   13d40: 63 9b e7 30  	bne	a5, a4, 0x14056 <emdnorm+0x3d0>
   13d44: 18 44        	lw	a4, 0x8(s0)
   13d46: 83 55 44 01  	lhu	a1, 0x14(s0)
   13d4a: 06 07        	slli	a4, a4, 0x1
   13d4c: 26 97        	add	a4, a4, s1
   13d4e: 83 56 07 00  	lhu	a3, 0x0(a4)
   13d52: 13 c6 f5 ff  	not	a2, a1
   13d56: 75 8e        	and	a2, a2, a3
   13d58: 23 10 c7 00  	sh	a2, 0x0(a4)
   13d5c: 03 57 64 01  	lhu	a4, 0x16(s0)
   13d60: ed 8e        	and	a3, a3, a1
   13d62: 33 f6 e6 00  	and	a2, a3, a4
   13d66: 63 0e 06 1e  	beqz	a2, 0x13f62 <emdnorm+0x2dc>
   13d6a: be 8a        	mv	s5, a5
   13d6c: 63 96 e6 00  	bne	a3, a4, 0x13d78 <emdnorm+0xf2>
   13d70: 63 8e 09 10  	beqz	s3, 0x13e8c <emdnorm+0x206>
   13d74: 63 18 0a 12  	bnez	s4, 0x13ea4 <emdnorm+0x21e>
   13d78: 93 07 24 03  	addi	a5, s0, 0x32
   13d7c: 13 86 84 01  	addi	a2, s1, 0x18
   13d80: 13 85 24 00  	addi	a0, s1, 0x2
   13d84: 81 46        	li	a3, 0x0
   13d86: 03 d7 07 00  	lhu	a4, 0x0(a5)
   13d8a: 83 55 06 00  	lhu	a1, 0x0(a2)
   13d8e: 79 16        	addi	a2, a2, -0x2
   13d90: f9 17        	addi	a5, a5, -0x2
   13d92: 2e 97        	add	a4, a4, a1
   13d94: 36 97        	add	a4, a4, a3
   13d96: 23 11 e6 00  	sh	a4, 0x2(a2)
   13d9a: 41 83        	srli	a4, a4, 0x10
   13d9c: 93 76 17 00  	andi	a3, a4, 0x1
   13da0: e3 13 c5 fe  	bne	a0, a2, 0x13d86 <emdnorm+0x100>
   13da4: 63 50 20 11  	blez	s2, 0x13ea4 <emdnorm+0x21e>
   13da8: 83 d7 44 00  	lhu	a5, 0x4(s1)
   13dac: 63 96 07 14  	bnez	a5, 0x13ef8 <emdnorm+0x272>
   13db0: a1 67        	lui	a5, 0x8
   13db2: 23 9c 04 00  	sh	zero, 0x18(s1)
   13db6: f9 17        	addi	a5, a5, -0x2
   13db8: 63 cc 27 03  	blt	a5, s2, 0x13df0 <emdnorm+0x16a>
   13dbc: 23 91 24 01  	sh	s2, 0x2(s1)
   13dc0: e2 70        	ld	ra, 0x38(sp)
   13dc2: 42 74        	ld	s0, 0x30(sp)
   13dc4: a2 74        	ld	s1, 0x28(sp)
   13dc6: 02 79        	ld	s2, 0x20(sp)
   13dc8: e2 69        	ld	s3, 0x18(sp)
   13dca: 42 6a        	ld	s4, 0x10(sp)
   13dcc: a2 6a        	ld	s5, 0x8(sp)
   13dce: 21 61        	addi	sp, sp, 0x40
   13dd0: 82 80        	ret
   13dd2: 93 07 00 f7  	li	a5, -0x90
   13dd6: 63 51 f9 10  	bge	s2, a5, 0x13ed8 <emdnorm+0x252>
   13dda: 93 87 24 00  	addi	a5, s1, 0x2
   13dde: e9 04        	addi	s1, s1, 0x1a
   13de0: 89 07        	addi	a5, a5, 0x2
   13de2: 23 9f 07 fe  	sh	zero, -0x2(a5)
   13de6: e3 9d f4 fe  	bne	s1, a5, 0x13de0 <emdnorm+0x15a>
   13dea: d9 bf        	j	0x13dc0 <emdnorm+0x13a>
   13dec: 23 9c 04 00  	sh	zero, 0x18(s1)
   13df0: e1 77        	lui	a5, 0xffff8
   13df2: 93 c7 f7 ff  	not	a5, a5
   13df6: 23 91 f4 00  	sh	a5, 0x2(s1)
   13dfa: 93 87 44 00  	addi	a5, s1, 0x4
   13dfe: e1 04        	addi	s1, s1, 0x18
   13e00: 23 90 07 00  	sh	zero, 0x0(a5)
   13e04: 89 07        	addi	a5, a5, 0x2
   13e06: e3 9d f4 fe  	bne	s1, a5, 0x13e00 <emdnorm+0x17a>
   13e0a: 5d bf        	j	0x13dc0 <emdnorm+0x13a>
   13e0c: e1 47        	li	a5, 0x18
   13e0e: 63 8a fa 18  	beq	s5, a5, 0x13fa2 <emdnorm+0x31c>
   13e12: 93 07 50 03  	li	a5, 0x35
   13e16: 63 9e fa 1a  	bne	s5, a5, 0x13fd2 <emdnorm+0x34c>
   13e1a: 37 07 00 04  	lui	a4, 0x4000
   13e1e: 85 67        	lui	a5, 0x1
   13e20: 93 87 07 80  	addi	a5, a5, -0x800
   13e24: 99 46        	li	a3, 0x6
   13e26: 13 07 f7 7f  	addi	a4, a4, 0x7ff
   13e2a: 23 20 54 01  	sw	s5, 0x0(s0)
   13e2e: 58 c8        	sw	a4, 0x14(s0)
   13e30: 23 1c f4 00  	sh	a5, 0x18(s0)
   13e34: 23 13 f4 02  	sh	a5, 0x26(s0)
   13e38: 14 c4        	sw	a3, 0x8(s0)
   13e3a: 54 c4        	sw	a3, 0xc(s0)
   13e3c: 63 4e 20 1f  	bgtz	s2, 0x14038 <emdnorm+0x3b2>
   13e40: 83 d7 84 01  	lhu	a5, 0x18(s1)
   13e44: 26 85        	mv	a0, s1
   13e46: 85 8b        	andi	a5, a5, 0x1
   13e48: b3 e7 f9 00  	or	a5, s3, a5
   13e4c: 9b 89 07 00  	sext.w	s3, a5
   13e50: ef f0 5f 8c  	jal	0x13714 <eshdn1>
   13e54: 14 44        	lw	a3, 0x8(s0)
   13e56: 03 57 44 01  	lhu	a4, 0x14(s0)
   13e5a: 13 05 f0 08  	li	a0, 0x8f
   13e5e: 93 95 16 00  	slli	a1, a3, 0x1
   13e62: a6 95        	add	a1, a1, s1
   13e64: 83 d7 05 00  	lhu	a5, 0x0(a1)
   13e68: 33 f6 e7 00  	and	a2, a5, a4
   13e6c: 63 51 55 0b  	bge	a0, s5, 0x13f0e <emdnorm+0x288>
   13e70: 13 47 f7 ff  	not	a4, a4
   13e74: f9 8f        	and	a5, a5, a4
   13e76: 23 90 f5 00  	sh	a5, 0x0(a1)
   13e7a: 83 57 64 01  	lhu	a5, 0x16(s0)
   13e7e: 33 f7 c7 00  	and	a4, a5, a2
   13e82: 0d d3        	beqz	a4, 0x13da4 <emdnorm+0x11e>
   13e84: e3 9a c7 ee  	bne	a5, a2, 0x13d78 <emdnorm+0xf2>
   13e88: 63 95 09 1a  	bnez	s3, 0x14032 <emdnorm+0x3ac>
   13e8c: 5c 44        	lw	a5, 0xc(s0)
   13e8e: 03 57 84 01  	lhu	a4, 0x18(s0)
   13e92: 86 07        	slli	a5, a5, 0x1
   13e94: a6 97        	add	a5, a5, s1
   13e96: 83 d7 07 00  	lhu	a5, 0x0(a5)
   13e9a: f9 8f        	and	a5, a5, a4
   13e9c: e3 9e 07 ec  	bnez	a5, 0x13d78 <emdnorm+0xf2>
   13ea0: e3 44 20 f1  	bgtz	s2, 0x13da8 <emdnorm+0x122>
   13ea4: 93 07 00 09  	li	a5, 0x90
   13ea8: 63 8d fa 0a  	beq	s5, a5, 0x13f62 <emdnorm+0x2dc>
   13eac: 26 85        	mv	a0, s1
   13eae: ef f0 ff 8a  	jal	0x1375c <eshup1>
   13eb2: 83 d7 44 00  	lhu	a5, 0x4(s1)
   13eb6: cd eb        	bnez	a5, 0x13f68 <emdnorm+0x2e2>
   13eb8: 23 9c 04 00  	sh	zero, 0x18(s1)
   13ebc: e3 50 09 f0  	bgez	s2, 0x13dbc <emdnorm+0x136>
   13ec0: 23 91 04 00  	sh	zero, 0x2(s1)
   13ec4: f5 bd        	j	0x13dc0 <emdnorm+0x13a>
   13ec6: 93 87 24 00  	addi	a5, s1, 0x2
   13eca: e9 04        	addi	s1, s1, 0x1a
   13ecc: 89 07        	addi	a5, a5, 0x2
   13ece: 23 9f 07 fe  	sh	zero, -0x2(a5)
   13ed2: e3 9d 97 fe  	bne	a5, s1, 0x13ecc <emdnorm+0x246>
   13ed6: ed b5        	j	0x13dc0 <emdnorm+0x13a>
   13ed8: 9b 05 09 00  	sext.w	a1, s2
   13edc: 26 85        	mv	a0, s1
   13ede: ef f0 1f ae  	jal	0x139be <eshift.part.0>
   13ee2: 63 00 05 14  	beqz	a0, 0x14022 <emdnorm+0x39c>
   13ee6: 63 81 0a 16  	beqz	s5, 0x14048 <emdnorm+0x3c2>
   13eea: 83 2a 44 00  	lw	s5, 0x4(s0)
   13eee: 1c 40        	lw	a5, 0x0(s0)
   13ef0: aa 89        	mv	s3, a0
   13ef2: e3 9b fa dc  	bne	s5, a5, 0x13cc8 <emdnorm+0x42>
   13ef6: 99 b5        	j	0x13d3c <emdnorm+0xb6>
   13ef8: 26 85        	mv	a0, s1
   13efa: ef f0 bf 81  	jal	0x13714 <eshdn1>
   13efe: a1 67        	lui	a5, 0x8
   13f00: 05 09        	addi	s2, s2, 0x1
   13f02: 23 9c 04 00  	sh	zero, 0x18(s1)
   13f06: f9 17        	addi	a5, a5, -0x2
   13f08: e3 da 27 eb  	bge	a5, s2, 0x13dbc <emdnorm+0x136>
   13f0c: d5 b5        	j	0x13df0 <emdnorm+0x16a>
   13f0e: 85 26        	addiw	a3, a3, 0x1
   13f10: 31 45        	li	a0, 0xc
   13f12: e3 4f d5 f4  	blt	a0, a3, 0x13e70 <emdnorm+0x1ea>
   13f16: 31 47        	li	a4, 0xc
   13f18: 15 9f        	subw	a4, a4, a3
   13f1a: 02 17        	slli	a4, a4, 0x20
   13f1c: 01 93        	srli	a4, a4, 0x20
   13f1e: 36 97        	add	a4, a4, a3
   13f20: 93 97 16 00  	slli	a5, a3, 0x1
   13f24: 13 85 24 00  	addi	a0, s1, 0x2
   13f28: 06 07        	slli	a4, a4, 0x1
   13f2a: a6 97        	add	a5, a5, s1
   13f2c: 2a 97        	add	a4, a4, a0
   13f2e: 83 d6 07 00  	lhu	a3, 0x0(a5)
   13f32: 99 c2        	beqz	a3, 0x13f38 <emdnorm+0x2b2>
   13f34: 13 66 16 00  	ori	a2, a2, 0x1
   13f38: 23 90 07 00  	sh	zero, 0x0(a5)
   13f3c: 89 07        	addi	a5, a5, 0x2
   13f3e: e3 98 e7 fe  	bne	a5, a4, 0x13f2e <emdnorm+0x2a8>
   13f42: 03 57 44 01  	lhu	a4, 0x14(s0)
   13f46: 83 d7 05 00  	lhu	a5, 0x0(a1)
   13f4a: 13 47 f7 ff  	not	a4, a4
   13f4e: f9 8f        	and	a5, a5, a4
   13f50: 23 90 f5 00  	sh	a5, 0x0(a1)
   13f54: 83 57 64 01  	lhu	a5, 0x16(s0)
   13f58: 33 f7 c7 00  	and	a4, a5, a2
   13f5c: e3 04 07 e4  	beqz	a4, 0x13da4 <emdnorm+0x11e>
   13f60: 15 b7        	j	0x13e84 <emdnorm+0x1fe>
   13f62: 83 d7 44 00  	lhu	a5, 0x4(s1)
   13f66: a9 db        	beqz	a5, 0x13eb8 <emdnorm+0x232>
   13f68: 26 85        	mv	a0, s1
   13f6a: ef f0 af fa  	jal	0x13714 <eshdn1>
   13f6e: 05 09        	addi	s2, s2, 0x1
   13f70: a1 b7        	j	0x13eb8 <emdnorm+0x232>
   13f72: b7 07 80 00  	lui	a5, 0x800
   13f76: 99 46        	li	a3, 0x6
   13f78: 13 07 00 10  	li	a4, 0x100
   13f7c: 93 87 f7 0f  	addi	a5, a5, 0xff
   13f80: 23 20 54 01  	sw	s5, 0x0(s0)
   13f84: 5c c8        	sw	a5, 0x14(s0)
   13f86: 14 c4        	sw	a3, 0x8(s0)
   13f88: 54 c4        	sw	a3, 0xc(s0)
   13f8a: 23 1c e4 00  	sh	a4, 0x18(s0)
   13f8e: 23 13 e4 02  	sh	a4, 0x26(s0)
   13f92: e3 57 20 eb  	blez	s2, 0x13e40 <emdnorm+0x1ba>
   13f96: 03 c6 c4 00  	lbu	a2, 0xc(s1)
   13f9a: 93 85 c4 00  	addi	a1, s1, 0xc
   13f9e: 9d 46        	li	a3, 0x7
   13fa0: 9d bf        	j	0x13f16 <emdnorm+0x290>
   13fa2: b7 07 80 00  	lui	a5, 0x800
   13fa6: 91 46        	li	a3, 0x4
   13fa8: 13 07 00 10  	li	a4, 0x100
   13fac: 93 87 f7 0f  	addi	a5, a5, 0xff
   13fb0: 23 20 54 01  	sw	s5, 0x0(s0)
   13fb4: 5c c8        	sw	a5, 0x14(s0)
   13fb6: 14 c4        	sw	a3, 0x8(s0)
   13fb8: 54 c4        	sw	a3, 0xc(s0)
   13fba: 23 1c e4 00  	sh	a4, 0x18(s0)
   13fbe: 23 11 e4 02  	sh	a4, 0x22(s0)
   13fc2: e3 5f 20 e7  	blez	s2, 0x13e40 <emdnorm+0x1ba>
   13fc6: 03 c6 84 00  	lbu	a2, 0x8(s1)
   13fca: 93 85 84 00  	addi	a1, s1, 0x8
   13fce: 95 46        	li	a3, 0x5
   13fd0: 99 b7        	j	0x13f16 <emdnorm+0x290>
   13fd2: 37 07 01 80  	lui	a4, 0x80010
   13fd6: 85 46        	li	a3, 0x1
   13fd8: 7d 17        	addi	a4, a4, -0x1
   13fda: b1 45        	li	a1, 0xc
   13fdc: 2d 46        	li	a2, 0xb
   13fde: 23 20 54 01  	sw	s5, 0x0(s0)
   13fe2: d6 87        	mv	a5, s5
   13fe4: 58 c8        	sw	a4, 0x14(s0)
   13fe6: 0c c4        	sw	a1, 0x8(s0)
   13fe8: 23 1c d4 00  	sh	a3, 0x18(s0)
   13fec: 23 18 d4 02  	sh	a3, 0x30(s0)
   13ff0: 50 c4        	sw	a2, 0xc(s0)
   13ff2: 99 b3        	j	0x13d38 <emdnorm+0xb2>
   13ff4: b7 07 01 80  	lui	a5, 0x80010
   13ff8: 05 47        	li	a4, 0x1
   13ffa: fd 17        	addi	a5, a5, -0x1
   13ffc: 1d 46        	li	a2, 0x7
   13ffe: 99 46        	li	a3, 0x6
   14000: 23 20 54 01  	sw	s5, 0x0(s0)
   14004: 5c c8        	sw	a5, 0x14(s0)
   14006: 10 c4        	sw	a2, 0x8(s0)
   14008: 23 1c e4 00  	sh	a4, 0x18(s0)
   1400c: 23 13 e4 02  	sh	a4, 0x26(s0)
   14010: 54 c4        	sw	a3, 0xc(s0)
   14012: e3 57 20 e3  	blez	s2, 0x13e40 <emdnorm+0x1ba>
   14016: 03 d6 e4 00  	lhu	a2, 0xe(s1)
   1401a: 93 85 e4 00  	addi	a1, s1, 0xe
   1401e: a1 46        	li	a3, 0x8
   14020: dd bd        	j	0x13f16 <emdnorm+0x290>
   14022: 63 83 0a 02  	beqz	s5, 0x14048 <emdnorm+0x3c2>
   14026: 83 2a 44 00  	lw	s5, 0x4(s0)
   1402a: 1c 40        	lw	a5, 0x0(s0)
   1402c: e3 9e fa c8  	bne	s5, a5, 0x13cc8 <emdnorm+0x42>
   14030: 31 b3        	j	0x13d3c <emdnorm+0xb6>
   14032: e3 03 0a d4  	beqz	s4, 0x13d78 <emdnorm+0xf2>
   14036: bd b3        	j	0x13da4 <emdnorm+0x11e>
   14038: 03 d6 c4 00  	lhu	a2, 0xc(s1)
   1403c: 93 85 c4 00  	addi	a1, s1, 0xc
   14040: 9d 46        	li	a3, 0x7
   14042: 13 76 f6 7f  	andi	a2, a2, 0x7ff
   14046: c1 bd        	j	0x13f16 <emdnorm+0x290>
   14048: 23 9c 04 00  	sh	zero, 0x18(s1)
   1404c: 23 91 04 00  	sh	zero, 0x2(s1)
   14050: 85 bb        	j	0x13dc0 <emdnorm+0x13a>
   14052: be 8a        	mv	s5, a5
   14054: 01 b5        	j	0x13e54 <emdnorm+0x1ce>
   14056: be 8a        	mv	s5, a5
   14058: e5 b3        	j	0x13e40 <emdnorm+0x1ba>

000000000001405a <eiremain>:
   1405a: 1d 71        	addi	sp, sp, -0x60
   1405c: a6 e4        	sd	s1, 0x48(sp)
   1405e: ca e0        	sd	s2, 0x40(sp)
   14060: ae 84        	mv	s1, a1
   14062: 03 59 25 00  	lhu	s2, 0x2(a0)
   14066: 86 ec        	sd	ra, 0x58(sp)
   14068: a2 e8        	sd	s0, 0x50(sp)
   1406a: 4e fc        	sd	s3, 0x38(sp)
   1406c: 32 84        	mv	s0, a2
   1406e: 93 09 46 03  	addi	s3, a2, 0x34
   14072: 52 f8        	sd	s4, 0x30(sp)
   14074: 6a e0        	sd	s10, 0x0(sp)
   14076: 2a 8a        	mv	s4, a0
   14078: ef f0 1f 83  	jal	0x138a8 <enormlz>
   1407c: 03 dd 24 00  	lhu	s10, 0x2(s1)
   14080: aa 87        	mv	a5, a0
   14082: 26 85        	mv	a0, s1
   14084: 33 09 f9 40  	sub	s2, s2, a5
   14088: ef f0 1f 82  	jal	0x138a8 <enormlz>
   1408c: 33 0d ad 40  	sub	s10, s10, a0
   14090: 13 07 e4 04  	addi	a4, s0, 0x4e
   14094: ce 87        	mv	a5, s3
   14096: 89 07        	addi	a5, a5, 0x2
   14098: 23 9f 07 fe  	sh	zero, -0x2(a5)
   1409c: e3 1d f7 fe  	bne	a4, a5, 0x14096 <eiremain+0x3c>
   140a0: 63 45 2d 09  	blt	s10, s2, 0x1412a <eiremain+0xd0>
   140a4: 56 f4        	sd	s5, 0x28(sp)
   140a6: 5a f0        	sd	s6, 0x20(sp)
   140a8: 5e ec        	sd	s7, 0x18(sp)
   140aa: 62 e8        	sd	s8, 0x10(sp)
   140ac: 66 e4        	sd	s9, 0x8(sp)
   140ae: 13 0b 4a 00  	addi	s6, s4, 0x4
   140b2: 93 8a 44 00  	addi	s5, s1, 0x4
   140b6: 93 0b aa 01  	addi	s7, s4, 0x1a
   140ba: 13 8c 24 00  	addi	s8, s1, 0x2
   140be: 56 87        	mv	a4, s5
   140c0: da 87        	mv	a5, s6
   140c2: 83 d5 07 00  	lhu	a1, 0x0(a5)
   140c6: 03 56 07 00  	lhu	a2, 0x0(a4)
   140ca: 89 07        	addi	a5, a5, 0x2
   140cc: 09 07        	addi	a4, a4, 0x2
   140ce: 63 9e c5 06  	bne	a1, a2, 0x1414a <eiremain+0xf0>
   140d2: e3 98 fb fe  	bne	s7, a5, 0x140c2 <eiremain+0x68>
   140d6: 13 06 8a 01  	addi	a2, s4, 0x18
   140da: 13 87 84 01  	addi	a4, s1, 0x18
   140de: 81 45        	li	a1, 0x0
   140e0: 83 57 07 00  	lhu	a5, 0x0(a4)
   140e4: 03 58 06 00  	lhu	a6, 0x0(a2)
   140e8: 79 17        	addi	a4, a4, -0x2
   140ea: 79 16        	addi	a2, a2, -0x2
   140ec: b3 87 07 41  	sub	a5, a5, a6
   140f0: 8d 8f        	sub	a5, a5, a1
   140f2: 23 11 f7 00  	sh	a5, 0x2(a4)
   140f6: c1 83        	srli	a5, a5, 0x10
   140f8: 93 f5 17 00  	andi	a1, a5, 0x1
   140fc: e3 12 ec fe  	bne	s8, a4, 0x140e0 <eiremain+0x86>
   14100: 85 4c        	li	s9, 0x1
   14102: 4e 85        	mv	a0, s3
   14104: ef f0 8f e5  	jal	0x1375c <eshup1>
   14108: 83 57 c4 04  	lhu	a5, 0x4c(s0)
   1410c: 26 85        	mv	a0, s1
   1410e: 7d 1d        	addi	s10, s10, -0x1
   14110: b3 e7 fc 00  	or	a5, s9, a5
   14114: 23 16 f4 04  	sh	a5, 0x4c(s0)
   14118: ef f0 4f e4  	jal	0x1375c <eshup1>
   1411c: e3 51 2d fb  	bge	s10, s2, 0x140be <eiremain+0x64>
   14120: a2 7a        	ld	s5, 0x28(sp)
   14122: 02 7b        	ld	s6, 0x20(sp)
   14124: e2 6b        	ld	s7, 0x18(sp)
   14126: 42 6c        	ld	s8, 0x10(sp)
   14128: a2 6c        	ld	s9, 0x8(sp)
   1412a: a2 87        	mv	a5, s0
   1412c: 46 64        	ld	s0, 0x50(sp)
   1412e: e6 60        	ld	ra, 0x58(sp)
   14130: 06 69        	ld	s2, 0x40(sp)
   14132: e2 79        	ld	s3, 0x38(sp)
   14134: 42 7a        	ld	s4, 0x30(sp)
   14136: ea 86        	mv	a3, s10
   14138: 26 85        	mv	a0, s1
   1413a: 02 6d        	ld	s10, 0x0(sp)
   1413c: a6 64        	ld	s1, 0x48(sp)
   1413e: 01 47        	li	a4, 0x0
   14140: 01 46        	li	a2, 0x0
   14142: 81 45        	li	a1, 0x0
   14144: 25 61        	addi	sp, sp, 0x60
   14146: 6f f0 1f b4  	j	0x13c86 <emdnorm>
   1414a: 81 4c        	li	s9, 0x0
   1414c: e3 6b b6 fa  	bltu	a2, a1, 0x14102 <eiremain+0xa8>
   14150: 59 b7        	j	0x140d6 <eiremain+0x7c>

0000000000014152 <e113toe.isra.0>:
   14152: 79 71        	addi	sp, sp, -0x30
   14154: 22 f0        	sd	s0, 0x20(sp)
   14156: 06 f4        	sd	ra, 0x28(sp)
   14158: 2e 84        	mv	s0, a1
   1415a: 8a 87        	mv	a5, sp
   1415c: 13 07 a1 01  	addi	a4, sp, 0x1a
   14160: 89 07        	addi	a5, a5, 0x2
   14162: 23 9f 07 fe  	sh	zero, -0x2(a5)
   14166: e3 9d e7 fe  	bne	a5, a4, 0x14160 <e113toe.isra.0+0xe>
   1416a: 83 57 e5 00  	lhu	a5, 0xe(a0)
   1416e: 21 67        	lui	a4, 0x8
   14170: 7d 17        	addi	a4, a4, -0x1
   14172: 9b d6 f7 00  	srliw	a3, a5, 0xf
   14176: bb 06 d0 40  	negw	a3, a3
   1417a: 23 10 d1 00  	sh	a3, 0x0(sp)
   1417e: b3 f6 e7 00  	and	a3, a5, a4
   14182: 36 86        	mv	a2, a3
   14184: 63 83 e6 04  	beq	a3, a4, 0x141ca <e113toe.isra.0+0x78>
   14188: 23 11 d1 00  	sh	a3, 0x2(sp)
   1418c: 93 07 e5 00  	addi	a5, a0, 0xe
   14190: 13 07 61 00  	addi	a4, sp, 0x6
   14194: 83 d6 e7 ff  	lhu	a3, -0x2(a5)
   14198: f9 17        	addi	a5, a5, -0x2
   1419a: 09 07        	addi	a4, a4, 0x2
   1419c: 23 1f d7 fe  	sh	a3, -0x2(a4)
   141a0: e3 1a f5 fe  	bne	a0, a5, 0x14194 <e113toe.isra.0+0x42>
   141a4: 19 ea        	bnez	a2, 0x141ba <e113toe.isra.0+0x68>
   141a6: 23 12 01 00  	sh	zero, 0x4(sp)
   141aa: a2 85        	mv	a1, s0
   141ac: 0a 85        	mv	a0, sp
   141ae: ef f0 ef e6  	jal	0x1381c <emovo.isra.0>
   141b2: a2 70        	ld	ra, 0x28(sp)
   141b4: 02 74        	ld	s0, 0x20(sp)
   141b6: 45 61        	addi	sp, sp, 0x30
   141b8: 82 80        	ret
   141ba: 85 47        	li	a5, 0x1
   141bc: fd 55        	li	a1, -0x1
   141be: 0a 85        	mv	a0, sp
   141c0: 23 12 f1 00  	sh	a5, 0x4(sp)
   141c4: ef f0 af ff  	jal	0x139be <eshift.part.0>
   141c8: cd b7        	j	0x141aa <e113toe.isra.0+0x58>
   141ca: aa 87        	mv	a5, a0
   141cc: 93 06 e5 00  	addi	a3, a0, 0xe
   141d0: 03 d7 07 00  	lhu	a4, 0x0(a5)
   141d4: 89 07        	addi	a5, a5, 0x2
   141d6: 21 ef        	bnez	a4, 0x1422e <e113toe.isra.0+0xdc>
   141d8: e3 9c d7 fe  	bne	a5, a3, 0x141d0 <e113toe.isra.0+0x7e>
   141dc: 13 07 44 01  	addi	a4, s0, 0x14
   141e0: a2 87        	mv	a5, s0
   141e2: 89 07        	addi	a5, a5, 0x2
   141e4: 23 9f 07 fe  	sh	zero, -0x2(a5)
   141e8: e3 9d e7 fe  	bne	a5, a4, 0x141e2 <e113toe.isra.0+0x90>
   141ec: 13 07 24 01  	addi	a4, s0, 0x12
   141f0: a2 87        	mv	a5, s0
   141f2: 89 07        	addi	a5, a5, 0x2
   141f4: 23 9f 07 fe  	sh	zero, -0x2(a5)
   141f8: e3 9d e7 fe  	bne	a5, a4, 0x141f2 <e113toe.isra.0+0xa0>
   141fc: 83 57 24 01  	lhu	a5, 0x12(s0)
   14200: a1 66        	lui	a3, 0x8
   14202: fd 16        	addi	a3, a3, -0x1
   14204: d5 8f        	or	a5, a5, a3
   14206: c2 17        	slli	a5, a5, 0x30
   14208: c1 93        	srli	a5, a5, 0x30
   1420a: 23 19 f4 00  	sh	a5, 0x12(s0)
   1420e: 83 16 e5 00  	lh	a3, 0xe(a0)
   14212: e3 d0 06 fa  	bgez	a3, 0x141b2 <e113toe.isra.0+0x60>
   14216: a2 86        	mv	a3, s0
   14218: 03 d6 06 00  	lhu	a2, 0x0(a3)
   1421c: 89 06        	addi	a3, a3, 0x2
   1421e: 51 fa        	bnez	a2, 0x141b2 <e113toe.isra.0+0x60>
   14220: e3 9c e6 fe  	bne	a3, a4, 0x14218 <e113toe.isra.0+0xc6>
   14224: 61 77        	lui	a4, 0xffff8
   14226: b9 8f        	xor	a5, a5, a4
   14228: 23 19 f4 00  	sh	a5, 0x12(s0)
   1422c: 59 b7        	j	0x141b2 <e113toe.isra.0+0x60>
   1422e: 13 07 04 01  	addi	a4, s0, 0x10
   14232: a2 87        	mv	a5, s0
   14234: 89 07        	addi	a5, a5, 0x2
   14236: 23 9f 07 fe  	sh	zero, -0x2(a5)
   1423a: e3 9d e7 fe  	bne	a5, a4, 0x14234 <e113toe.isra.0+0xe2>
   1423e: e1 77        	lui	a5, 0xffff8
   14240: 93 c7 f7 ff  	not	a5, a5
   14244: 71 77        	lui	a4, 0xffffc
   14246: 23 19 f4 00  	sh	a5, 0x12(s0)
   1424a: 23 18 e4 00  	sh	a4, 0x10(s0)
   1424e: 95 b7        	j	0x141b2 <e113toe.isra.0+0x60>

0000000000014250 <ediv>:
   14250: 83 57 25 01  	lhu	a5, 0x12(a0)
   14254: 51 71        	addi	sp, sp, -0xf0
   14256: a2 f1        	sd	s0, 0xe0(sp)
   14258: 93 c7 f7 ff  	not	a5, a5
   1425c: a6 ed        	sd	s1, 0xd8(sp)
   1425e: ca e9        	sd	s2, 0xd0(sp)
   14260: ce e5        	sd	s3, 0xc8(sp)
   14262: 86 f5        	sd	ra, 0xe8(sp)
   14264: 13 97 17 03  	slli	a4, a5, 0x31
   14268: 2a 89        	mv	s2, a0
   1426a: ae 89        	mv	s3, a1
   1426c: 32 84        	mv	s0, a2
   1426e: b6 84        	mv	s1, a3
   14270: 11 eb        	bnez	a4, 0x14284 <ediv+0x34>
   14272: 93 06 25 01  	addi	a3, a0, 0x12
   14276: aa 87        	mv	a5, a0
   14278: 03 d7 07 00  	lhu	a4, 0x0(a5)
   1427c: 89 07        	addi	a5, a5, 0x2
   1427e: 4d e7        	bnez	a4, 0x14328 <ediv+0xd8>
   14280: e3 9c f6 fe  	bne	a3, a5, 0x14278 <ediv+0x28>
   14284: 83 d7 29 01  	lhu	a5, 0x12(s3)
   14288: 93 c7 f7 ff  	not	a5, a5
   1428c: 13 97 17 03  	slli	a4, a5, 0x31
   14290: 11 eb        	bnez	a4, 0x142a4 <ediv+0x54>
   14292: 93 86 29 01  	addi	a3, s3, 0x12
   14296: ce 87        	mv	a5, s3
   14298: 03 d7 07 00  	lhu	a4, 0x0(a5)
   1429c: 89 07        	addi	a5, a5, 0x2
   1429e: 55 e7        	bnez	a4, 0x1434a <ediv+0xfa>
   142a0: e3 9c f6 fe  	bne	a3, a5, 0x14298 <ediv+0x48>
   142a4: 97 a5 00 00  	auipc	a1, 0xa
   142a8: 93 85 c5 72  	addi	a1, a1, 0x72c
   142ac: 4a 85        	mv	a0, s2
   142ae: ef f0 1f 8f  	jal	0x13b9e <ecmp>
   142b2: 63 0b 05 12  	beqz	a0, 0x143e8 <ediv+0x198>
   142b6: 03 56 29 01  	lhu	a2, 0x12(s2)
   142ba: a1 67        	lui	a5, 0x8
   142bc: fd 17        	addi	a5, a5, -0x1
   142be: 33 75 f6 00  	and	a0, a2, a5
   142c2: 63 15 f5 0a  	bne	a0, a5, 0x1436c <ediv+0x11c>
   142c6: 93 06 29 01  	addi	a3, s2, 0x12
   142ca: ca 87        	mv	a5, s2
   142cc: 03 d7 07 00  	lhu	a4, 0x0(a5)
   142d0: 89 07        	addi	a5, a5, 0x2
   142d2: 49 ef        	bnez	a4, 0x1436c <ediv+0x11c>
   142d4: e3 9c f6 fe  	bne	a3, a5, 0x142cc <ediv+0x7c>
   142d8: 03 d7 29 01  	lhu	a4, 0x12(s3)
   142dc: 93 47 f7 ff  	not	a5, a4
   142e0: 93 96 17 03  	slli	a3, a5, 0x31
   142e4: f5 ea        	bnez	a3, 0x143d8 <ediv+0x188>
   142e6: 93 86 29 01  	addi	a3, s3, 0x12
   142ea: ce 87        	mv	a5, s3
   142ec: 83 d5 07 00  	lhu	a1, 0x0(a5)
   142f0: 89 07        	addi	a5, a5, 0x2
   142f2: 63 93 05 3c  	bnez	a1, 0x146b8 <ediv+0x468>
   142f6: e3 9b f6 fe  	bne	a3, a5, 0x142ec <ediv+0x9c>
   142fa: 13 07 04 01  	addi	a4, s0, 0x10
   142fe: a2 87        	mv	a5, s0
   14300: 89 07        	addi	a5, a5, 0x2
   14302: 23 9f 07 fe  	sh	zero, -0x2(a5)
   14306: e3 9d e7 fe  	bne	a5, a4, 0x14300 <ediv+0xb0>
   1430a: e1 77        	lui	a5, 0xffff8
   1430c: 93 c7 f7 ff  	not	a5, a5
   14310: 71 77        	lui	a4, 0xffffc
   14312: 23 19 f4 00  	sh	a5, 0x12(s0)
   14316: 23 18 e4 00  	sh	a4, 0x10(s0)
   1431a: ae 70        	ld	ra, 0xe8(sp)
   1431c: 0e 74        	ld	s0, 0xe0(sp)
   1431e: ee 64        	ld	s1, 0xd8(sp)
   14320: 4e 69        	ld	s2, 0xd0(sp)
   14322: ae 69        	ld	s3, 0xc8(sp)
   14324: 6d 61        	addi	sp, sp, 0xf0
   14326: 82 80        	ret
   14328: 13 07 44 01  	addi	a4, s0, 0x14
   1432c: 83 57 09 00  	lhu	a5, 0x0(s2)
   14330: 09 04        	addi	s0, s0, 0x2
   14332: 09 09        	addi	s2, s2, 0x2
   14334: 23 1f f4 fe  	sh	a5, -0x2(s0)
   14338: e3 1a e4 fe  	bne	s0, a4, 0x1432c <ediv+0xdc>
   1433c: ae 70        	ld	ra, 0xe8(sp)
   1433e: 0e 74        	ld	s0, 0xe0(sp)
   14340: ee 64        	ld	s1, 0xd8(sp)
   14342: 4e 69        	ld	s2, 0xd0(sp)
   14344: ae 69        	ld	s3, 0xc8(sp)
   14346: 6d 61        	addi	sp, sp, 0xf0
   14348: 82 80        	ret
   1434a: 13 07 44 01  	addi	a4, s0, 0x14
   1434e: 83 d7 09 00  	lhu	a5, 0x0(s3)
   14352: 09 04        	addi	s0, s0, 0x2
   14354: 89 09        	addi	s3, s3, 0x2
   14356: 23 1f f4 fe  	sh	a5, -0x2(s0)
   1435a: e3 1a e4 fe  	bne	s0, a4, 0x1434e <ediv+0xfe>
   1435e: ae 70        	ld	ra, 0xe8(sp)
   14360: 0e 74        	ld	s0, 0xe0(sp)
   14362: ee 64        	ld	s1, 0xd8(sp)
   14364: 4e 69        	ld	s2, 0xd0(sp)
   14366: ae 69        	ld	s3, 0xc8(sp)
   14368: 6d 61        	addi	sp, sp, 0xf0
   1436a: 82 80        	ret
   1436c: 03 d7 29 01  	lhu	a4, 0x12(s3)
   14370: 93 47 f7 ff  	not	a5, a4
   14374: 93 96 17 03  	slli	a3, a5, 0x31
   14378: d1 e2        	bnez	a3, 0x143fc <ediv+0x1ac>
   1437a: 01 48        	li	a6, 0x0
   1437c: 93 86 29 01  	addi	a3, s3, 0x12
   14380: ce 87        	mv	a5, s3
   14382: 83 d5 07 00  	lhu	a1, 0x0(a5)
   14386: 89 07        	addi	a5, a5, 0x2
   14388: b1 e5        	bnez	a1, 0x143d4 <ediv+0x184>
   1438a: e3 9c f6 fe  	bne	a3, a5, 0x14382 <ediv+0x132>
   1438e: a1 67        	lui	a5, 0x8
   14390: fd 17        	addi	a5, a5, -0x1
   14392: 63 0c f5 0a  	beq	a0, a5, 0x1444a <ediv+0x1fa>
   14396: 3d 82        	srli	a2, a2, 0xf
   14398: 83 d7 09 00  	lhu	a5, 0x0(s3)
   1439c: 89 09        	addi	s3, s3, 0x2
   1439e: 63 99 07 30  	bnez	a5, 0x146b0 <ediv+0x460>
   143a2: e3 9b 36 ff  	bne	a3, s3, 0x14398 <ediv+0x148>
   143a6: 93 57 f7 00  	srli	a5, a4, 0xf
   143aa: b1 8f        	xor	a5, a5, a2
   143ac: 9b 97 f7 00  	slliw	a5, a5, 0xf
   143b0: 23 19 f4 00  	sh	a5, 0x12(s0)
   143b4: 13 07 24 01  	addi	a4, s0, 0x12
   143b8: a2 87        	mv	a5, s0
   143ba: 89 07        	addi	a5, a5, 0x2
   143bc: 23 9f 07 fe  	sh	zero, -0x2(a5)
   143c0: e3 1d f7 fe  	bne	a4, a5, 0x143ba <ediv+0x16a>
   143c4: 83 57 24 01  	lhu	a5, 0x12(s0)
   143c8: 21 67        	lui	a4, 0x8
   143ca: 7d 17        	addi	a4, a4, -0x1
   143cc: d9 8f        	or	a5, a5, a4
   143ce: 23 19 f4 00  	sh	a5, 0x12(s0)
   143d2: a1 b7        	j	0x1431a <ediv+0xca>
   143d4: 63 04 08 02  	beqz	a6, 0x143fc <ediv+0x1ac>
   143d8: 93 07 44 01  	addi	a5, s0, 0x14
   143dc: 09 04        	addi	s0, s0, 0x2
   143de: 23 1f 04 fe  	sh	zero, -0x2(s0)
   143e2: e3 1d f4 fe  	bne	s0, a5, 0x143dc <ediv+0x18c>
   143e6: 15 bf        	j	0x1431a <ediv+0xca>
   143e8: 97 a5 00 00  	auipc	a1, 0xa
   143ec: 93 85 85 5e  	addi	a1, a1, 0x5e8
   143f0: 4e 85        	mv	a0, s3
   143f2: ef f0 cf fa  	jal	0x13b9e <ecmp>
   143f6: e3 10 05 ec  	bnez	a0, 0x142b6 <ediv+0x66>
   143fa: 01 b7        	j	0x142fa <ediv+0xaa>
   143fc: 4a 85        	mv	a0, s2
   143fe: 0c 10        	addi	a1, sp, 0x20
   14400: 5a f9        	sd	s6, 0xb0(sp)
   14402: 62 f1        	sd	s8, 0xa0(sp)
   14404: ef f0 8f f0  	jal	0x13b0c <emovi>
   14408: 4e 85        	mv	a0, s3
   1440a: 8c 00        	addi	a1, sp, 0x40
   1440c: ef f0 0f f0  	jal	0x13b0c <emovi>
   14410: 03 5b 21 04  	lhu	s6, 0x42(sp)
   14414: 03 5c 21 02  	lhu	s8, 0x22(sp)
   14418: 63 13 0b 04  	bnez	s6, 0x1445e <ediv+0x20e>
   1441c: 66 ed        	sd	s9, 0x98(sp)
   1441e: 93 07 21 04  	addi	a5, sp, 0x42
   14422: 93 0c 81 05  	addi	s9, sp, 0x58
   14426: 03 d7 07 00  	lhu	a4, 0x0(a5)
   1442a: 89 07        	addi	a5, a5, 0x2
   1442c: 63 1d 07 24  	bnez	a4, 0x14686 <ediv+0x436>
   14430: e3 9b fc fe  	bne	s9, a5, 0x14426 <ediv+0x1d6>
   14434: 93 07 44 01  	addi	a5, s0, 0x14
   14438: 09 04        	addi	s0, s0, 0x2
   1443a: 23 1f 04 fe  	sh	zero, -0x2(s0)
   1443e: e3 1d f4 fe  	bne	s0, a5, 0x14438 <ediv+0x1e8>
   14442: 4a 7b        	ld	s6, 0xb0(sp)
   14444: 0a 7c        	ld	s8, 0xa0(sp)
   14446: ea 6c        	ld	s9, 0x98(sp)
   14448: c9 bd        	j	0x1431a <ediv+0xca>
   1444a: 93 05 29 01  	addi	a1, s2, 0x12
   1444e: 83 57 09 00  	lhu	a5, 0x0(s2)
   14452: 09 09        	addi	s2, s2, 0x2
   14454: 63 90 07 26  	bnez	a5, 0x146b4 <ediv+0x464>
   14458: e3 9b 25 ff  	bne	a1, s2, 0x1444e <ediv+0x1fe>
   1445c: 2d bf        	j	0x14396 <ediv+0x146>
   1445e: 5a e4        	sd	s6, 0x8(sp)
   14460: 63 19 0c 04  	bnez	s8, 0x144b2 <ediv+0x262>
   14464: 93 07 21 02  	addi	a5, sp, 0x22
   14468: 34 18        	addi	a3, sp, 0x38
   1446a: 03 d7 07 00  	lhu	a4, 0x0(a5)
   1446e: 89 07        	addi	a5, a5, 0x2
   14470: 63 13 07 22  	bnez	a4, 0x14696 <ediv+0x446>
   14474: e3 9b d7 fe  	bne	a5, a3, 0x1446a <ediv+0x21a>
   14478: 83 56 01 02  	lhu	a3, 0x20(sp)
   1447c: 03 56 01 04  	lhu	a2, 0x40(sp)
   14480: 13 07 24 01  	addi	a4, s0, 0x12
   14484: a2 87        	mv	a5, s0
   14486: 91 8e        	sub	a3, a3, a2
   14488: b3 36 d0 00  	snez	a3, a3
   1448c: 9b 96 f6 00  	slliw	a3, a3, 0xf
   14490: 23 19 d4 00  	sh	a3, 0x12(s0)
   14494: 89 07        	addi	a5, a5, 0x2
   14496: 23 9f 07 fe  	sh	zero, -0x2(a5)
   1449a: e3 9d e7 fe  	bne	a5, a4, 0x14494 <ediv+0x244>
   1449e: 83 57 24 01  	lhu	a5, 0x12(s0)
   144a2: 21 67        	lui	a4, 0x8
   144a4: 7d 17        	addi	a4, a4, -0x1
   144a6: d9 8f        	or	a5, a5, a4
   144a8: 4a 7b        	ld	s6, 0xb0(sp)
   144aa: 0a 7c        	ld	s8, 0xa0(sp)
   144ac: 23 19 f4 00  	sh	a5, 0x12(s0)
   144b0: ad b5        	j	0x1431a <ediv+0xca>
   144b2: d2 e1        	sd	s4, 0xc0(sp)
   144b4: 56 fd        	sd	s5, 0xb8(sp)
   144b6: 5e f5        	sd	s7, 0xa8(sp)
   144b8: 66 ed        	sd	s9, 0x98(sp)
   144ba: 6a e9        	sd	s10, 0x90(sp)
   144bc: 6e e5        	sd	s11, 0x88(sp)
   144be: 62 e8        	sd	s8, 0x10(sp)
   144c0: 06 47        	lw	a4, 0x40(sp)
   144c2: 13 89 84 03  	addi	s2, s1, 0x38
   144c6: ca 87        	mv	a5, s2
   144c8: d8 d8        	sw	a4, 0x34(s1)
   144ca: 13 87 44 03  	addi	a4, s1, 0x34
   144ce: 3a ec        	sd	a4, 0x18(sp)
   144d0: 93 89 e4 04  	addi	s3, s1, 0x4e
   144d4: 89 07        	addi	a5, a5, 0x2
   144d6: 23 9f 07 fe  	sh	zero, -0x2(a5)
   144da: e3 9d 37 ff  	bne	a5, s3, 0x144d4 <ediv+0x284>
   144de: 88 00        	addi	a0, sp, 0x40
   144e0: ef f0 4f a3  	jal	0x13714 <eshdn1>
   144e4: 83 5b 61 02  	lhu	s7, 0x26(sp)
   144e8: 41 6a        	lui	s4, 0x10
   144ea: 13 0d 21 04  	addi	s10, sp, 0x42
   144ee: 93 9a 0b 01  	slli	s5, s7, 0x10
   144f2: b3 8a 7a 41  	sub	s5, s5, s7
   144f6: 93 0c 81 05  	addi	s9, sp, 0x58
   144fa: 93 0d a1 07  	addi	s11, sp, 0x7a
   144fe: 13 0c 21 06  	addi	s8, sp, 0x62
   14502: 7d 1a        	addi	s4, s4, -0x1
   14504: 83 57 41 04  	lhu	a5, 0x44(sp)
   14508: 03 57 61 04  	lhu	a4, 0x46(sp)
   1450c: 52 8b        	mv	s6, s4
   1450e: c2 07        	slli	a5, a5, 0x10
   14510: ba 97        	add	a5, a5, a4
   14512: 63 e8 fa 00  	bltu	s5, a5, 0x14522 <ediv+0x2d2>
   14516: b3 d7 77 03  	divu	a5, a5, s7
   1451a: 13 9b 07 03  	slli	s6, a5, 0x30
   1451e: 13 5b 0b 03  	srli	s6, s6, 0x30
   14522: 90 10        	addi	a2, sp, 0x60
   14524: 0c 10        	addi	a1, sp, 0x20
   14526: 5a 85        	mv	a0, s6
   14528: ef f0 ef a8  	jal	0x137b6 <m16m>
   1452c: d8 00        	addi	a4, sp, 0x44
   1452e: dc 10        	addi	a5, sp, 0x64
   14530: 03 d6 07 00  	lhu	a2, 0x0(a5)
   14534: 83 56 07 00  	lhu	a3, 0x0(a4)
   14538: 89 07        	addi	a5, a5, 0x2
   1453a: 09 07        	addi	a4, a4, 0x2
   1453c: 63 13 d6 0c  	bne	a2, a3, 0x14602 <ediv+0x3b2>
   14540: e3 98 b7 ff  	bne	a5, s11, 0x14530 <ediv+0x2e0>
   14544: 01 46        	li	a2, 0x0
   14546: b4 18        	addi	a3, sp, 0x78
   14548: e6 87        	mv	a5, s9
   1454a: 03 d7 07 00  	lhu	a4, 0x0(a5)
   1454e: 83 d5 06 00  	lhu	a1, 0x0(a3)
   14552: f9 17        	addi	a5, a5, -0x2
   14554: f9 16        	addi	a3, a3, -0x2
   14556: 0d 8f        	sub	a4, a4, a1
   14558: 11 8f        	sub	a4, a4, a2
   1455a: 23 91 e7 00  	sh	a4, 0x2(a5)
   1455e: 41 83        	srli	a4, a4, 0x10
   14560: 13 76 17 00  	andi	a2, a4, 0x1
   14564: e3 93 a7 ff  	bne	a5, s10, 0x1454a <ediv+0x2fa>
   14568: 23 10 69 01  	sh	s6, 0x0(s2)
   1456c: dc 00        	addi	a5, sp, 0x44
   1456e: 03 d7 27 00  	lhu	a4, 0x2(a5)
   14572: 89 07        	addi	a5, a5, 0x2
   14574: 23 9f e7 fe  	sh	a4, -0x2(a5)
   14578: e3 9b 97 ff  	bne	a5, s9, 0x1456e <ediv+0x31e>
   1457c: 23 1c 01 04  	sh	zero, 0x58(sp)
   14580: 09 09        	addi	s2, s2, 0x2
   14582: e3 91 29 f9  	bne	s3, s2, 0x14504 <ediv+0x2b4>
   14586: dc 00        	addi	a5, sp, 0x44
   14588: 01 47        	li	a4, 0x0
   1458a: 93 06 a1 05  	addi	a3, sp, 0x5a
   1458e: 03 d6 07 00  	lhu	a2, 0x0(a5)
   14592: 89 07        	addi	a5, a5, 0x2
   14594: 51 8f        	or	a4, a4, a2
   14596: e3 9c d7 fe  	bne	a5, a3, 0x1458e <ediv+0x33e>
   1459a: 62 69        	ld	s2, 0x18(sp)
   1459c: 01 27        	sext.w	a4, a4
   1459e: b3 35 e0 00  	snez	a1, a4
   145a2: 9c 00        	addi	a5, sp, 0x40
   145a4: 03 57 09 00  	lhu	a4, 0x0(s2)
   145a8: 89 07        	addi	a5, a5, 0x2
   145aa: 09 09        	addi	s2, s2, 0x2
   145ac: 23 9f e7 fe  	sh	a4, -0x2(a5)
   145b0: e3 9a f6 fe  	bne	a3, a5, 0x145a4 <ediv+0x354>
   145b4: a2 67        	ld	a5, 0x8(sp)
   145b6: 42 67        	ld	a4, 0x10(sp)
   145b8: 91 66        	lui	a3, 0x4
   145ba: fd 16        	addi	a3, a3, -0x1
   145bc: 33 8b e7 40  	sub	s6, a5, a4
   145c0: 13 07 00 04  	li	a4, 0x40
   145c4: da 96        	add	a3, a3, s6
   145c6: 33 05 e1 00  	add	a0, sp, a4
   145ca: a6 87        	mv	a5, s1
   145cc: 01 46        	li	a2, 0x0
   145ce: ef f0 8f eb  	jal	0x13c86 <emdnorm>
   145d2: 03 57 01 04  	lhu	a4, 0x40(sp)
   145d6: 83 57 01 02  	lhu	a5, 0x20(sp)
   145da: a2 85        	mv	a1, s0
   145dc: 88 00        	addi	a0, sp, 0x40
   145de: 99 8f        	sub	a5, a5, a4
   145e0: b3 37 f0 00  	snez	a5, a5
   145e4: bb 07 f0 40  	negw	a5, a5
   145e8: 23 10 f1 04  	sh	a5, 0x40(sp)
   145ec: ef f0 0f a3  	jal	0x1381c <emovo.isra.0>
   145f0: 0e 6a        	ld	s4, 0xc0(sp)
   145f2: ea 7a        	ld	s5, 0xb8(sp)
   145f4: 4a 7b        	ld	s6, 0xb0(sp)
   145f6: aa 7b        	ld	s7, 0xa8(sp)
   145f8: 0a 7c        	ld	s8, 0xa0(sp)
   145fa: ea 6c        	ld	s9, 0x98(sp)
   145fc: 4a 6d        	ld	s10, 0x90(sp)
   145fe: aa 6d        	ld	s11, 0x88(sp)
   14600: 29 bb        	j	0x1431a <ediv+0xca>
   14602: e3 f1 c6 f4  	bgeu	a3, a2, 0x14544 <ediv+0x2f4>
   14606: 1b 03 fb ff  	addiw	t1, s6, -0x1
   1460a: 42 13        	slli	t1, t1, 0x30
   1460c: 13 53 03 03  	srli	t1, t1, 0x30
   14610: 01 46        	li	a2, 0x0
   14612: 34 18        	addi	a3, sp, 0x38
   14614: b8 18        	addi	a4, sp, 0x78
   14616: 83 57 07 00  	lhu	a5, 0x0(a4)
   1461a: 83 d5 06 00  	lhu	a1, 0x0(a3)
   1461e: 79 17        	addi	a4, a4, -0x2
   14620: f9 16        	addi	a3, a3, -0x2
   14622: 8d 8f        	sub	a5, a5, a1
   14624: 91 8f        	sub	a5, a5, a2
   14626: 23 11 f7 00  	sh	a5, 0x2(a4)
   1462a: c1 83        	srli	a5, a5, 0x10
   1462c: 13 f6 17 00  	andi	a2, a5, 0x1
   14630: e3 13 87 ff  	bne	a4, s8, 0x14616 <ediv+0x3c6>
   14634: d8 00        	addi	a4, sp, 0x44
   14636: dc 10        	addi	a5, sp, 0x64
   14638: 03 d6 07 00  	lhu	a2, 0x0(a5)
   1463c: 83 56 07 00  	lhu	a3, 0x0(a4)
   14640: 89 07        	addi	a5, a5, 0x2
   14642: 09 07        	addi	a4, a4, 0x2
   14644: 63 16 d6 00  	bne	a2, a3, 0x14650 <ediv+0x400>
   14648: e3 98 b7 ff  	bne	a5, s11, 0x14638 <ediv+0x3e8>
   1464c: 1a 8b        	mv	s6, t1
   1464e: dd bd        	j	0x14544 <ediv+0x2f4>
   14650: e3 fe c6 fe  	bgeu	a3, a2, 0x1464c <ediv+0x3fc>
   14654: 1b 05 eb ff  	addiw	a0, s6, -0x2
   14658: 13 1b 05 03  	slli	s6, a0, 0x30
   1465c: 13 5b 0b 03  	srli	s6, s6, 0x30
   14660: 01 46        	li	a2, 0x0
   14662: 34 18        	addi	a3, sp, 0x38
   14664: b8 18        	addi	a4, sp, 0x78
   14666: 83 57 07 00  	lhu	a5, 0x0(a4)
   1466a: 83 d5 06 00  	lhu	a1, 0x0(a3)
   1466e: 79 17        	addi	a4, a4, -0x2
   14670: f9 16        	addi	a3, a3, -0x2
   14672: 8d 8f        	sub	a5, a5, a1
   14674: 91 8f        	sub	a5, a5, a2
   14676: 23 11 f7 00  	sh	a5, 0x2(a4)
   1467a: c1 83        	srli	a5, a5, 0x10
   1467c: 13 f6 17 00  	andi	a2, a5, 0x1
   14680: e3 13 87 ff  	bne	a4, s8, 0x14666 <ediv+0x416>
   14684: c1 b5        	j	0x14544 <ediv+0x2f4>
   14686: 88 00        	addi	a0, sp, 0x40
   14688: ef f0 0f a2  	jal	0x138a8 <enormlz>
   1468c: b3 07 a0 40  	neg	a5, a0
   14690: ea 6c        	ld	s9, 0x98(sp)
   14692: 3e e4        	sd	a5, 0x8(sp)
   14694: f1 b3        	j	0x14460 <ediv+0x210>
   14696: 08 10        	addi	a0, sp, 0x20
   14698: d2 e1        	sd	s4, 0xc0(sp)
   1469a: 56 fd        	sd	s5, 0xb8(sp)
   1469c: 5e f5        	sd	s7, 0xa8(sp)
   1469e: 66 ed        	sd	s9, 0x98(sp)
   146a0: 6a e9        	sd	s10, 0x90(sp)
   146a2: 6e e5        	sd	s11, 0x88(sp)
   146a4: ef f0 4f a0  	jal	0x138a8 <enormlz>
   146a8: b3 07 a0 40  	neg	a5, a0
   146ac: 3e e8        	sd	a5, 0x10(sp)
   146ae: 09 bd        	j	0x144c0 <ediv+0x270>
   146b0: 81 47        	li	a5, 0x0
   146b2: e5 b9        	j	0x143aa <ediv+0x15a>
   146b4: 01 46        	li	a2, 0x0
   146b6: cd b1        	j	0x14398 <ediv+0x148>
   146b8: 05 48        	li	a6, 0x1
   146ba: d9 b1        	j	0x14380 <ediv+0x130>

00000000000146bc <emul>:
   146bc: 31 71        	addi	sp, sp, -0xc0
   146be: 26 f5        	sd	s1, 0xa8(sp)
   146c0: aa 84        	mv	s1, a0
   146c2: 03 55 25 01  	lhu	a0, 0x12(a0)
   146c6: 21 67        	lui	a4, 0x8
   146c8: 7d 17        	addi	a4, a4, -0x1
   146ca: 22 f9        	sd	s0, 0xb0(sp)
   146cc: 4a f1        	sd	s2, 0xa0(sp)
   146ce: 52 e9        	sd	s4, 0x90(sp)
   146d0: 06 fd        	sd	ra, 0xb8(sp)
   146d2: 4e ed        	sd	s3, 0x98(sp)
   146d4: 33 78 e5 00  	and	a6, a0, a4
   146d8: 2e 89        	mv	s2, a1
   146da: 32 84        	mv	s0, a2
   146dc: 36 8a        	mv	s4, a3
   146de: 63 18 e8 0c  	bne	a6, a4, 0x147ae <emul+0xf2>
   146e2: 93 89 24 01  	addi	s3, s1, 0x12
   146e6: 26 87        	mv	a4, s1
   146e8: 03 56 07 00  	lhu	a2, 0x0(a4)
   146ec: 09 07        	addi	a4, a4, 0x2
   146ee: 63 14 06 14  	bnez	a2, 0x14836 <emul+0x17a>
   146f2: e3 9b e9 fe  	bne	s3, a4, 0x146e8 <emul+0x2c>
   146f6: 03 56 29 01  	lhu	a2, 0x12(s2)
   146fa: 93 47 f6 ff  	not	a5, a2
   146fe: 13 97 17 03  	slli	a4, a5, 0x31
   14702: 45 cf        	beqz	a4, 0x147ba <emul+0xfe>
   14704: a6 87        	mv	a5, s1
   14706: 03 d7 07 00  	lhu	a4, 0x0(a5)
   1470a: 89 07        	addi	a5, a5, 0x2
   1470c: 63 1e 07 22  	bnez	a4, 0x14948 <emul+0x28c>
   14710: e3 9b f9 fe  	bne	s3, a5, 0x14706 <emul+0x4a>
   14714: 97 a5 00 00  	auipc	a1, 0xa
   14718: 93 85 c5 2b  	addi	a1, a1, 0x2bc
   1471c: 4a 85        	mv	a0, s2
   1471e: ef f0 0f c8  	jal	0x13b9e <ecmp>
   14722: 63 0d 05 22  	beqz	a0, 0x1495c <emul+0x2a0>
   14726: 03 56 29 01  	lhu	a2, 0x12(s2)
   1472a: 21 67        	lui	a4, 0x8
   1472c: 7d 17        	addi	a4, a4, -0x1
   1472e: b3 76 e6 00  	and	a3, a2, a4
   14732: b6 85        	mv	a1, a3
   14734: 93 07 29 01  	addi	a5, s2, 0x12
   14738: 63 93 e6 36  	bne	a3, a4, 0x14a9e <emul+0x3e2>
   1473c: 4a 87        	mv	a4, s2
   1473e: 83 56 07 00  	lhu	a3, 0x0(a4)
   14742: 09 07        	addi	a4, a4, 0x2
   14744: 63 90 06 16  	bnez	a3, 0x148a4 <emul+0x1e8>
   14748: e3 9b e7 fe  	bne	a5, a4, 0x1473e <emul+0x82>
   1474c: 97 a5 00 00  	auipc	a1, 0xa
   14750: 93 85 45 28  	addi	a1, a1, 0x284
   14754: 26 85        	mv	a0, s1
   14756: ef f0 8f c4  	jal	0x13b9e <ecmp>
   1475a: 63 01 05 20  	beqz	a0, 0x1495c <emul+0x2a0>
   1475e: 03 d5 24 01  	lhu	a0, 0x12(s1)
   14762: 03 56 29 01  	lhu	a2, 0x12(s2)
   14766: a1 67        	lui	a5, 0x8
   14768: fd 17        	addi	a5, a5, -0x1
   1476a: 33 77 f5 00  	and	a4, a0, a5
   1476e: b3 75 f6 00  	and	a1, a2, a5
   14772: ba 86        	mv	a3, a4
   14774: 63 01 f7 14  	beq	a4, a5, 0x148b6 <emul+0x1fa>
   14778: 2e 87        	mv	a4, a1
   1477a: b6 85        	mv	a1, a3
   1477c: a1 67        	lui	a5, 0x8
   1477e: 01 27        	sext.w	a4, a4
   14780: fd 17        	addi	a5, a5, -0x1
   14782: 63 1f f7 04  	bne	a4, a5, 0x147e0 <emul+0x124>
   14786: 93 07 29 01  	addi	a5, s2, 0x12
   1478a: 4a 87        	mv	a4, s2
   1478c: 83 56 07 00  	lhu	a3, 0x0(a4)
   14790: 09 07        	addi	a4, a4, 0x2
   14792: b9 e6        	bnez	a3, 0x147e0 <emul+0x124>
   14794: e3 9c e7 fe  	bne	a5, a4, 0x1478c <emul+0xd0>
   14798: 21 68        	lui	a6, 0x8
   1479a: 7d 18        	addi	a6, a6, -0x1
   1479c: 9b 86 05 00  	sext.w	a3, a1
   147a0: 13 57 f5 00  	srli	a4, a0, 0xf
   147a4: 93 89 24 01  	addi	s3, s1, 0x12
   147a8: 63 99 05 19  	bne	a1, a6, 0x1493a <emul+0x27e>
   147ac: 05 a2        	j	0x148cc <emul+0x210>
   147ae: 03 d6 25 01  	lhu	a2, 0x12(a1)
   147b2: b3 77 e6 00  	and	a5, a2, a4
   147b6: 63 95 e7 02  	bne	a5, a4, 0x147e0 <emul+0x124>
   147ba: 93 07 29 01  	addi	a5, s2, 0x12
   147be: 4a 87        	mv	a4, s2
   147c0: 83 56 07 00  	lhu	a3, 0x0(a4)
   147c4: 09 07        	addi	a4, a4, 0x2
   147c6: d1 ea        	bnez	a3, 0x1485a <emul+0x19e>
   147c8: e3 9c e7 fe  	bne	a5, a4, 0x147c0 <emul+0x104>
   147cc: 21 67        	lui	a4, 0x8
   147ce: 7d 17        	addi	a4, a4, -0x1
   147d0: 93 89 24 01  	addi	s3, s1, 0x12
   147d4: e3 08 e8 f2  	beq	a6, a4, 0x14704 <emul+0x48>
   147d8: b3 76 e6 00  	and	a3, a2, a4
   147dc: e3 80 e6 f6  	beq	a3, a4, 0x1473c <emul+0x80>
   147e0: 26 85        	mv	a0, s1
   147e2: 8a 85        	mv	a1, sp
   147e4: 56 e5        	sd	s5, 0x88(sp)
   147e6: ef f0 6f b2  	jal	0x13b0c <emovi>
   147ea: 4a 85        	mv	a0, s2
   147ec: 0c 10        	addi	a1, sp, 0x20
   147ee: ef f0 ef b1  	jal	0x13b0c <emovi>
   147f2: 03 59 21 00  	lhu	s2, 0x2(sp)
   147f6: 83 5a 21 02  	lhu	s5, 0x22(sp)
   147fa: 63 02 09 08  	beqz	s2, 0x1487e <emul+0x1c2>
   147fe: 63 97 0a 18  	bnez	s5, 0x1498c <emul+0x2d0>
   14802: 93 07 21 02  	addi	a5, sp, 0x22
   14806: 34 18        	addi	a3, sp, 0x38
   14808: 03 d7 07 00  	lhu	a4, 0x0(a5)
   1480c: 89 07        	addi	a5, a5, 0x2
   1480e: 63 1c 07 26  	bnez	a4, 0x14a86 <emul+0x3ca>
   14812: e3 9b f6 fe  	bne	a3, a5, 0x14808 <emul+0x14c>
   14816: 93 07 44 01  	addi	a5, s0, 0x14
   1481a: 09 04        	addi	s0, s0, 0x2
   1481c: 23 1f 04 fe  	sh	zero, -0x2(s0)
   14820: e3 1d f4 fe  	bne	s0, a5, 0x1481a <emul+0x15e>
   14824: aa 6a        	ld	s5, 0x88(sp)
   14826: ea 70        	ld	ra, 0xb8(sp)
   14828: 4a 74        	ld	s0, 0xb0(sp)
   1482a: aa 74        	ld	s1, 0xa8(sp)
   1482c: 0a 79        	ld	s2, 0xa0(sp)
   1482e: ea 69        	ld	s3, 0x98(sp)
   14830: 4a 6a        	ld	s4, 0x90(sp)
   14832: 29 61        	addi	sp, sp, 0xc0
   14834: 82 80        	ret
   14836: 13 07 44 01  	addi	a4, s0, 0x14
   1483a: 83 d7 04 00  	lhu	a5, 0x0(s1)
   1483e: 09 04        	addi	s0, s0, 0x2
   14840: 89 04        	addi	s1, s1, 0x2
   14842: 23 1f f4 fe  	sh	a5, -0x2(s0)
   14846: e3 1a e4 fe  	bne	s0, a4, 0x1483a <emul+0x17e>
   1484a: ea 70        	ld	ra, 0xb8(sp)
   1484c: 4a 74        	ld	s0, 0xb0(sp)
   1484e: aa 74        	ld	s1, 0xa8(sp)
   14850: 0a 79        	ld	s2, 0xa0(sp)
   14852: ea 69        	ld	s3, 0x98(sp)
   14854: 4a 6a        	ld	s4, 0x90(sp)
   14856: 29 61        	addi	sp, sp, 0xc0
   14858: 82 80        	ret
   1485a: 13 07 44 01  	addi	a4, s0, 0x14
   1485e: 83 57 09 00  	lhu	a5, 0x0(s2)
   14862: 09 04        	addi	s0, s0, 0x2
   14864: 09 09        	addi	s2, s2, 0x2
   14866: 23 1f f4 fe  	sh	a5, -0x2(s0)
   1486a: e3 1a 87 fe  	bne	a4, s0, 0x1485e <emul+0x1a2>
   1486e: ea 70        	ld	ra, 0xb8(sp)
   14870: 4a 74        	ld	s0, 0xb0(sp)
   14872: aa 74        	ld	s1, 0xa8(sp)
   14874: 0a 79        	ld	s2, 0xa0(sp)
   14876: ea 69        	ld	s3, 0x98(sp)
   14878: 4a 6a        	ld	s4, 0x90(sp)
   1487a: 29 61        	addi	sp, sp, 0xc0
   1487c: 82 80        	ret
   1487e: 93 07 21 00  	addi	a5, sp, 0x2
   14882: 34 08        	addi	a3, sp, 0x18
   14884: 03 d7 07 00  	lhu	a4, 0x0(a5)
   14888: 89 07        	addi	a5, a5, 0x2
   1488a: 63 18 07 1e  	bnez	a4, 0x14a7a <emul+0x3be>
   1488e: e3 9b f6 fe  	bne	a3, a5, 0x14884 <emul+0x1c8>
   14892: 93 07 44 01  	addi	a5, s0, 0x14
   14896: 09 04        	addi	s0, s0, 0x2
   14898: 23 1f 04 fe  	sh	zero, -0x2(s0)
   1489c: e3 1d f4 fe  	bne	s0, a5, 0x14896 <emul+0x1da>
   148a0: aa 6a        	ld	s5, 0x88(sp)
   148a2: 51 b7        	j	0x14826 <emul+0x16a>
   148a4: 03 d5 24 01  	lhu	a0, 0x12(s1)
   148a8: 21 67        	lui	a4, 0x8
   148aa: 7d 17        	addi	a4, a4, -0x1
   148ac: b3 76 e5 00  	and	a3, a0, a4
   148b0: b6 85        	mv	a1, a3
   148b2: e3 9c e6 ec  	bne	a3, a4, 0x1478a <emul+0xce>
   148b6: 93 89 24 01  	addi	s3, s1, 0x12
   148ba: a6 87        	mv	a5, s1
   148bc: 03 d7 07 00  	lhu	a4, 0x0(a5)
   148c0: 89 07        	addi	a5, a5, 0x2
   148c2: 61 e3        	bnez	a4, 0x14982 <emul+0x2c6>
   148c4: e3 9c f9 fe  	bne	s3, a5, 0x148bc <emul+0x200>
   148c8: 9b 86 05 00  	sext.w	a3, a1
   148cc: 83 d7 04 00  	lhu	a5, 0x0(s1)
   148d0: 89 04        	addi	s1, s1, 0x2
   148d2: 99 eb        	bnez	a5, 0x148e8 <emul+0x22c>
   148d4: e3 9c 99 fe  	bne	s3, s1, 0x148cc <emul+0x210>
   148d8: 1b 15 05 01  	slliw	a0, a0, 0x10
   148dc: 1b 55 05 41  	sraiw	a0, a0, 0x10
   148e0: 93 17 05 02  	slli	a5, a0, 0x20
   148e4: 63 c4 07 04  	bltz	a5, 0x1492c <emul+0x270>
   148e8: a1 67        	lui	a5, 0x8
   148ea: fd 17        	addi	a5, a5, -0x1
   148ec: 01 47        	li	a4, 0x0
   148ee: 63 84 f6 04  	beq	a3, a5, 0x14936 <emul+0x27a>
   148f2: 3d 82        	srli	a2, a2, 0xf
   148f4: 31 8f        	xor	a4, a4, a2
   148f6: 1b 17 f7 00  	slliw	a4, a4, 0xf
   148fa: 23 19 e4 00  	sh	a4, 0x12(s0)
   148fe: a2 87        	mv	a5, s0
   14900: 13 07 24 01  	addi	a4, s0, 0x12
   14904: 89 07        	addi	a5, a5, 0x2
   14906: 23 9f 07 fe  	sh	zero, -0x2(a5)
   1490a: e3 9d e7 fe  	bne	a5, a4, 0x14904 <emul+0x248>
   1490e: 83 57 24 01  	lhu	a5, 0x12(s0)
   14912: 21 67        	lui	a4, 0x8
   14914: 7d 17        	addi	a4, a4, -0x1
   14916: d9 8f        	or	a5, a5, a4
   14918: ea 70        	ld	ra, 0xb8(sp)
   1491a: 23 19 f4 00  	sh	a5, 0x12(s0)
   1491e: 4a 74        	ld	s0, 0xb0(sp)
   14920: aa 74        	ld	s1, 0xa8(sp)
   14922: 0a 79        	ld	s2, 0xa0(sp)
   14924: ea 69        	ld	s3, 0x98(sp)
   14926: 4a 6a        	ld	s4, 0x90(sp)
   14928: 29 61        	addi	sp, sp, 0xc0
   1492a: 82 80        	ret
   1492c: a1 67        	lui	a5, 0x8
   1492e: fd 17        	addi	a5, a5, -0x1
   14930: 05 47        	li	a4, 0x1
   14932: e3 90 f6 fc  	bne	a3, a5, 0x148f2 <emul+0x236>
   14936: 93 07 29 01  	addi	a5, s2, 0x12
   1493a: 83 56 09 00  	lhu	a3, 0x0(s2)
   1493e: 09 09        	addi	s2, s2, 0x2
   14940: 9d ee        	bnez	a3, 0x1497e <emul+0x2c2>
   14942: e3 9c 27 ff  	bne	a5, s2, 0x1493a <emul+0x27e>
   14946: 75 b7        	j	0x148f2 <emul+0x236>
   14948: 21 67        	lui	a4, 0x8
   1494a: 7d 17        	addi	a4, a4, -0x1
   1494c: b3 76 e6 00  	and	a3, a2, a4
   14950: b6 85        	mv	a1, a3
   14952: 93 07 29 01  	addi	a5, s2, 0x12
   14956: e3 83 e6 de  	beq	a3, a4, 0x1473c <emul+0x80>
   1495a: 85 b7        	j	0x148ba <emul+0x1fe>
   1495c: 13 07 04 01  	addi	a4, s0, 0x10
   14960: a2 87        	mv	a5, s0
   14962: 89 07        	addi	a5, a5, 0x2
   14964: 23 9f 07 fe  	sh	zero, -0x2(a5)
   14968: e3 1d f7 fe  	bne	a4, a5, 0x14962 <emul+0x2a6>
   1496c: e1 77        	lui	a5, 0xffff8
   1496e: 93 c7 f7 ff  	not	a5, a5
   14972: 71 77        	lui	a4, 0xffffc
   14974: 23 19 f4 00  	sh	a5, 0x12(s0)
   14978: 23 18 e4 00  	sh	a4, 0x10(s0)
   1497c: 6d b5        	j	0x14826 <emul+0x16a>
   1497e: 01 46        	li	a2, 0x0
   14980: 95 bf        	j	0x148f4 <emul+0x238>
   14982: a1 67        	lui	a5, 0x8
   14984: 2e 87        	mv	a4, a1
   14986: 93 85 f7 ff  	addi	a1, a5, -0x1
   1498a: cd bb        	j	0x1477c <emul+0xc0>
   1498c: 5a e1        	sd	s6, 0x80(sp)
   1498e: de fc        	sd	s7, 0x78(sp)
   14990: e2 f8        	sd	s8, 0x70(sp)
   14992: e6 f4        	sd	s9, 0x68(sp)
   14994: d6 89        	mv	s3, s5
   14996: 83 57 01 02  	lhu	a5, 0x20(sp)
   1499a: 93 04 8a 03  	addi	s1, s4, 0x38
   1499e: 23 1b 5a 03  	sh	s5, 0x36(s4)
   149a2: 23 1a fa 02  	sh	a5, 0x34(s4)
   149a6: 13 07 ea 04  	addi	a4, s4, 0x4e
   149aa: a6 87        	mv	a5, s1
   149ac: 23 90 07 00  	sh	zero, 0x0(a5)
   149b0: 89 07        	addi	a5, a5, 0x2
   149b2: e3 1d f7 fe  	bne	a4, a5, 0x149ac <emul+0x2f0>
   149b6: 13 0c ca 04  	addi	s8, s4, 0x4c
   149ba: 81 4b        	li	s7, 0x0
   149bc: 93 0a 81 01  	addi	s5, sp, 0x18
   149c0: 93 0c 41 00  	addi	s9, sp, 0x4
   149c4: 13 0b 21 04  	addi	s6, sp, 0x42
   149c8: 03 d5 0a 00  	lhu	a0, 0x0(s5)
   149cc: f9 1a        	addi	s5, s5, -0x2
   149ce: 3d ed        	bnez	a0, 0x14a4c <emul+0x390>
   149d0: 83 57 ca 04  	lhu	a5, 0x4c(s4)
   149d4: 62 87        	mv	a4, s8
   149d6: b3 eb fb 00  	or	s7, s7, a5
   149da: 03 56 e7 ff  	lhu	a2, -0x2(a4)
   149de: 79 17        	addi	a4, a4, -0x2
   149e0: 23 11 c7 00  	sh	a2, 0x2(a4)
   149e4: e3 1b 97 fe  	bne	a4, s1, 0x149da <emul+0x31e>
   149e8: 23 1c 0a 02  	sh	zero, 0x38(s4)
   149ec: e3 9e 9a fd  	bne	s5, s9, 0x149c8 <emul+0x30c>
   149f0: 13 07 4a 03  	addi	a4, s4, 0x34
   149f4: 1c 10        	addi	a5, sp, 0x20
   149f6: 13 06 a1 03  	addi	a2, sp, 0x3a
   149fa: 83 56 07 00  	lhu	a3, 0x0(a4)
   149fe: 89 07        	addi	a5, a5, 0x2
   14a00: 09 07        	addi	a4, a4, 0x2
   14a02: 23 9f d7 fe  	sh	a3, -0x2(a5)
   14a06: e3 9a c7 fe  	bne	a5, a2, 0x149fa <emul+0x33e>
   14a0a: f1 76        	lui	a3, 0xffffc
   14a0c: 4e 99        	add	s2, s2, s3
   14a0e: 89 06        	addi	a3, a3, 0x2
   14a10: de 85        	mv	a1, s7
   14a12: d2 87        	mv	a5, s4
   14a14: ca 96        	add	a3, a3, s2
   14a16: 13 07 00 04  	li	a4, 0x40
   14a1a: 01 46        	li	a2, 0x0
   14a1c: 08 10        	addi	a0, sp, 0x20
   14a1e: ef f0 8f a6  	jal	0x13c86 <emdnorm>
   14a22: 03 57 01 02  	lhu	a4, 0x20(sp)
   14a26: 83 57 01 00  	lhu	a5, 0x0(sp)
   14a2a: a2 85        	mv	a1, s0
   14a2c: 08 10        	addi	a0, sp, 0x20
   14a2e: 99 8f        	sub	a5, a5, a4
   14a30: b3 37 f0 00  	snez	a5, a5
   14a34: bb 07 f0 40  	negw	a5, a5
   14a38: 23 10 f1 02  	sh	a5, 0x20(sp)
   14a3c: ef e0 1f de  	jal	0x1381c <emovo.isra.0>
   14a40: aa 6a        	ld	s5, 0x88(sp)
   14a42: 0a 6b        	ld	s6, 0x80(sp)
   14a44: e6 7b        	ld	s7, 0x78(sp)
   14a46: 46 7c        	ld	s8, 0x70(sp)
   14a48: a6 7c        	ld	s9, 0x68(sp)
   14a4a: f1 bb        	j	0x14826 <emul+0x16a>
   14a4c: 90 00        	addi	a2, sp, 0x40
   14a4e: 0c 10        	addi	a1, sp, 0x20
   14a50: ef e0 7f d6  	jal	0x137b6 <m16m>
   14a54: e2 85        	mv	a1, s8
   14a56: b0 08        	addi	a2, sp, 0x58
   14a58: 81 47        	li	a5, 0x0
   14a5a: 83 d6 05 00  	lhu	a3, 0x0(a1)
   14a5e: 03 57 06 00  	lhu	a4, 0x0(a2)
   14a62: 79 16        	addi	a2, a2, -0x2
   14a64: f9 15        	addi	a1, a1, -0x2
   14a66: 36 97        	add	a4, a4, a3
   14a68: 3e 97        	add	a4, a4, a5
   14a6a: 23 91 e5 00  	sh	a4, 0x2(a1)
   14a6e: 41 83        	srli	a4, a4, 0x10
   14a70: 93 77 17 00  	andi	a5, a4, 0x1
   14a74: e3 13 66 ff  	bne	a2, s6, 0x14a5a <emul+0x39e>
   14a78: a1 bf        	j	0x149d0 <emul+0x314>
   14a7a: 0a 85        	mv	a0, sp
   14a7c: ef e0 df e2  	jal	0x138a8 <enormlz>
   14a80: 33 09 a0 40  	neg	s2, a0
   14a84: ad bb        	j	0x147fe <emul+0x142>
   14a86: 08 10        	addi	a0, sp, 0x20
   14a88: 5a e1        	sd	s6, 0x80(sp)
   14a8a: de fc        	sd	s7, 0x78(sp)
   14a8c: e2 f8        	sd	s8, 0x70(sp)
   14a8e: e6 f4        	sd	s9, 0x68(sp)
   14a90: ef e0 9f e1  	jal	0x138a8 <enormlz>
   14a94: b3 09 a0 40  	neg	s3, a0
   14a98: 83 5a 21 02  	lhu	s5, 0x22(sp)
   14a9c: ed bd        	j	0x14996 <emul+0x2da>
   14a9e: 03 d5 24 01  	lhu	a0, 0x12(s1)
   14aa2: b3 77 e5 00  	and	a5, a0, a4
   14aa6: e3 9d e7 d2  	bne	a5, a4, 0x147e0 <emul+0x124>
   14aaa: 01 bd        	j	0x148ba <emul+0x1fe>

0000000000014aac <_ldtoa_r>:
   14aac: 13 03 10 09  	li	t1, 0x91
   14ab0: 02 13        	slli	t1, t1, 0x20
   14ab2: 03 3e 05 06  	ld	t3, 0x60(a0)
   14ab6: 13 01 01 d9  	addi	sp, sp, -0x270
   14aba: 7d 13        	addi	t1, t1, -0x1
   14abc: 23 30 81 26  	sd	s0, 0x260(sp)
   14ac0: 23 30 41 25  	sd	s4, 0x240(sp)
   14ac4: 23 3c 51 23  	sd	s5, 0x238(sp)
   14ac8: 23 38 61 23  	sd	s6, 0x230(sp)
   14acc: 23 34 11 26  	sd	ra, 0x268(sp)
   14ad0: 23 3c 91 24  	sd	s1, 0x258(sp)
   14ad4: 23 38 21 25  	sd	s2, 0x250(sp)
   14ad8: 23 34 71 23  	sd	s7, 0x228(sp)
   14adc: ae f0        	sd	a1, 0x60(sp)
   14ade: b2 f4        	sd	a2, 0x68(sp)
   14ae0: 1a fb        	sd	t1, 0x1b0(sp)
   14ae2: 3a e8        	sd	a4, 0x10(sp)
   14ae4: 3e ec        	sd	a5, 0x18(sp)
   14ae6: 46 f0        	sd	a7, 0x20(sp)
   14ae8: 2a 8a        	mv	s4, a0
   14aea: b6 8a        	mv	s5, a3
   14aec: 42 84        	mv	s0, a6
   14aee: 01 4b        	li	s6, 0x0
   14af0: 63 0f 0e 00  	beqz	t3, 0x14b0e <_ldtoa_r+0x62>
   14af4: 38 55        	lw	a4, 0x68(a0)
   14af6: 85 47        	li	a5, 0x1
   14af8: f2 85        	mv	a1, t3
   14afa: bb 97 e7 00  	sllw	a5, a5, a4
   14afe: 23 24 ee 00  	sw	a4, 0x8(t3)
   14b02: 23 26 fe 00  	sw	a5, 0xc(t3)
   14b06: ef 10 90 07  	jal	0x1637e <_Bfree>
   14b0a: 23 30 0a 06  	sd	zero, 0x60(s4)
   14b0e: 0c 09        	addi	a1, sp, 0x90
   14b10: 88 10        	addi	a0, sp, 0x60
   14b12: ef f0 0f e4  	jal	0x14152 <e113toe.isra.0>
   14b16: 83 56 21 0a  	lhu	a3, 0xa2(sp)
   14b1a: a1 67        	lui	a5, 0x8
   14b1c: fd 17        	addi	a5, a5, -0x1
   14b1e: 33 f7 f6 00  	and	a4, a3, a5
   14b22: 3a f8        	sd	a4, 0x30(sp)
   14b24: 63 0e f7 50  	beq	a4, a5, 0x15040 <_ldtoa_r+0x594>
   14b28: 23 34 31 25  	sd	s3, 0x248(sp)
   14b2c: 23 30 81 23  	sd	s8, 0x220(sp)
   14b30: 23 3c 91 21  	sd	s9, 0x218(sp)
   14b34: 23 38 a1 21  	sd	s10, 0x210(sp)
   14b38: 23 34 b1 21  	sd	s11, 0x208(sp)
   14b3c: bd 82        	srli	a3, a3, 0xf
   14b3e: 14 c0        	sw	a3, 0x0(s0)
   14b40: 8d 47        	li	a5, 0x3
   14b42: e3 86 fa 00  	beq	s5, a5, 0x1534e <_ldtoa_r+0x8a2>
   14b46: d1 47        	li	a5, 0x14
   14b48: 3e e4        	sd	a5, 0x8(sp)
   14b4a: e3 9e 0a 00  	bnez	s5, 0x15366 <_ldtoa_r+0x8ba>
   14b4e: 1c 19        	addi	a5, sp, 0xb0
   14b50: 18 09        	addi	a4, sp, 0x90
   14b52: 13 0c 41 0c  	addi	s8, sp, 0xc4
   14b56: 83 56 07 00  	lhu	a3, 0x0(a4)
   14b5a: 89 07        	addi	a5, a5, 0x2
   14b5c: 09 07        	addi	a4, a4, 0x2
   14b5e: 23 9f d7 fe  	sh	a3, -0x2(a5)
   14b62: e3 9a 87 ff  	bne	a5, s8, 0x14b56 <_ldtoa_r+0xaa>
   14b66: 83 5c 21 0c  	lhu	s9, 0xc2(sp)
   14b6a: 02 f4        	sd	zero, 0x28(sp)
   14b6c: 9b 97 0c 01  	slliw	a5, s9, 0x10
   14b70: 9b d7 07 41  	sraiw	a5, a5, 0x10
   14b74: 13 97 07 02  	slli	a4, a5, 0x20
   14b78: 63 5a 07 00  	bgez	a4, 0x14b8c <_ldtoa_r+0xe0>
   14b7c: c6 1c        	slli	s9, s9, 0x31
   14b7e: c1 67        	lui	a5, 0x10
   14b80: 93 dc 1c 03  	srli	s9, s9, 0x31
   14b84: fd 17        	addi	a5, a5, -0x1
   14b86: 23 11 91 0d  	sh	s9, 0xc2(sp)
   14b8a: 3e f4        	sd	a5, 0x28(sp)
   14b8c: 9c 09        	addi	a5, sp, 0xd0
   14b8e: 17 a7 00 00  	auipc	a4, 0xa
   14b92: 13 07 a7 e2  	addi	a4, a4, -0x1d6
   14b96: 13 0d 41 0e  	addi	s10, sp, 0xe4
   14b9a: 83 56 07 00  	lhu	a3, 0x0(a4)
   14b9e: 89 07        	addi	a5, a5, 0x2
   14ba0: 09 07        	addi	a4, a4, 0x2
   14ba2: 23 9f d7 fe  	sh	a3, -0x2(a5)
   14ba6: e3 9a a7 ff  	bne	a5, s10, 0x14b9a <_ldtoa_r+0xee>
   14baa: 63 9c 0c 5e  	bnez	s9, 0x151a2 <_ldtoa_r+0x6f6>
   14bae: 1c 19        	addi	a5, sp, 0xb0
   14bb0: 93 06 21 0c  	addi	a3, sp, 0xc2
   14bb4: 03 d7 07 00  	lhu	a4, 0x0(a5)
   14bb8: 89 07        	addi	a5, a5, 0x2
   14bba: 63 1c 07 5e  	bnez	a4, 0x151b2 <_ldtoa_r+0x706>
   14bbe: e3 9b d7 fe  	bne	a5, a3, 0x14bb4 <_ldtoa_r+0x108>
   14bc2: 01 44        	li	s0, 0x0
   14bc4: 93 0b 01 17  	addi	s7, sp, 0x170
   14bc8: 13 09 01 1b  	addi	s2, sp, 0x1b0
   14bcc: 04 0a        	addi	s1, sp, 0x110
   14bce: 93 0d 81 12  	addi	s11, sp, 0x128
   14bd2: a6 85        	mv	a1, s1
   14bd4: 88 09        	addi	a0, sp, 0xd0
   14bd6: ef e0 7f f3  	jal	0x13b0c <emovi>
   14bda: a6 89        	mv	s3, s1
   14bdc: 94 09        	addi	a3, sp, 0xd0
   14bde: 26 87        	mv	a4, s1
   14be0: 1c 63        	ld	a5, 0x0(a4)
   14be2: 21 07        	addi	a4, a4, 0x8
   14be4: a1 06        	addi	a3, a3, 0x8
   14be6: 23 bc f6 fe  	sd	a5, -0x8(a3)
   14bea: e3 9b ed fe  	bne	s11, a4, 0x14be0 <_ldtoa_r+0x134>
   14bee: a6 85        	mv	a1, s1
   14bf0: 08 19        	addi	a0, sp, 0xb0
   14bf2: 23 14 01 0e  	sh	zero, 0xe8(sp)
   14bf6: ef e0 7f f1  	jal	0x13b0c <emovi>
   14bfa: 18 19        	addi	a4, sp, 0xb0
   14bfc: 83 b7 09 00  	ld	a5, 0x0(s3)
   14c00: a1 09        	addi	s3, s3, 0x8
   14c02: 21 07        	addi	a4, a4, 0x8
   14c04: 23 3c f7 fe  	sd	a5, -0x8(a4)
   14c08: e3 9a 3d ff  	bne	s11, s3, 0x14bfc <_ldtoa_r+0x150>
   14c0c: 4a 86        	mv	a2, s2
   14c0e: 0c 19        	addi	a1, sp, 0xb0
   14c10: 88 09        	addi	a0, sp, 0xd0
   14c12: 23 14 01 0c  	sh	zero, 0xc8(sp)
   14c16: 23 1e 61 1f  	sh	s6, 0x1fc(sp)
   14c1a: ef f0 0f c4  	jal	0x1405a <eiremain>
   14c1e: 83 5c c1 1f  	lhu	s9, 0x1fc(sp)
   14c22: e6 86        	mv	a3, s9
   14c24: 63 99 0c 16  	bnez	s9, 0x14d96 <_ldtoa_r+0x2ea>
   14c28: 13 0b 21 0b  	addi	s6, sp, 0xb2
   14c2c: 13 0c 81 10  	addi	s8, sp, 0x108
   14c30: 93 09 21 0f  	addi	s3, sp, 0xf2
   14c34: 97 a5 00 00  	auipc	a1, 0xa
   14c38: 93 85 c5 d9  	addi	a1, a1, -0x264
   14c3c: 08 19        	addi	a0, sp, 0xb0
   14c3e: ef e0 1f f6  	jal	0x13b9e <ecmp>
   14c42: 63 00 05 6c  	beqz	a0, 0x15302 <_ldtoa_r+0x856>
   14c46: 01 47        	li	a4, 0x0
   14c48: b4 01        	addi	a3, sp, 0xc8
   14c4a: 11 a8        	j	0x14c5e <_ldtoa_r+0x1b2>
   14c4c: 1b 17 17 00  	slliw	a4, a4, 0x1
   14c50: 23 90 f6 00  	sh	a5, 0x0(a3)
   14c54: 42 17        	slli	a4, a4, 0x30
   14c56: f9 16        	addi	a3, a3, -0x2
   14c58: 41 93        	srli	a4, a4, 0x30
   14c5a: 63 80 66 05  	beq	a3, s6, 0x14c9a <_ldtoa_r+0x1ee>
   14c5e: 83 d7 06 00  	lhu	a5, 0x0(a3)
   14c62: 1b 96 07 01  	slliw	a2, a5, 0x10
   14c66: 1b 56 06 41  	sraiw	a2, a2, 0x10
   14c6a: 9b 97 17 00  	slliw	a5, a5, 0x1
   14c6e: c2 17        	slli	a5, a5, 0x30
   14c70: 93 15 06 02  	slli	a1, a2, 0x20
   14c74: c1 93        	srli	a5, a5, 0x30
   14c76: 63 d4 05 00  	bgez	a1, 0x14c7e <_ldtoa_r+0x1d2>
   14c7a: 13 67 17 00  	ori	a4, a4, 0x1
   14c7e: 13 76 27 00  	andi	a2, a4, 0x2
   14c82: 93 e5 17 00  	ori	a1, a5, 0x1
   14c86: 79 d2        	beqz	a2, 0x14c4c <_ldtoa_r+0x1a0>
   14c88: 1b 17 17 00  	slliw	a4, a4, 0x1
   14c8c: 23 90 b6 00  	sh	a1, 0x0(a3)
   14c90: 42 17        	slli	a4, a4, 0x30
   14c92: f9 16        	addi	a3, a3, -0x2
   14c94: 41 93        	srli	a4, a4, 0x30
   14c96: e3 94 66 fd  	bne	a3, s6, 0x14c5e <_ldtoa_r+0x1b2>
   14c9a: 9c 19        	addi	a5, sp, 0xf0
   14c9c: 18 19        	addi	a4, sp, 0xb0
   14c9e: 14 63        	ld	a3, 0x0(a4)
   14ca0: a1 07        	addi	a5, a5, 0x8
   14ca2: 21 07        	addi	a4, a4, 0x8
   14ca4: 23 bc d7 fe  	sd	a3, -0x8(a5)
   14ca8: e3 1b fc fe  	bne	s8, a5, 0x14c9e <_ldtoa_r+0x1f2>
   14cac: 23 14 01 10  	sh	zero, 0x108(sp)
   14cb0: 01 47        	li	a4, 0x0
   14cb2: e2 86        	mv	a3, s8
   14cb4: 11 a8        	j	0x14cc8 <_ldtoa_r+0x21c>
   14cb6: 1b 17 17 00  	slliw	a4, a4, 0x1
   14cba: 23 90 f6 00  	sh	a5, 0x0(a3)
   14cbe: 42 17        	slli	a4, a4, 0x30
   14cc0: f9 16        	addi	a3, a3, -0x2
   14cc2: 41 93        	srli	a4, a4, 0x30
   14cc4: 63 80 36 05  	beq	a3, s3, 0x14d04 <_ldtoa_r+0x258>
   14cc8: 83 d7 06 00  	lhu	a5, 0x0(a3)
   14ccc: 1b 96 07 01  	slliw	a2, a5, 0x10
   14cd0: 1b 56 06 41  	sraiw	a2, a2, 0x10
   14cd4: 9b 97 17 00  	slliw	a5, a5, 0x1
   14cd8: c2 17        	slli	a5, a5, 0x30
   14cda: 93 15 06 02  	slli	a1, a2, 0x20
   14cde: c1 93        	srli	a5, a5, 0x30
   14ce0: 63 d4 05 00  	bgez	a1, 0x14ce8 <_ldtoa_r+0x23c>
   14ce4: 13 67 17 00  	ori	a4, a4, 0x1
   14ce8: 13 76 27 00  	andi	a2, a4, 0x2
   14cec: 93 e5 17 00  	ori	a1, a5, 0x1
   14cf0: 79 d2        	beqz	a2, 0x14cb6 <_ldtoa_r+0x20a>
   14cf2: 1b 17 17 00  	slliw	a4, a4, 0x1
   14cf6: 23 90 b6 00  	sh	a1, 0x0(a3)
   14cfa: 42 17        	slli	a4, a4, 0x30
   14cfc: f9 16        	addi	a3, a3, -0x2
   14cfe: 41 93        	srli	a4, a4, 0x30
   14d00: e3 94 36 fd  	bne	a3, s3, 0x14cc8 <_ldtoa_r+0x21c>
   14d04: 01 47        	li	a4, 0x0
   14d06: e2 86        	mv	a3, s8
   14d08: 11 a8        	j	0x14d1c <_ldtoa_r+0x270>
   14d0a: 1b 17 17 00  	slliw	a4, a4, 0x1
   14d0e: 23 90 f6 00  	sh	a5, 0x0(a3)
   14d12: 42 17        	slli	a4, a4, 0x30
   14d14: f9 16        	addi	a3, a3, -0x2
   14d16: 41 93        	srli	a4, a4, 0x30
   14d18: 63 80 36 05  	beq	a3, s3, 0x14d58 <_ldtoa_r+0x2ac>
   14d1c: 83 d7 06 00  	lhu	a5, 0x0(a3)
   14d20: 1b 96 07 01  	slliw	a2, a5, 0x10
   14d24: 1b 56 06 41  	sraiw	a2, a2, 0x10
   14d28: 9b 97 17 00  	slliw	a5, a5, 0x1
   14d2c: c2 17        	slli	a5, a5, 0x30
   14d2e: 93 15 06 02  	slli	a1, a2, 0x20
   14d32: c1 93        	srli	a5, a5, 0x30
   14d34: 63 d4 05 00  	bgez	a1, 0x14d3c <_ldtoa_r+0x290>
   14d38: 13 67 17 00  	ori	a4, a4, 0x1
   14d3c: 13 76 27 00  	andi	a2, a4, 0x2
   14d40: 93 e5 17 00  	ori	a1, a5, 0x1
   14d44: 79 d2        	beqz	a2, 0x14d0a <_ldtoa_r+0x25e>
   14d46: 1b 17 17 00  	slliw	a4, a4, 0x1
   14d4a: 23 90 b6 00  	sh	a1, 0x0(a3)
   14d4e: 42 17        	slli	a4, a4, 0x30
   14d50: f9 16        	addi	a3, a3, -0x2
   14d52: 41 93        	srli	a4, a4, 0x30
   14d54: e3 94 36 fd  	bne	a3, s3, 0x14d1c <_ldtoa_r+0x270>
   14d58: 01 46        	li	a2, 0x0
   14d5a: b4 01        	addi	a3, sp, 0xc8
   14d5c: 62 87        	mv	a4, s8
   14d5e: 83 d5 06 00  	lhu	a1, 0x0(a3)
   14d62: 83 57 07 00  	lhu	a5, 0x0(a4)
   14d66: 79 17        	addi	a4, a4, -0x2
   14d68: f9 16        	addi	a3, a3, -0x2
   14d6a: ae 97        	add	a5, a5, a1
   14d6c: b2 97        	add	a5, a5, a2
   14d6e: 23 91 f6 00  	sh	a5, 0x2(a3)
   14d72: c1 83        	srli	a5, a5, 0x10
   14d74: 13 f6 17 00  	andi	a2, a5, 0x1
   14d78: e3 13 37 ff  	bne	a4, s3, 0x14d5e <_ldtoa_r+0x2b2>
   14d7c: 4a 86        	mv	a2, s2
   14d7e: 0c 19        	addi	a1, sp, 0xb0
   14d80: 88 09        	addi	a0, sp, 0xd0
   14d82: 23 1e 01 1e  	sh	zero, 0x1fc(sp)
   14d86: ef f0 4f ad  	jal	0x1405a <eiremain>
   14d8a: 83 56 c1 1f  	lhu	a3, 0x1fc(sp)
   14d8e: 7d 34        	addiw	s0, s0, -0x1
   14d90: e3 82 06 ea  	beqz	a3, 0x14c34 <_ldtoa_r+0x188>
   14d94: b6 8c        	mv	s9, a3
   14d96: a2 77        	ld	a5, 0x28(sp)
   14d98: 13 07 00 02  	li	a4, 0x20
   14d9c: 99 c3        	beqz	a5, 0x14da2 <_ldtoa_r+0x2f6>
   14d9e: 13 07 d0 02  	li	a4, 0x2d
   14da2: 23 08 e1 16  	sb	a4, 0x170(sp)
   14da6: 0d 46        	li	a2, 0x3
   14da8: 22 67        	ld	a4, 0x8(sp)
   14daa: 63 93 ca 00  	bne	s5, a2, 0x14db0 <_ldtoa_r+0x304>
   14dae: 21 9f        	addw	a4, a4, s0
   14db0: 93 05 a0 02  	li	a1, 0x2a
   14db4: 1b 06 07 00  	sext.w	a2, a4
   14db8: 63 d3 e5 00  	bge	a1, a4, 0x14dbe <_ldtoa_r+0x312>
   14dbc: 2e 86        	mv	a2, a1
   14dbe: a9 45        	li	a1, 0xa
   14dc0: 63 85 bc 56  	beq	s9, a1, 0x1532a <_ldtoa_r+0x87e>
   14dc4: 9b 8c 0c 03  	addiw	s9, s9, 0x30
   14dc8: 93 05 e0 02  	li	a1, 0x2e
   14dcc: a3 08 91 17  	sb	s9, 0x171(sp)
   14dd0: 23 09 b1 16  	sb	a1, 0x172(sp)
   14dd4: e3 44 07 1c  	bltz	a4, 0x1579c <_ldtoa_r+0xcf0>
   14dd8: 93 05 31 17  	addi	a1, sp, 0x173
   14ddc: 93 0d 81 0c  	addi	s11, sp, 0xc8
   14de0: 13 0b 16 00  	addi	s6, a2, 0x1
   14de4: 22 f4        	sd	s0, 0x28(sp)
   14de6: 2e 9b        	add	s6, s6, a1
   14de8: 6e 84        	mv	s0, s11
   14dea: 2e 8d        	mv	s10, a1
   14dec: 93 09 01 0f  	addi	s3, sp, 0xf0
   14df0: 93 0c 21 0b  	addi	s9, sp, 0xb2
   14df4: 13 0c 21 0f  	addi	s8, sp, 0xf2
   14df8: b2 84        	mv	s1, a2
   14dfa: ae 8d        	mv	s11, a1
   14dfc: 01 46        	li	a2, 0x0
   14dfe: ac 01        	addi	a1, sp, 0xc8
   14e00: 11 a8        	j	0x14e14 <_ldtoa_r+0x368>
   14e02: 1b 16 16 00  	slliw	a2, a2, 0x1
   14e06: 23 90 f5 00  	sh	a5, 0x0(a1)
   14e0a: 42 16        	slli	a2, a2, 0x30
   14e0c: f9 15        	addi	a1, a1, -0x2
   14e0e: 41 92        	srli	a2, a2, 0x30
   14e10: 63 80 95 05  	beq	a1, s9, 0x14e50 <_ldtoa_r+0x3a4>
   14e14: 83 d7 05 00  	lhu	a5, 0x0(a1)
   14e18: 1b 95 07 01  	slliw	a0, a5, 0x10
   14e1c: 1b 55 05 41  	sraiw	a0, a0, 0x10
   14e20: 9b 97 17 00  	slliw	a5, a5, 0x1
   14e24: c2 17        	slli	a5, a5, 0x30
   14e26: 13 18 05 02  	slli	a6, a0, 0x20
   14e2a: c1 93        	srli	a5, a5, 0x30
   14e2c: 63 54 08 00  	bgez	a6, 0x14e34 <_ldtoa_r+0x388>
   14e30: 13 66 16 00  	ori	a2, a2, 0x1
   14e34: 13 75 26 00  	andi	a0, a2, 0x2
   14e38: 13 e8 17 00  	ori	a6, a5, 0x1
   14e3c: 79 d1        	beqz	a0, 0x14e02 <_ldtoa_r+0x356>
   14e3e: 1b 16 16 00  	slliw	a2, a2, 0x1
   14e42: 23 90 05 01  	sh	a6, 0x0(a1)
   14e46: 42 16        	slli	a2, a2, 0x30
   14e48: f9 15        	addi	a1, a1, -0x2
   14e4a: 41 92        	srli	a2, a2, 0x30
   14e4c: e3 94 95 fd  	bne	a1, s9, 0x14e14 <_ldtoa_r+0x368>
   14e50: 4e 86        	mv	a2, s3
   14e52: 1c 19        	addi	a5, sp, 0xb0
   14e54: 8c 63        	ld	a1, 0x0(a5)
   14e56: a1 07        	addi	a5, a5, 0x8
   14e58: 21 06        	addi	a2, a2, 0x8
   14e5a: 23 3c b6 fe  	sd	a1, -0x8(a2)
   14e5e: e3 1b f4 fe  	bne	s0, a5, 0x14e54 <_ldtoa_r+0x3a8>
   14e62: 23 14 01 10  	sh	zero, 0x108(sp)
   14e66: 01 46        	li	a2, 0x0
   14e68: 2c 02        	addi	a1, sp, 0x108
   14e6a: 11 a8        	j	0x14e7e <_ldtoa_r+0x3d2>
   14e6c: 1b 16 16 00  	slliw	a2, a2, 0x1
   14e70: 23 90 f5 00  	sh	a5, 0x0(a1)
   14e74: 42 16        	slli	a2, a2, 0x30
   14e76: f9 15        	addi	a1, a1, -0x2
   14e78: 41 92        	srli	a2, a2, 0x30
   14e7a: 63 80 85 05  	beq	a1, s8, 0x14eba <_ldtoa_r+0x40e>
   14e7e: 83 d7 05 00  	lhu	a5, 0x0(a1)
   14e82: 1b 95 07 01  	slliw	a0, a5, 0x10
   14e86: 1b 55 05 41  	sraiw	a0, a0, 0x10
   14e8a: 9b 97 17 00  	slliw	a5, a5, 0x1
   14e8e: c2 17        	slli	a5, a5, 0x30
   14e90: 13 18 05 02  	slli	a6, a0, 0x20
   14e94: c1 93        	srli	a5, a5, 0x30
   14e96: 63 54 08 00  	bgez	a6, 0x14e9e <_ldtoa_r+0x3f2>
   14e9a: 13 66 16 00  	ori	a2, a2, 0x1
   14e9e: 13 75 26 00  	andi	a0, a2, 0x2
   14ea2: 13 e8 17 00  	ori	a6, a5, 0x1
   14ea6: 79 d1        	beqz	a0, 0x14e6c <_ldtoa_r+0x3c0>
   14ea8: 1b 16 16 00  	slliw	a2, a2, 0x1
   14eac: 23 90 05 01  	sh	a6, 0x0(a1)
   14eb0: 42 16        	slli	a2, a2, 0x30
   14eb2: f9 15        	addi	a1, a1, -0x2
   14eb4: 41 92        	srli	a2, a2, 0x30
   14eb6: e3 94 85 fd  	bne	a1, s8, 0x14e7e <_ldtoa_r+0x3d2>
   14eba: 01 46        	li	a2, 0x0
   14ebc: 2c 02        	addi	a1, sp, 0x108
   14ebe: 11 a8        	j	0x14ed2 <_ldtoa_r+0x426>
   14ec0: 1b 16 16 00  	slliw	a2, a2, 0x1
   14ec4: 23 90 f5 00  	sh	a5, 0x0(a1)
   14ec8: 42 16        	slli	a2, a2, 0x30
   14eca: f9 15        	addi	a1, a1, -0x2
   14ecc: 41 92        	srli	a2, a2, 0x30
   14ece: 63 80 85 05  	beq	a1, s8, 0x14f0e <_ldtoa_r+0x462>
   14ed2: 83 d7 05 00  	lhu	a5, 0x0(a1)
   14ed6: 1b 95 07 01  	slliw	a0, a5, 0x10
   14eda: 1b 55 05 41  	sraiw	a0, a0, 0x10
   14ede: 9b 97 17 00  	slliw	a5, a5, 0x1
   14ee2: c2 17        	slli	a5, a5, 0x30
   14ee4: 13 18 05 02  	slli	a6, a0, 0x20
   14ee8: c1 93        	srli	a5, a5, 0x30
   14eea: 63 54 08 00  	bgez	a6, 0x14ef2 <_ldtoa_r+0x446>
   14eee: 13 66 16 00  	ori	a2, a2, 0x1
   14ef2: 13 75 26 00  	andi	a0, a2, 0x2
   14ef6: 13 e8 17 00  	ori	a6, a5, 0x1
   14efa: 79 d1        	beqz	a0, 0x14ec0 <_ldtoa_r+0x414>
   14efc: 1b 16 16 00  	slliw	a2, a2, 0x1
   14f00: 23 90 05 01  	sh	a6, 0x0(a1)
   14f04: 42 16        	slli	a2, a2, 0x30
   14f06: f9 15        	addi	a1, a1, -0x2
   14f08: 41 92        	srli	a2, a2, 0x30
   14f0a: e3 94 85 fd  	bne	a1, s8, 0x14ed2 <_ldtoa_r+0x426>
   14f0e: 01 45        	li	a0, 0x0
   14f10: ac 01        	addi	a1, sp, 0xc8
   14f12: 30 02        	addi	a2, sp, 0x108
   14f14: 03 d8 05 00  	lhu	a6, 0x0(a1)
   14f18: 83 57 06 00  	lhu	a5, 0x0(a2)
   14f1c: 79 16        	addi	a2, a2, -0x2
   14f1e: f9 15        	addi	a1, a1, -0x2
   14f20: c2 97        	add	a5, a5, a6
   14f22: aa 97        	add	a5, a5, a0
   14f24: 23 91 f5 00  	sh	a5, 0x2(a1)
   14f28: c1 83        	srli	a5, a5, 0x10
   14f2a: 13 f5 17 00  	andi	a0, a5, 0x1
   14f2e: e3 13 86 ff  	bne	a2, s8, 0x14f14 <_ldtoa_r+0x468>
   14f32: 4a 86        	mv	a2, s2
   14f34: 0c 19        	addi	a1, sp, 0xb0
   14f36: 88 09        	addi	a0, sp, 0xd0
   14f38: 23 1e d1 1e  	sh	a3, 0x1fc(sp)
   14f3c: ef f0 ef 91  	jal	0x1405a <eiremain>
   14f40: 83 56 c1 1f  	lhu	a3, 0x1fc(sp)
   14f44: 85 0d        	addi	s11, s11, 0x1
   14f46: 9b 87 06 03  	addiw	a5, a3, 0x30
   14f4a: a3 8f fd fe  	sb	a5, -0x1(s11)
   14f4e: e3 17 bb eb  	bne	s6, s11, 0x14dfc <_ldtoa_r+0x350>
   14f52: 11 47        	li	a4, 0x4
   14f54: 22 74        	ld	s0, 0x28(sp)
   14f56: 26 86        	mv	a2, s1
   14f58: b3 09 9d 00  	add	s3, s10, s1
   14f5c: 63 5d d7 04  	bge	a4, a3, 0x14fb6 <_ldtoa_r+0x50a>
   14f60: 13 07 1d 00  	addi	a4, s10, 0x1
   14f64: 95 45        	li	a1, 0x5
   14f66: 33 09 97 00  	add	s2, a4, s1
   14f6a: 63 8c b6 62  	beq	a3, a1, 0x155a2 <_ldtoa_r+0xaf6>
   14f6e: 83 46 e9 ff  	lbu	a3, -0x2(s2)
   14f72: 93 f6 f6 07  	andi	a3, a3, 0x7f
   14f76: 13 06 e0 02  	li	a2, 0x2e
   14f7a: 13 07 e9 ff  	addi	a4, s2, -0x2
   14f7e: 63 81 c6 02  	beq	a3, a2, 0x14fa0 <_ldtoa_r+0x4f4>
   14f82: 93 05 80 03  	li	a1, 0x38
   14f86: 13 05 00 03  	li	a0, 0x30
   14f8a: 63 fa d5 7e  	bgeu	a1, a3, 0x1577e <_ldtoa_r+0xcd2>
   14f8e: 23 00 a7 00  	sb	a0, 0x0(a4)
   14f92: 83 46 f7 ff  	lbu	a3, -0x1(a4)
   14f96: 7d 17        	addi	a4, a4, -0x1
   14f98: 93 f6 f6 07  	andi	a3, a3, 0x7f
   14f9c: e3 97 c6 fe  	bne	a3, a2, 0x14f8a <_ldtoa_r+0x4de>
   14fa0: 83 46 f7 ff  	lbu	a3, -0x1(a4)
   14fa4: 13 06 80 03  	li	a2, 0x38
   14fa8: e3 72 d6 02  	bgeu	a2, a3, 0x157cc <_ldtoa_r+0xd20>
   14fac: 93 06 10 03  	li	a3, 0x31
   14fb0: 05 24        	addiw	s0, s0, 0x1
   14fb2: a3 0f d7 fe  	sb	a3, -0x1(a4)
   14fb6: 4e 85        	mv	a0, s3
   14fb8: 22 86        	mv	a2, s0
   14fba: 97 95 00 00  	auipc	a1, 0x9
   14fbe: 93 85 e5 54  	addi	a1, a1, 0x54e
   14fc2: ef 20 a0 26  	jal	0x1722c <sprintf>
   14fc6: c2 77        	ld	a5, 0x30(sp)
   14fc8: 93 06 00 09  	li	a3, 0x90
   14fcc: 21 67        	lui	a4, 0x8
   14fce: 23 20 81 1c  	sw	s0, 0x1c0(sp)
   14fd2: 23 2a d1 1a  	sw	a3, 0x1b4(sp)
   14fd6: 7d 17        	addi	a4, a4, -0x1
   14fd8: 83 39 81 24  	ld	s3, 0x248(sp)
   14fdc: 03 3c 01 22  	ld	s8, 0x220(sp)
   14fe0: 83 3c 81 21  	ld	s9, 0x218(sp)
   14fe4: 03 3d 01 21  	ld	s10, 0x210(sp)
   14fe8: 83 3d 81 20  	ld	s11, 0x208(sp)
   14fec: 63 8b e7 18  	beq	a5, a4, 0x15182 <_ldtoa_r+0x6d6>
   14ff0: e2 67        	ld	a5, 0x18(sp)
   14ff2: 83 46 01 17  	lbu	a3, 0x170(sp)
   14ff6: 1b 07 14 00  	addiw	a4, s0, 0x1
   14ffa: 98 c3        	sw	a4, 0x0(a5)
   14ffc: 5e 87        	mv	a4, s7
   14ffe: 95 c2        	beqz	a3, 0x15022 <_ldtoa_r+0x576>
   15000: 13 06 e0 02  	li	a2, 0x2e
   15004: 63 81 c6 30  	beq	a3, a2, 0x15306 <_ldtoa_r+0x85a>
   15008: 83 46 17 00  	lbu	a3, 0x1(a4)
   1500c: 05 07        	addi	a4, a4, 0x1
   1500e: fd fa        	bnez	a3, 0x15004 <_ldtoa_r+0x558>
   15010: 13 06 50 04  	li	a2, 0x45
   15014: 63 f7 eb 00  	bgeu	s7, a4, 0x15022 <_ldtoa_r+0x576>
   15018: 83 47 f7 ff  	lbu	a5, -0x1(a4)
   1501c: 7d 17        	addi	a4, a4, -0x1
   1501e: e3 9b c7 fe  	bne	a5, a2, 0x15014 <_ldtoa_r+0x568>
   15022: 23 00 07 00  	sb	zero, 0x0(a4)
   15026: 5e 87        	mv	a4, s7
   15028: 13 06 00 02  	li	a2, 0x20
   1502c: 93 05 d0 02  	li	a1, 0x2d
   15030: 83 47 07 00  	lbu	a5, 0x0(a4)
   15034: 63 84 c7 00  	beq	a5, a2, 0x1503c <_ldtoa_r+0x590>
   15038: 63 94 b7 06  	bne	a5, a1, 0x150a0 <_ldtoa_r+0x5f4>
   1503c: 05 07        	addi	a4, a4, 0x1
   1503e: cd bf        	j	0x15030 <_ldtoa_r+0x584>
   15040: 1c 09        	addi	a5, sp, 0x90
   15042: 13 06 21 0a  	addi	a2, sp, 0xa2
   15046: 03 d7 07 00  	lhu	a4, 0x0(a5)
   1504a: 89 07        	addi	a5, a5, 0x2
   1504c: 63 16 07 5a  	bnez	a4, 0x155f8 <_ldtoa_r+0xb4c>
   15050: e3 9b c7 fe  	bne	a5, a2, 0x15046 <_ldtoa_r+0x59a>
   15054: bd 82        	srli	a3, a3, 0xf
   15056: 14 c0        	sw	a3, 0x0(s0)
   15058: 8d 47        	li	a5, 0x3
   1505a: 63 84 fa 58  	beq	s5, a5, 0x155e2 <_ldtoa_r+0xb36>
   1505e: d1 47        	li	a5, 0x14
   15060: 3e e4        	sd	a5, 0x8(sp)
   15062: 63 8b 0a 00  	beqz	s5, 0x15078 <_ldtoa_r+0x5cc>
   15066: c2 67        	ld	a5, 0x10(sp)
   15068: 13 07 a0 02  	li	a4, 0x2a
   1506c: fd 37        	addiw	a5, a5, -0x1
   1506e: be 8b        	mv	s7, a5
   15070: 63 53 f7 00  	bge	a4, a5, 0x15076 <_ldtoa_r+0x5ca>
   15074: ba 8b        	mv	s7, a4
   15076: 5e e4        	sd	s7, 0x8(sp)
   15078: 1c 09        	addi	a5, sp, 0x90
   1507a: 93 06 21 0a  	addi	a3, sp, 0xa2
   1507e: 03 d7 07 00  	lhu	a4, 0x0(a5)
   15082: 89 07        	addi	a5, a5, 0x2
   15084: 69 ef        	bnez	a4, 0x1515e <_ldtoa_r+0x6b2>
   15086: e3 9c d7 fe  	bne	a5, a3, 0x1507e <_ldtoa_r+0x5d2>
   1508a: 23 34 31 25  	sd	s3, 0x248(sp)
   1508e: 23 30 81 23  	sd	s8, 0x220(sp)
   15092: 23 3c 91 21  	sd	s9, 0x218(sp)
   15096: 23 38 a1 21  	sd	s10, 0x210(sp)
   1509a: 23 34 b1 21  	sd	s11, 0x208(sp)
   1509e: 45 bc        	j	0x14b4e <_ldtoa_r+0xa2>
   150a0: de 86        	mv	a3, s7
   150a2: 83 47 07 00  	lbu	a5, 0x0(a4)
   150a6: 36 89        	mv	s2, a3
   150a8: 05 07        	addi	a4, a4, 0x1
   150aa: 23 80 f6 00  	sb	a5, 0x0(a3)
   150ae: 85 06        	addi	a3, a3, 0x1
   150b0: ed fb        	bnez	a5, 0x150a2 <_ldtoa_r+0x5f6>
   150b2: 09 47        	li	a4, 0x2
   150b4: 03 46 f9 ff  	lbu	a2, -0x1(s2)
   150b8: 63 8a ea 20  	beq	s5, a4, 0x152cc <_ldtoa_r+0x820>
   150bc: a2 67        	ld	a5, 0x8(sp)
   150be: 22 87        	mv	a4, s0
   150c0: 63 53 f4 00  	bge	s0, a5, 0x150c6 <_ldtoa_r+0x61a>
   150c4: 3e 87        	mv	a4, a5
   150c6: 93 05 00 03  	li	a1, 0x30
   150ca: 9b 06 07 00  	sext.w	a3, a4
   150ce: 63 10 b6 02  	bne	a2, a1, 0x150ee <_ldtoa_r+0x642>
   150d2: 13 06 00 03  	li	a2, 0x30
   150d6: 01 a8        	j	0x150e6 <_ldtoa_r+0x63a>
   150d8: 83 47 e9 ff  	lbu	a5, -0x2(s2)
   150dc: a3 0f 09 fe  	sb	zero, -0x1(s2)
   150e0: 7d 19        	addi	s2, s2, -0x1
   150e2: 63 96 c7 00  	bne	a5, a2, 0x150ee <_ldtoa_r+0x642>
   150e6: b3 07 79 41  	sub	a5, s2, s7
   150ea: e3 c7 f6 fe  	blt	a3, a5, 0x150d8 <_ldtoa_r+0x62c>
   150ee: 0d 47        	li	a4, 0x3
   150f0: 63 84 ea 1e  	beq	s5, a4, 0x152d8 <_ldtoa_r+0x82c>
   150f4: c2 67        	ld	a5, 0x10(sp)
   150f6: 7d 46        	li	a2, 0x1f
   150f8: 85 46        	li	a3, 0x1
   150fa: 9b 84 97 00  	addiw	s1, a5, 0x9
   150fe: 11 47        	li	a4, 0x4
   15100: 63 7d 96 1e  	bgeu	a2, s1, 0x152fa <_ldtoa_r+0x84e>
   15104: 1b 17 17 00  	slliw	a4, a4, 0x1
   15108: 93 07 c7 01  	addi	a5, a4, 0x1c
   1510c: b6 85        	mv	a1, a3
   1510e: 85 26        	addiw	a3, a3, 0x1
   15110: e3 fa f4 fe  	bgeu	s1, a5, 0x15104 <_ldtoa_r+0x658>
   15114: 23 24 ba 06  	sw	a1, 0x68(s4)
   15118: 52 85        	mv	a0, s4
   1511a: ef 10 c0 1f  	jal	0x16316 <_Balloc>
   1511e: 23 30 aa 06  	sd	a0, 0x60(s4)
   15122: de 85        	mv	a1, s7
   15124: 2a 84        	mv	s0, a0
   15126: ef 20 60 22  	jal	0x1734c <strcpy>
   1512a: 02 77        	ld	a4, 0x20(sp)
   1512c: 09 c7        	beqz	a4, 0x15136 <_ldtoa_r+0x68a>
   1512e: b3 07 79 41  	sub	a5, s2, s7
   15132: a2 97        	add	a5, a5, s0
   15134: 1c e3        	sd	a5, 0x0(a4)
   15136: 83 30 81 26  	ld	ra, 0x268(sp)
   1513a: 22 85        	mv	a0, s0
   1513c: 03 34 01 26  	ld	s0, 0x260(sp)
   15140: 83 34 81 25  	ld	s1, 0x258(sp)
   15144: 03 39 01 25  	ld	s2, 0x250(sp)
   15148: 03 3a 01 24  	ld	s4, 0x240(sp)
   1514c: 83 3a 81 23  	ld	s5, 0x238(sp)
   15150: 03 3b 01 23  	ld	s6, 0x230(sp)
   15154: 83 3b 81 22  	ld	s7, 0x228(sp)
   15158: 13 01 01 27  	addi	sp, sp, 0x270
   1515c: 82 80        	ret
   1515e: 93 0b 01 17  	addi	s7, sp, 0x170
   15162: 5e 85        	mv	a0, s7
   15164: 97 95 00 00  	auipc	a1, 0x9
   15168: 93 85 c5 3a  	addi	a1, a1, 0x3ac
   1516c: ef 20 00 0c  	jal	0x1722c <sprintf>
   15170: 09 64        	lui	s0, 0x2
   15172: 13 07 00 09  	li	a4, 0x90
   15176: 13 04 f4 70  	addi	s0, s0, 0x70f
   1517a: 23 2a e1 1a  	sw	a4, 0x1b4(sp)
   1517e: 23 20 81 1c  	sw	s0, 0x1c0(sp)
   15182: 18 09        	addi	a4, sp, 0x90
   15184: 13 06 21 0a  	addi	a2, sp, 0xa2
   15188: 83 57 07 00  	lhu	a5, 0x0(a4)
   1518c: 09 07        	addi	a4, a4, 0x2
   1518e: 63 98 07 5c  	bnez	a5, 0x1575e <_ldtoa_r+0xcb2>
   15192: e3 1b c7 fe  	bne	a4, a2, 0x15188 <_ldtoa_r+0x6dc>
   15196: e2 67        	ld	a5, 0x18(sp)
   15198: 09 67        	lui	a4, 0x2
   1519a: 13 07 f7 70  	addi	a4, a4, 0x70f
   1519e: 98 c3        	sw	a4, 0x0(a5)
   151a0: 59 b5        	j	0x15026 <_ldtoa_r+0x57a>
   151a2: a1 67        	lui	a5, 0x8
   151a4: fd 17        	addi	a5, a5, -0x1
   151a6: 63 8d fc 58  	beq	s9, a5, 0x15740 <_ldtoa_r+0xc94>
   151aa: 83 17 01 0c  	lh	a5, 0xc0(sp)
   151ae: 63 dd 07 5c  	bgez	a5, 0x15788 <_ldtoa_r+0xcdc>
   151b2: 0c 19        	addi	a1, sp, 0xb0
   151b4: 17 a5 00 00  	auipc	a0, 0xa
   151b8: 13 05 45 80  	addi	a0, a0, -0x7fc
   151bc: ef e0 3f 9e  	jal	0x13b9e <ecmp>
   151c0: e3 01 05 a0  	beqz	a0, 0x14bc2 <_ldtoa_r+0x116>
   151c4: 63 4c 05 1a  	bltz	a0, 0x1537c <_ldtoa_r+0x8d0>
   151c8: 63 9e 0c 62  	bnez	s9, 0x15804 <_ldtoa_r+0xd58>
   151cc: 83 17 01 0c  	lh	a5, 0xc0(sp)
   151d0: 01 44        	li	s0, 0x0
   151d2: 13 09 01 1b  	addi	s2, sp, 0x1b0
   151d6: 63 c4 07 02  	bltz	a5, 0x151fe <_ldtoa_r+0x752>
   151da: 10 19        	addi	a2, sp, 0xb0
   151dc: ca 86        	mv	a3, s2
   151de: b2 85        	mv	a1, a2
   151e0: 17 95 00 00  	auipc	a0, 0x9
   151e4: 13 05 05 7c  	addi	a0, a0, 0x7c0
   151e8: 23 1e 61 1f  	sh	s6, 0x1fc(sp)
   151ec: ef f0 0f cd  	jal	0x146bc <emul>
   151f0: 83 17 01 0c  	lh	a5, 0xc0(sp)
   151f4: 03 5b c1 1f  	lhu	s6, 0x1fc(sp)
   151f8: 7d 34        	addiw	s0, s0, -0x1
   151fa: e3 d0 07 fe  	bgez	a5, 0x151da <_ldtoa_r+0x72e>
   151fe: 04 0a        	addi	s1, sp, 0x110
   15200: 93 0d 81 12  	addi	s11, sp, 0x128
   15204: a6 87        	mv	a5, s1
   15206: 18 19        	addi	a4, sp, 0xb0
   15208: 50 12        	addi	a2, sp, 0x124
   1520a: 83 56 07 00  	lhu	a3, 0x0(a4)
   1520e: 89 07        	addi	a5, a5, 0x2
   15210: 09 07        	addi	a4, a4, 0x2
   15212: 23 9f d7 fe  	sh	a3, -0x2(a5)
   15216: e3 9a c7 fe  	bne	a5, a2, 0x1520a <_ldtoa_r+0x75e>
   1521a: 9c 09        	addi	a5, sp, 0xd0
   1521c: 17 97 00 00  	auipc	a4, 0x9
   15220: 13 07 c7 79  	addi	a4, a4, 0x79c
   15224: 83 56 07 00  	lhu	a3, 0x0(a4)
   15228: 89 07        	addi	a5, a5, 0x2
   1522a: 09 07        	addi	a4, a4, 0x2
   1522c: 23 9f d7 fe  	sh	a3, -0x2(a5)
   15230: e3 9a a7 ff  	bne	a5, s10, 0x15224 <_ldtoa_r+0x778>
   15234: fd 79        	lui	s3, 0xfffff
   15236: 97 9c 00 00  	auipc	s9, 0x9
   1523a: 93 8c ac 67  	addi	s9, s9, 0x67a
   1523e: 17 9c 00 00  	auipc	s8, 0x9
   15242: 13 0c ac 56  	addi	s8, s8, 0x56a
   15246: 05 4d        	li	s10, 0x1
   15248: 97 9b 00 00  	auipc	s7, 0x9
   1524c: 93 8b 0b 65  	addi	s7, s7, 0x650
   15250: 19 a0        	j	0x15256 <_ldtoa_r+0x7aa>
   15252: 51 0c        	addi	s8, s8, 0x14
   15254: d1 0c        	addi	s9, s9, 0x14
   15256: a6 85        	mv	a1, s1
   15258: 17 95 00 00  	auipc	a0, 0x9
   1525c: 13 05 05 76  	addi	a0, a0, 0x760
   15260: ef e0 ff 93  	jal	0x13b9e <ecmp>
   15264: aa 87        	mv	a5, a0
   15266: a6 85        	mv	a1, s1
   15268: 62 85        	mv	a0, s8
   1526a: 63 91 a7 05  	bne	a5, s10, 0x152ac <_ldtoa_r+0x800>
   1526e: ef e0 1f 93  	jal	0x13b9e <ecmp>
   15272: aa 87        	mv	a5, a0
   15274: ca 86        	mv	a3, s2
   15276: 26 86        	mv	a2, s1
   15278: a6 85        	mv	a1, s1
   1527a: 66 85        	mv	a0, s9
   1527c: 63 c0 07 02  	bltz	a5, 0x1529c <_ldtoa_r+0x7f0>
   15280: 23 1e 61 1f  	sh	s6, 0x1fc(sp)
   15284: ef f0 8f c3  	jal	0x146bc <emul>
   15288: 90 09        	addi	a2, sp, 0xd0
   1528a: ca 86        	mv	a3, s2
   1528c: b2 85        	mv	a1, a2
   1528e: 66 85        	mv	a0, s9
   15290: ef f0 cf c2  	jal	0x146bc <emul>
   15294: 03 5b c1 1f  	lhu	s6, 0x1fc(sp)
   15298: 3b 84 89 00  	addw	s0, s3, s0
   1529c: 9b d7 f9 01  	srliw	a5, s3, 0x1f
   152a0: bb 87 37 01  	addw	a5, a5, s3
   152a4: 9b d9 17 40  	sraiw	s3, a5, 0x1
   152a8: e3 15 7c fb  	bne	s8, s7, 0x15252 <_ldtoa_r+0x7a6>
   152ac: 90 09        	addi	a2, sp, 0xd0
   152ae: ca 86        	mv	a3, s2
   152b0: 97 95 00 00  	auipc	a1, 0x9
   152b4: 93 85 85 70  	addi	a1, a1, 0x708
   152b8: 32 85        	mv	a0, a2
   152ba: 23 1e 61 1f  	sh	s6, 0x1fc(sp)
   152be: 93 0b 01 17  	addi	s7, sp, 0x170
   152c2: ef e0 ff f8  	jal	0x14250 <ediv>
   152c6: 03 5b c1 1f  	lhu	s6, 0x1fc(sp)
   152ca: 21 b2        	j	0x14bd2 <_ldtoa_r+0x126>
   152cc: 13 07 00 03  	li	a4, 0x30
   152d0: e3 12 e6 e2  	bne	a2, a4, 0x150f4 <_ldtoa_r+0x648>
   152d4: 85 46        	li	a3, 0x1
   152d6: f5 bb        	j	0x150d2 <_ldtoa_r+0x626>
   152d8: a2 67        	ld	a5, 0x8(sp)
   152da: 3d 9c        	addw	s0, s0, a5
   152dc: 63 43 04 44  	bltz	s0, 0x15722 <_ldtoa_r+0xc76>
   152e0: e2 67        	ld	a5, 0x18(sp)
   152e2: 98 43        	lw	a4, 0x0(a5)
   152e4: c2 67        	ld	a5, 0x10(sp)
   152e6: b9 9f        	addw	a5, a5, a4
   152e8: 3e e8        	sd	a5, 0x10(sp)
   152ea: c2 67        	ld	a5, 0x10(sp)
   152ec: 7d 46        	li	a2, 0x1f
   152ee: 85 46        	li	a3, 0x1
   152f0: 9b 84 37 00  	addiw	s1, a5, 0x3
   152f4: 11 47        	li	a4, 0x4
   152f6: e3 67 96 e0  	bltu	a2, s1, 0x15104 <_ldtoa_r+0x658>
   152fa: 23 24 0a 06  	sw	zero, 0x68(s4)
   152fe: 81 45        	li	a1, 0x0
   15300: 21 bd        	j	0x15118 <_ldtoa_r+0x66c>
   15302: 81 46        	li	a3, 0x0
   15304: 49 bc        	j	0x14d96 <_ldtoa_r+0x2ea>
   15306: 83 46 07 00  	lbu	a3, 0x0(a4)
   1530a: e3 83 06 d0  	beqz	a3, 0x15010 <_ldtoa_r+0x564>
   1530e: 83 47 17 00  	lbu	a5, 0x1(a4)
   15312: 05 07        	addi	a4, a4, 0x1
   15314: a3 0f f7 fe  	sb	a5, -0x1(a4)
   15318: e3 8c 07 ce  	beqz	a5, 0x15010 <_ldtoa_r+0x564>
   1531c: 83 47 17 00  	lbu	a5, 0x1(a4)
   15320: 05 07        	addi	a4, a4, 0x1
   15322: a3 0f f7 fe  	sb	a5, -0x1(a4)
   15326: e5 f7        	bnez	a5, 0x1530e <_ldtoa_r+0x862>
   15328: e5 b1        	j	0x15010 <_ldtoa_r+0x564>
   1532a: 13 05 10 03  	li	a0, 0x31
   1532e: 93 05 e0 02  	li	a1, 0x2e
   15332: a3 08 a1 16  	sb	a0, 0x171(sp)
   15336: 23 09 b1 16  	sb	a1, 0x172(sp)
   1533a: 05 24        	addiw	s0, s0, 0x1
   1533c: 63 5b e0 24  	blez	a4, 0x15592 <_ldtoa_r+0xae6>
   15340: 13 07 00 03  	li	a4, 0x30
   15344: 7d 36        	addiw	a2, a2, -0x1
   15346: a3 09 e1 16  	sb	a4, 0x173(sp)
   1534a: cc 1a        	addi	a1, sp, 0x174
   1534c: 41 bc        	j	0x14ddc <_ldtoa_r+0x330>
   1534e: 42 67        	ld	a4, 0x10(sp)
   15350: 93 07 a0 02  	li	a5, 0x2a
   15354: ba 8b        	mv	s7, a4
   15356: 63 d3 e7 00  	bge	a5, a4, 0x1535c <_ldtoa_r+0x8b0>
   1535a: be 8b        	mv	s7, a5
   1535c: 9b 87 0b 00  	sext.w	a5, s7
   15360: 3e e4        	sd	a5, 0x8(sp)
   15362: 6f f0 cf fe  	j	0x14b4e <_ldtoa_r+0xa2>
   15366: c2 67        	ld	a5, 0x10(sp)
   15368: 13 07 a0 02  	li	a4, 0x2a
   1536c: fd 37        	addiw	a5, a5, -0x1
   1536e: be 8b        	mv	s7, a5
   15370: 63 53 f7 00  	bge	a4, a5, 0x15376 <_ldtoa_r+0x8ca>
   15374: ba 8b        	mv	s7, a4
   15376: 5e e4        	sd	s7, 0x8(sp)
   15378: 6f f0 6f fd  	j	0x14b4e <_ldtoa_r+0xa2>
   1537c: 93 09 01 0f  	addi	s3, sp, 0xf0
   15380: 4e 87        	mv	a4, s3
   15382: 1c 19        	addi	a5, sp, 0xb0
   15384: 83 d6 07 00  	lhu	a3, 0x0(a5)
   15388: 89 07        	addi	a5, a5, 0x2
   1538a: 09 07        	addi	a4, a4, 0x2
   1538c: 23 1f d7 fe  	sh	a3, -0x2(a4)
   15390: e3 9a 87 ff  	bne	a5, s8, 0x15384 <_ldtoa_r+0x8d8>
   15394: 91 67        	lui	a5, 0x4
   15396: 93 87 e7 08  	addi	a5, a5, 0x8e
   1539a: a1 66        	lui	a3, 0x8
   1539c: 71 77        	lui	a4, 0xffffc
   1539e: 23 11 f1 10  	sh	a5, 0x102(sp)
   153a2: 93 87 f6 ff  	addi	a5, a3, -0x1
   153a6: 3e fc        	sd	a5, 0x38(sp)
   153a8: 9b 07 27 00  	addiw	a5, a4, 0x2
   153ac: 01 44        	li	s0, 0x0
   153ae: 04 0a        	addi	s1, sp, 0x110
   153b0: be c2        	sw	a5, 0x44(sp)
   153b2: 17 93 00 00  	auipc	t1, 0x9
   153b6: 13 03 e3 59  	addi	t1, t1, 0x59e
   153ba: c1 47        	li	a5, 0x10
   153bc: d2 e4        	sd	s4, 0x48(sp)
   153be: d6 e8        	sd	s5, 0x50(sp)
   153c0: 5a 8a        	mv	s4, s6
   153c2: a6 8a        	mv	s5, s1
   153c4: 93 0b 01 17  	addi	s7, sp, 0x170
   153c8: a2 84        	mv	s1, s0
   153ca: 13 09 01 1b  	addi	s2, sp, 0x1b0
   153ce: 93 0d 21 0e  	addi	s11, sp, 0xe2
   153d2: 1a 8b        	mv	s6, t1
   153d4: 3e 84        	mv	s0, a5
   153d6: ca 86        	mv	a3, s2
   153d8: 90 09        	addi	a2, sp, 0xd0
   153da: ce 85        	mv	a1, s3
   153dc: 5a 85        	mv	a0, s6
   153de: 23 1e 41 1f  	sh	s4, 0x1fc(sp)
   153e2: ef e0 ff e6  	jal	0x14250 <ediv>
   153e6: 03 5a c1 1f  	lhu	s4, 0x1fc(sp)
   153ea: b8 18        	addi	a4, sp, 0x78
   153ec: 9c 09        	addi	a5, sp, 0xd0
   153ee: 13 08 c1 08  	addi	a6, sp, 0x8c
   153f2: 83 d6 07 00  	lhu	a3, 0x0(a5)
   153f6: 89 07        	addi	a5, a5, 0x2
   153f8: 09 07        	addi	a4, a4, 0x2
   153fa: 23 1f d7 fe  	sh	a3, -0x2(a4)
   153fe: e3 9a a7 ff  	bne	a5, s10, 0x153f2 <_ldtoa_r+0x946>
   15402: e2 77        	ld	a5, 0x38(sp)
   15404: 83 55 a1 08  	lhu	a1, 0x8a(sp)
   15408: 33 f5 f5 00  	and	a0, a1, a5
   1540c: 96 47        	lw	a5, 0x44(sp)
   1540e: 3d 9d        	addw	a0, a0, a5
   15410: 63 50 a0 32  	blez	a0, 0x15730 <_ldtoa_r+0xc84>
   15414: 93 07 00 09  	li	a5, 0x90
   15418: 3b 8e a7 40  	subw	t3, a5, a0
   1541c: 72 86        	mv	a2, t3
   1541e: 56 87        	mv	a4, s5
   15420: bc 18        	addi	a5, sp, 0x78
   15422: 83 d6 07 00  	lhu	a3, 0x0(a5)
   15426: 89 07        	addi	a5, a5, 0x2
   15428: 09 07        	addi	a4, a4, 0x2
   1542a: 23 1f d7 fe  	sh	a3, -0x2(a4)
   1542e: e3 9a 07 ff  	bne	a5, a6, 0x15422 <_ldtoa_r+0x976>
   15432: 63 54 c0 07  	blez	t3, 0x1549a <_ldtoa_r+0x9ee>
   15436: bd 47        	li	a5, 0xf
   15438: 63 d0 c7 4b  	bge	a5, t3, 0x158d8 <_ldtoa_r+0xe2c>
   1543c: 93 07 00 08  	li	a5, 0x80
   15440: 3b 85 a7 40  	subw	a0, a5, a0
   15444: 9b 56 45 00  	srliw	a3, a0, 0x4
   15448: 13 87 16 00  	addi	a4, a3, 0x1
   1544c: 06 07        	slli	a4, a4, 0x1
   1544e: 56 97        	add	a4, a4, s5
   15450: d6 87        	mv	a5, s5
   15452: 89 07        	addi	a5, a5, 0x2
   15454: 23 9f 07 fe  	sh	zero, -0x2(a5)
   15458: e3 9d e7 fe  	bne	a5, a4, 0x15452 <_ldtoa_r+0x9a6>
   1545c: 3b 06 d0 40  	negw	a2, a3
   15460: 1b 16 46 00  	slliw	a2, a2, 0x4
   15464: 86 06        	slli	a3, a3, 0x1
   15466: 13 07 21 11  	addi	a4, sp, 0x112
   1546a: 29 9e        	addw	a2, a2, a0
   1546c: 36 97        	add	a4, a4, a3
   1546e: 97 96 00 00  	auipc	a3, 0x9
   15472: 93 86 26 31  	addi	a3, a3, 0x312
   15476: 93 17 16 00  	slli	a5, a2, 0x1
   1547a: b6 97        	add	a5, a5, a3
   1547c: 83 d6 07 00  	lhu	a3, 0x0(a5)
   15480: 83 57 07 00  	lhu	a5, 0x0(a4)
   15484: f5 8f        	and	a5, a5, a3
   15486: 23 10 f7 00  	sh	a5, 0x0(a4)
   1548a: 9b 95 05 01  	slliw	a1, a1, 0x10
   1548e: 9b d5 05 41  	sraiw	a1, a1, 0x10
   15492: 93 97 05 02  	slli	a5, a1, 0x20
   15496: 63 c3 07 16  	bltz	a5, 0x155fc <_ldtoa_r+0xb50>
   1549a: 9c 09        	addi	a5, sp, 0xd0
   1549c: 56 87        	mv	a4, s5
   1549e: 03 d6 07 00  	lhu	a2, 0x0(a5)
   154a2: 83 56 07 00  	lhu	a3, 0x0(a4)
   154a6: 89 07        	addi	a5, a5, 0x2
   154a8: 09 07        	addi	a4, a4, 0x2
   154aa: 63 1f d6 00  	bne	a2, a3, 0x154c8 <_ldtoa_r+0xa1c>
   154ae: e3 98 fd fe  	bne	s11, a5, 0x1549e <_ldtoa_r+0x9f2>
   154b2: 4e 87        	mv	a4, s3
   154b4: 9c 09        	addi	a5, sp, 0xd0
   154b6: 83 d6 07 00  	lhu	a3, 0x0(a5)
   154ba: 89 07        	addi	a5, a5, 0x2
   154bc: 09 07        	addi	a4, a4, 0x2
   154be: 23 1f d7 fe  	sh	a3, -0x2(a4)
   154c2: e3 9a a7 ff  	bne	a5, s10, 0x154b6 <_ldtoa_r+0xa0a>
   154c6: a1 9c        	addw	s1, s1, s0
   154c8: 51 0b        	addi	s6, s6, 0x14
   154ca: 97 97 00 00  	auipc	a5, 0x9
   154ce: 93 87 a7 4e  	addi	a5, a5, 0x4ea
   154d2: 05 80        	srli	s0, s0, 0x1
   154d4: e3 11 fb f0  	bne	s6, a5, 0x153d6 <_ldtoa_r+0x92a>
   154d8: 83 56 21 10  	lhu	a3, 0x102(sp)
   154dc: 71 77        	lui	a4, 0xffffc
   154de: 1b 07 27 f7  	addiw	a4, a4, -0x8e
   154e2: 35 9f        	addw	a4, a4, a3
   154e4: 52 8b        	mv	s6, s4
   154e6: 26 84        	mv	s0, s1
   154e8: 26 6a        	ld	s4, 0x48(sp)
   154ea: d6 84        	mv	s1, s5
   154ec: c6 6a        	ld	s5, 0x50(sp)
   154ee: 3b 07 97 01  	addw	a4, a4, s9
   154f2: 23 11 e1 10  	sh	a4, 0x102(sp)
   154f6: ce 86        	mv	a3, s3
   154f8: 18 19        	addi	a4, sp, 0xb0
   154fa: 83 d7 06 00  	lhu	a5, 0x0(a3)
   154fe: 09 07        	addi	a4, a4, 0x2
   15500: 89 06        	addi	a3, a3, 0x2
   15502: 23 1f f7 fe  	sh	a5, -0x2(a4)
   15506: e3 1a 87 ff  	bne	a4, s8, 0x154fa <_ldtoa_r+0xa4e>
   1550a: 98 09        	addi	a4, sp, 0xd0
   1550c: 97 96 00 00  	auipc	a3, 0x9
   15510: 93 86 c6 4a  	addi	a3, a3, 0x4ac
   15514: 83 d7 06 00  	lhu	a5, 0x0(a3)
   15518: 09 07        	addi	a4, a4, 0x2
   1551a: 89 06        	addi	a3, a3, 0x2
   1551c: 23 1f f7 fe  	sh	a5, -0x2(a4)
   15520: e3 1a a7 ff  	bne	a4, s10, 0x15514 <_ldtoa_r+0xa68>
   15524: 85 6c        	lui	s9, 0x1
   15526: 17 9c 00 00  	auipc	s8, 0x9
   1552a: 13 0c ac 38  	addi	s8, s8, 0x38a
   1552e: 97 9d 00 00  	auipc	s11, 0x9
   15532: 93 8d 2d 47  	addi	s11, s11, 0x472
   15536: 05 4d        	li	s10, 0x1
   15538: 11 a0        	j	0x1553c <_ldtoa_r+0xa90>
   1553a: 51 0c        	addi	s8, s8, 0x14
   1553c: ce 85        	mv	a1, s3
   1553e: 17 95 00 00  	auipc	a0, 0x9
   15542: 13 05 25 46  	addi	a0, a0, 0x462
   15546: ef e0 8f e5  	jal	0x13b9e <ecmp>
   1554a: aa 87        	mv	a5, a0
   1554c: ce 85        	mv	a1, s3
   1554e: 62 85        	mv	a0, s8
   15550: 63 8d a7 03  	beq	a5, s10, 0x1558a <_ldtoa_r+0xade>
   15554: ef e0 af e4  	jal	0x13b9e <ecmp>
   15558: aa 87        	mv	a5, a0
   1555a: ca 86        	mv	a3, s2
   1555c: 4e 86        	mv	a2, s3
   1555e: ce 85        	mv	a1, s3
   15560: 62 85        	mv	a0, s8
   15562: 63 80 a7 03  	beq	a5, s10, 0x15582 <_ldtoa_r+0xad6>
   15566: 23 1e 61 1f  	sh	s6, 0x1fc(sp)
   1556a: ef e0 7f ce  	jal	0x14250 <ediv>
   1556e: 90 09        	addi	a2, sp, 0xd0
   15570: ca 86        	mv	a3, s2
   15572: b2 85        	mv	a1, a2
   15574: 62 85        	mv	a0, s8
   15576: ef f0 6f 94  	jal	0x146bc <emul>
   1557a: 03 5b c1 1f  	lhu	s6, 0x1fc(sp)
   1557e: 3b 84 8c 00  	addw	s0, s9, s0
   15582: 93 dc 1c 00  	srli	s9, s9, 0x1
   15586: e3 1a bc fb  	bne	s8, s11, 0x1553a <_ldtoa_r+0xa8e>
   1558a: 93 0d 81 12  	addi	s11, sp, 0x128
   1558e: 6f f0 4f e4  	j	0x14bd2 <_ldtoa_r+0x126>
   15592: 93 09 31 17  	addi	s3, sp, 0x173
   15596: ce 85        	mv	a1, s3
   15598: 01 46        	li	a2, 0x0
   1559a: e3 1e 07 a0  	bnez	a4, 0x14fb6 <_ldtoa_r+0x50a>
   1559e: 6f f0 ff 83  	j	0x14ddc <_ldtoa_r+0x330>
   155a2: 08 19        	addi	a0, sp, 0xb0
   155a4: 8c 09        	addi	a1, sp, 0xd0
   155a6: 32 f4        	sd	a2, 0x28(sp)
   155a8: ef e0 4f a7  	jal	0x1381c <emovo.isra.0>
   155ac: 88 09        	addi	a0, sp, 0xd0
   155ae: 97 95 00 00  	auipc	a1, 0x9
   155b2: 93 85 25 42  	addi	a1, a1, 0x422
   155b6: ef e0 8f de  	jal	0x13b9e <ecmp>
   155ba: 22 76        	ld	a2, 0x28(sp)
   155bc: 63 10 05 24  	bnez	a0, 0x157fc <_ldtoa_r+0xd50>
   155c0: e3 4b 06 9e  	bltz	a2, 0x14fb6 <_ldtoa_r+0x50a>
   155c4: 83 46 e9 ff  	lbu	a3, -0x2(s2)
   155c8: 13 87 26 fd  	addi	a4, a3, -0x2e
   155cc: 13 37 17 00  	seqz	a4, a4
   155d0: 13 47 f7 ff  	not	a4, a4
   155d4: 4e 97        	add	a4, a4, s3
   155d6: 03 47 07 00  	lbu	a4, 0x0(a4)
   155da: 05 8b        	andi	a4, a4, 0x1
   155dc: e3 1b 07 98  	bnez	a4, 0x14f72 <_ldtoa_r+0x4c6>
   155e0: d9 ba        	j	0x14fb6 <_ldtoa_r+0x50a>
   155e2: 42 67        	ld	a4, 0x10(sp)
   155e4: 93 07 a0 02  	li	a5, 0x2a
   155e8: ba 8b        	mv	s7, a4
   155ea: 63 d3 e7 00  	bge	a5, a4, 0x155f0 <_ldtoa_r+0xb44>
   155ee: be 8b        	mv	s7, a5
   155f0: 9b 87 0b 00  	sext.w	a5, s7
   155f4: 3e e4        	sd	a5, 0x8(sp)
   155f6: 49 b4        	j	0x15078 <_ldtoa_r+0x5cc>
   155f8: 81 46        	li	a3, 0x0
   155fa: b1 bc        	j	0x15056 <_ldtoa_r+0x5aa>
   155fc: bc 18        	addi	a5, sp, 0x78
   155fe: 56 87        	mv	a4, s5
   15600: 29 a0        	j	0x1560a <_ldtoa_r+0xb5e>
   15602: 93 06 a1 08  	addi	a3, sp, 0x8a
   15606: e3 8a f6 e8  	beq	a3, a5, 0x1549a <_ldtoa_r+0x9ee>
   1560a: 03 d6 07 00  	lhu	a2, 0x0(a5)
   1560e: 83 56 07 00  	lhu	a3, 0x0(a4)
   15612: 89 07        	addi	a5, a5, 0x2
   15614: 09 07        	addi	a4, a4, 0x2
   15616: e3 06 d6 fe  	beq	a2, a3, 0x15602 <_ldtoa_r+0xb56>
   1561a: 83 57 21 12  	lhu	a5, 0x122(sp)
   1561e: 93 c7 f7 ff  	not	a5, a5
   15622: 13 97 17 03  	slli	a4, a5, 0x31
   15626: 63 08 07 1a  	beqz	a4, 0x157d6 <_ldtoa_r+0xd2a>
   1562a: 0c 1a        	addi	a1, sp, 0x130
   1562c: 17 95 00 00  	auipc	a0, 0x9
   15630: 13 05 c5 38  	addi	a0, a0, 0x38c
   15634: ef e0 8f cd  	jal	0x13b0c <emovi>
   15638: 8c 0a        	addi	a1, sp, 0x150
   1563a: 56 85        	mv	a0, s5
   1563c: ef e0 0f cd  	jal	0x13b0c <emovi>
   15640: 83 57 01 13  	lhu	a5, 0x130(sp)
   15644: 03 56 21 15  	lhu	a2, 0x152(sp)
   15648: 03 5e 21 13  	lhu	t3, 0x132(sp)
   1564c: 93 c7 f7 ff  	not	a5, a5
   15650: 23 18 f1 12  	sh	a5, 0x130(sp)
   15654: b3 05 ce 40  	sub	a1, t3, a2
   15658: b2 86        	mv	a3, a2
   1565a: 63 5e b0 04  	blez	a1, 0x156b6 <_ldtoa_r+0xc0a>
   1565e: 88 0a        	addi	a0, sp, 0x150
   15660: de 86        	mv	a3, s7
   15662: bc 12        	addi	a5, sp, 0x168
   15664: de 85        	mv	a1, s7
   15666: 2a 87        	mv	a4, a0
   15668: 83 38 07 00  	ld	a7, 0x0(a4)
   1566c: 21 07        	addi	a4, a4, 0x8
   1566e: a1 05        	addi	a1, a1, 0x8
   15670: 23 bc 15 ff  	sd	a7, -0x8(a1)
   15674: e3 9a e7 fe  	bne	a5, a4, 0x15668 <_ldtoa_r+0xbbc>
   15678: 0c 1a        	addi	a1, sp, 0x130
   1567a: 23 14 01 18  	sh	zero, 0x188(sp)
   1567e: b8 02        	addi	a4, sp, 0x148
   15680: ae 87        	mv	a5, a1
   15682: 83 b8 07 00  	ld	a7, 0x0(a5)
   15686: a1 07        	addi	a5, a5, 0x8
   15688: 21 05        	addi	a0, a0, 0x8
   1568a: 23 3c 15 ff  	sd	a7, -0x8(a0)
   1568e: e3 1a f7 fe  	bne	a4, a5, 0x15682 <_ldtoa_r+0xbd6>
   15692: 23 14 01 16  	sh	zero, 0x168(sp)
   15696: 93 87 8b 01  	addi	a5, s7, 0x18
   1569a: 98 62        	ld	a4, 0x0(a3)
   1569c: a1 06        	addi	a3, a3, 0x8
   1569e: a1 05        	addi	a1, a1, 0x8
   156a0: 23 bc e5 fe  	sd	a4, -0x8(a1)
   156a4: e3 9b f6 fe  	bne	a3, a5, 0x1569a <_ldtoa_r+0xbee>
   156a8: 83 56 21 15  	lhu	a3, 0x152(sp)
   156ac: b3 05 c6 41  	sub	a1, a2, t3
   156b0: 23 14 01 14  	sh	zero, 0x148(sp)
   156b4: 36 86        	mv	a2, a3
   156b6: 63 83 05 22  	beqz	a1, 0x158dc <_ldtoa_r+0xe30>
   156ba: b6 ec        	sd	a3, 0x58(sp)
   156bc: 93 07 f0 f6  	li	a5, -0x91
   156c0: 63 cc f5 04  	blt	a1, a5, 0x15718 <_ldtoa_r+0xc6c>
   156c4: 81 25        	sext.w	a1, a1
   156c6: 08 1a        	addi	a0, sp, 0x130
   156c8: ef e0 6f af  	jal	0x139be <eshift.part.0>
   156cc: e6 66        	ld	a3, 0x58(sp)
   156ce: aa 85        	mv	a1, a0
   156d0: bc 12        	addi	a5, sp, 0x168
   156d2: b8 02        	addi	a4, sp, 0x148
   156d4: 03 55 01 13  	lhu	a0, 0x130(sp)
   156d8: 03 56 01 15  	lhu	a2, 0x150(sp)
   156dc: 63 02 c5 24  	beq	a0, a2, 0x15920 <_ldtoa_r+0xe74>
   156e0: 01 46        	li	a2, 0x0
   156e2: 13 0e 21 15  	addi	t3, sp, 0x152
   156e6: 03 d5 07 00  	lhu	a0, 0x0(a5)
   156ea: 83 58 07 00  	lhu	a7, 0x0(a4)
   156ee: f9 17        	addi	a5, a5, -0x2
   156f0: 79 17        	addi	a4, a4, -0x2
   156f2: 33 05 15 41  	sub	a0, a0, a7
   156f6: 33 06 c5 40  	sub	a2, a0, a2
   156fa: 23 91 c7 00  	sh	a2, 0x2(a5)
   156fe: 41 82        	srli	a2, a2, 0x10
   15700: 05 8a        	andi	a2, a2, 0x1
   15702: e3 92 c7 ff  	bne	a5, t3, 0x156e6 <_ldtoa_r+0xc3a>
   15706: 05 46        	li	a2, 0x1
   15708: ca 87        	mv	a5, s2
   1570a: 13 07 00 04  	li	a4, 0x40
   1570e: 88 0a        	addi	a0, sp, 0x150
   15710: ef e0 6f d7  	jal	0x13c86 <emdnorm>
   15714: 03 5a c1 1f  	lhu	s4, 0x1fc(sp)
   15718: 88 0a        	addi	a0, sp, 0x150
   1571a: d6 85        	mv	a1, s5
   1571c: ef e0 0f 90  	jal	0x1381c <emovo.isra.0>
   15720: ad bb        	j	0x1549a <_ldtoa_r+0x9ee>
   15722: e2 67        	ld	a5, 0x18(sp)
   15724: 23 08 01 16  	sb	zero, 0x170(sp)
   15728: 5e 89        	mv	s2, s7
   1572a: 23 a0 07 00  	sw	zero, 0x0(a5)
   1572e: 75 be        	j	0x152ea <_ldtoa_r+0x83e>
   15730: d6 87        	mv	a5, s5
   15732: 58 12        	addi	a4, sp, 0x124
   15734: 89 07        	addi	a5, a5, 0x2
   15736: 23 9f 07 fe  	sh	zero, -0x2(a5)
   1573a: e3 9d e7 fe  	bne	a5, a4, 0x15734 <_ldtoa_r+0xc88>
   1573e: b1 b3        	j	0x1548a <_ldtoa_r+0x9de>
   15740: a2 77        	ld	a5, 0x28(sp)
   15742: 93 0b 01 17  	addi	s7, sp, 0x170
   15746: 5e 85        	mv	a0, s7
   15748: bd cb        	beqz	a5, 0x157be <_ldtoa_r+0xd12>
   1574a: 97 95 00 00  	auipc	a1, 0x9
   1574e: 93 85 65 d9  	addi	a1, a1, -0x26a
   15752: ef 10 b0 2d  	jal	0x1722c <sprintf>
   15756: 09 64        	lui	s0, 0x2
   15758: 13 04 f4 70  	addi	s0, s0, 0x70f
   1575c: ad b0        	j	0x14fc6 <_ldtoa_r+0x51a>
   1575e: 18 09        	addi	a4, sp, 0x90
   15760: 13 06 21 0a  	addi	a2, sp, 0xa2
   15764: 19 a0        	j	0x1576a <_ldtoa_r+0xcbe>
   15766: e3 05 c7 88  	beq	a4, a2, 0x14ff0 <_ldtoa_r+0x544>
   1576a: 83 57 07 00  	lhu	a5, 0x0(a4)
   1576e: 09 07        	addi	a4, a4, 0x2
   15770: fd db        	beqz	a5, 0x15766 <_ldtoa_r+0xcba>
   15772: e2 67        	ld	a5, 0x18(sp)
   15774: 09 67        	lui	a4, 0x2
   15776: 13 07 f7 70  	addi	a4, a4, 0x70f
   1577a: 98 c3        	sw	a4, 0x0(a5)
   1577c: 6d b0        	j	0x15026 <_ldtoa_r+0x57a>
   1577e: 85 26        	addiw	a3, a3, 0x1
   15780: 23 00 d7 00  	sb	a3, 0x0(a4)
   15784: 6f f0 3f 83  	j	0x14fb6 <_ldtoa_r+0x50a>
   15788: 93 0b 01 17  	addi	s7, sp, 0x170
   1578c: 5e 85        	mv	a0, s7
   1578e: 97 95 00 00  	auipc	a1, 0x9
   15792: 93 85 25 d7  	addi	a1, a1, -0x28e
   15796: ef 10 70 29  	jal	0x1722c <sprintf>
   1579a: 75 bf        	j	0x15756 <_ldtoa_r+0xcaa>
   1579c: 11 47        	li	a4, 0x4
   1579e: 93 09 21 17  	addi	s3, sp, 0x172
   157a2: e3 5a d7 80  	bge	a4, a3, 0x14fb6 <_ldtoa_r+0x50a>
   157a6: 15 47        	li	a4, 0x5
   157a8: 13 09 31 17  	addi	s2, sp, 0x173
   157ac: e3 8b e6 de  	beq	a3, a4, 0x155a2 <_ldtoa_r+0xaf6>
   157b0: 13 07 10 03  	li	a4, 0x31
   157b4: 05 24        	addiw	s0, s0, 0x1
   157b6: 23 0f e9 fe  	sb	a4, -0x2(s2)
   157ba: 6f f0 cf ff  	j	0x14fb6 <_ldtoa_r+0x50a>
   157be: 97 95 00 00  	auipc	a1, 0x9
   157c2: 93 85 25 d3  	addi	a1, a1, -0x2ce
   157c6: ef 10 70 26  	jal	0x1722c <sprintf>
   157ca: 71 b7        	j	0x15756 <_ldtoa_r+0xcaa>
   157cc: 85 26        	addiw	a3, a3, 0x1
   157ce: a3 0f d7 fe  	sb	a3, -0x1(a4)
   157d2: 6f f0 4f fe  	j	0x14fb6 <_ldtoa_r+0x50a>
   157d6: d6 87        	mv	a5, s5
   157d8: 13 07 21 12  	addi	a4, sp, 0x122
   157dc: 83 d6 07 00  	lhu	a3, 0x0(a5)
   157e0: 89 07        	addi	a5, a5, 0x2
   157e2: e3 9c 06 ca  	bnez	a3, 0x1549a <_ldtoa_r+0x9ee>
   157e6: e3 9b e7 fe  	bne	a5, a4, 0x157dc <_ldtoa_r+0xd30>
   157ea: d6 87        	mv	a5, s5
   157ec: 19 a0        	j	0x157f2 <_ldtoa_r+0xd46>
   157ee: e3 86 e7 ca  	beq	a5, a4, 0x1549a <_ldtoa_r+0x9ee>
   157f2: 83 d6 07 00  	lhu	a3, 0x0(a5)
   157f6: 89 07        	addi	a5, a5, 0x2
   157f8: fd da        	beqz	a3, 0x157ee <_ldtoa_r+0xd42>
   157fa: 05 bd        	j	0x1562a <_ldtoa_r+0xb7e>
   157fc: e3 4a 06 fa  	bltz	a2, 0x157b0 <_ldtoa_r+0xd04>
   15800: 6f f0 ef f6  	j	0x14f6e <_ldtoa_r+0x4c2>
   15804: 04 0a        	addi	s1, sp, 0x110
   15806: a6 85        	mv	a1, s1
   15808: 08 19        	addi	a0, sp, 0xb0
   1580a: ef e0 2f b0  	jal	0x13b0c <emovi>
   1580e: 91 67        	lui	a5, 0x4
   15810: f9 17        	addi	a5, a5, -0x2
   15812: 93 0d 81 12  	addi	s11, sp, 0x128
   15816: 93 09 21 11  	addi	s3, sp, 0x112
   1581a: 93 0c 81 10  	addi	s9, sp, 0x108
   1581e: 3e fc        	sd	a5, 0x38(sp)
   15820: 01 44        	li	s0, 0x0
   15822: 93 0b 50 fd  	li	s7, -0x2b
   15826: 83 57 81 12  	lhu	a5, 0x128(sp)
   1582a: 9d 8b        	andi	a5, a5, 0x7
   1582c: d9 ef        	bnez	a5, 0x158ca <_ldtoa_r+0xe1e>
   1582e: 13 09 01 0f  	addi	s2, sp, 0xf0
   15832: 26 8c        	mv	s8, s1
   15834: 4a 87        	mv	a4, s2
   15836: a6 87        	mv	a5, s1
   15838: 94 63        	ld	a3, 0x0(a5)
   1583a: a1 07        	addi	a5, a5, 0x8
   1583c: 21 07        	addi	a4, a4, 0x8
   1583e: 23 3c d7 fe  	sd	a3, -0x8(a4)
   15842: e3 9b fd fe  	bne	s11, a5, 0x15838 <_ldtoa_r+0xd8c>
   15846: 88 19        	addi	a0, sp, 0xf0
   15848: 23 14 01 10  	sh	zero, 0x108(sp)
   1584c: ef d0 9f ec  	jal	0x13714 <eshdn1>
   15850: 88 19        	addi	a0, sp, 0xf0
   15852: ef d0 3f ec  	jal	0x13714 <eshdn1>
   15856: 34 02        	addi	a3, sp, 0x108
   15858: 6e 87        	mv	a4, s11
   1585a: 01 46        	li	a2, 0x0
   1585c: 83 d5 06 00  	lhu	a1, 0x0(a3)
   15860: 83 57 07 00  	lhu	a5, 0x0(a4)
   15864: 79 17        	addi	a4, a4, -0x2
   15866: f9 16        	addi	a3, a3, -0x2
   15868: ae 97        	add	a5, a5, a1
   1586a: b2 97        	add	a5, a5, a2
   1586c: 23 91 f6 00  	sh	a5, 0x2(a3)
   15870: c1 83        	srli	a5, a5, 0x10
   15872: 13 f6 17 00  	andi	a2, a5, 0x1
   15876: e3 13 37 ff  	bne	a4, s3, 0x1585c <_ldtoa_r+0xdb0>
   1587a: 83 57 21 0f  	lhu	a5, 0xf2(sp)
   1587e: 03 57 41 0f  	lhu	a4, 0xf4(sp)
   15882: 8d 27        	addiw	a5, a5, 0x3
   15884: 23 19 f1 0e  	sh	a5, 0xf2(sp)
   15888: 01 cf        	beqz	a4, 0x158a0 <_ldtoa_r+0xdf4>
   1588a: 88 19        	addi	a0, sp, 0xf0
   1588c: ef d0 9f e8  	jal	0x13714 <eshdn1>
   15890: 83 57 21 0f  	lhu	a5, 0xf2(sp)
   15894: 03 57 41 0f  	lhu	a4, 0xf4(sp)
   15898: 85 27        	addiw	a5, a5, 0x1
   1589a: 23 19 f1 0e  	sh	a5, 0xf2(sp)
   1589e: 75 f7        	bnez	a4, 0x1588a <_ldtoa_r+0xdde>
   158a0: 83 57 81 10  	lhu	a5, 0x108(sp)
   158a4: 9d e3        	bnez	a5, 0x158ca <_ldtoa_r+0xe1e>
   158a6: 83 57 21 0f  	lhu	a5, 0xf2(sp)
   158aa: 62 77        	ld	a4, 0x38(sp)
   158ac: 63 6f f7 00  	bltu	a4, a5, 0x158ca <_ldtoa_r+0xe1e>
   158b0: 83 37 09 00  	ld	a5, 0x0(s2)
   158b4: 21 09        	addi	s2, s2, 0x8
   158b6: 21 0c        	addi	s8, s8, 0x8
   158b8: 23 3c fc fe  	sd	a5, -0x8(s8)
   158bc: e3 1a 99 ff  	bne	s2, s9, 0x158b0 <_ldtoa_r+0xe04>
   158c0: 23 14 01 12  	sh	zero, 0x128(sp)
   158c4: 7d 34        	addiw	s0, s0, -0x1
   158c6: e3 10 74 f7  	bne	s0, s7, 0x15826 <_ldtoa_r+0xd7a>
   158ca: 0c 19        	addi	a1, sp, 0xb0
   158cc: 26 85        	mv	a0, s1
   158ce: ef d0 ff f4  	jal	0x1381c <emovo.isra.0>
   158d2: 13 09 01 1b  	addi	s2, sp, 0x1b0
   158d6: 3d b2        	j	0x15204 <_ldtoa_r+0x758>
   158d8: 56 87        	mv	a4, s5
   158da: 51 be        	j	0x1546e <_ldtoa_r+0x9c2>
   158dc: d8 0a        	addi	a4, sp, 0x154
   158de: 5c 1a        	addi	a5, sp, 0x134
   158e0: 13 0e a1 14  	addi	t3, sp, 0x14a
   158e4: 03 d5 07 00  	lhu	a0, 0x0(a5)
   158e8: 83 55 07 00  	lhu	a1, 0x0(a4)
   158ec: 89 07        	addi	a5, a5, 0x2
   158ee: 09 07        	addi	a4, a4, 0x2
   158f0: 63 12 b5 02  	bne	a0, a1, 0x15914 <_ldtoa_r+0xe68>
   158f4: e3 98 c7 ff  	bne	a5, t3, 0x158e4 <_ldtoa_r+0xe38>
   158f8: 03 57 01 13  	lhu	a4, 0x130(sp)
   158fc: 83 57 01 15  	lhu	a5, 0x150(sp)
   15900: 63 03 f7 04  	beq	a4, a5, 0x15946 <_ldtoa_r+0xe9a>
   15904: d6 87        	mv	a5, s5
   15906: 58 12        	addi	a4, sp, 0x124
   15908: 89 07        	addi	a5, a5, 0x2
   1590a: 23 9f 07 fe  	sh	zero, -0x2(a5)
   1590e: e3 9d e7 fe  	bne	a5, a4, 0x15908 <_ldtoa_r+0xe5c>
   15912: 61 b6        	j	0x1549a <_ldtoa_r+0x9ee>
   15914: 63 eb a5 04  	bltu	a1, a0, 0x1596a <_ldtoa_r+0xebe>
   15918: bc 12        	addi	a5, sp, 0x168
   1591a: b8 02        	addi	a4, sp, 0x148
   1591c: 81 45        	li	a1, 0x0
   1591e: 5d bb        	j	0x156d4 <_ldtoa_r+0xc28>
   15920: 01 46        	li	a2, 0x0
   15922: 13 03 21 13  	addi	t1, sp, 0x132
   15926: 83 d8 07 00  	lhu	a7, 0x0(a5)
   1592a: 03 55 07 00  	lhu	a0, 0x0(a4)
   1592e: 79 17        	addi	a4, a4, -0x2
   15930: f9 17        	addi	a5, a5, -0x2
   15932: 46 95        	add	a0, a0, a7
   15934: 2a 96        	add	a2, a2, a0
   15936: 23 91 c7 00  	sh	a2, 0x2(a5)
   1593a: 41 82        	srli	a2, a2, 0x10
   1593c: 05 8a        	andi	a2, a2, 0x1
   1593e: e3 14 67 fe  	bne	a4, t1, 0x15926 <_ldtoa_r+0xe7a>
   15942: 01 46        	li	a2, 0x0
   15944: d1 b3        	j	0x15708 <_ldtoa_r+0xc5c>
   15946: b6 87        	mv	a5, a3
   15948: 89 e6        	bnez	a3, 0x15952 <_ldtoa_r+0xea6>
   1594a: 03 17 61 15  	lh	a4, 0x156(sp)
   1594e: 63 5d 07 06  	bgez	a4, 0x159c8 <_ldtoa_r+0xf1c>
   15952: 13 07 21 15  	addi	a4, sp, 0x152
   15956: bc 12        	addi	a5, sp, 0x168
   15958: 83 55 07 00  	lhu	a1, 0x0(a4)
   1595c: 09 07        	addi	a4, a4, 0x2
   1595e: a5 e1        	bnez	a1, 0x159be <_ldtoa_r+0xf12>
   15960: e3 9c e7 fe  	bne	a5, a4, 0x15958 <_ldtoa_r+0xeac>
   15964: 23 19 c1 14  	sh	a2, 0x152(sp)
   15968: 45 bb        	j	0x15718 <_ldtoa_r+0xc6c>
   1596a: 13 03 01 15  	addi	t1, sp, 0x150
   1596e: de 85        	mv	a1, s7
   15970: bc 12        	addi	a5, sp, 0x168
   15972: 5e 86        	mv	a2, s7
   15974: 1a 87        	mv	a4, t1
   15976: 08 63        	ld	a0, 0x0(a4)
   15978: 21 07        	addi	a4, a4, 0x8
   1597a: 21 06        	addi	a2, a2, 0x8
   1597c: 23 3c a6 fe  	sd	a0, -0x8(a2)
   15980: e3 9b e7 fe  	bne	a5, a4, 0x15976 <_ldtoa_r+0xeca>
   15984: 10 1a        	addi	a2, sp, 0x130
   15986: 23 14 01 18  	sh	zero, 0x188(sp)
   1598a: 32 85        	mv	a0, a2
   1598c: b8 02        	addi	a4, sp, 0x148
   1598e: 83 38 05 00  	ld	a7, 0x0(a0)
   15992: 21 05        	addi	a0, a0, 0x8
   15994: 21 03        	addi	t1, t1, 0x8
   15996: 23 3c 13 ff  	sd	a7, -0x8(t1)
   1599a: e3 1a a7 fe  	bne	a4, a0, 0x1598e <_ldtoa_r+0xee2>
   1599e: 23 14 01 16  	sh	zero, 0x168(sp)
   159a2: 13 85 8b 01  	addi	a0, s7, 0x18
   159a6: 83 b8 05 00  	ld	a7, 0x0(a1)
   159aa: a1 05        	addi	a1, a1, 0x8
   159ac: 21 06        	addi	a2, a2, 0x8
   159ae: 23 3c 16 ff  	sd	a7, -0x8(a2)
   159b2: e3 9a a5 fe  	bne	a1, a0, 0x159a6 <_ldtoa_r+0xefa>
   159b6: 23 14 01 14  	sh	zero, 0x148(sp)
   159ba: 81 45        	li	a1, 0x0
   159bc: 21 bb        	j	0x156d4 <_ldtoa_r+0xc28>
   159be: 13 86 16 00  	addi	a2, a3, 0x1
   159c2: 23 19 c1 14  	sh	a2, 0x152(sp)
   159c6: 89 bb        	j	0x15718 <_ldtoa_r+0xc6c>
   159c8: b4 12        	addi	a3, sp, 0x168
   159ca: 13 0e 21 15  	addi	t3, sp, 0x152
   159ce: 11 a8        	j	0x159e2 <_ldtoa_r+0xf36>
   159d0: 23 90 e6 00  	sh	a4, 0x0(a3)
   159d4: 9b 97 17 00  	slliw	a5, a5, 0x1
   159d8: c2 17        	slli	a5, a5, 0x30
   159da: f9 16        	addi	a3, a3, -0x2
   159dc: c1 93        	srli	a5, a5, 0x30
   159de: e3 8d c6 d3  	beq	a3, t3, 0x15718 <_ldtoa_r+0xc6c>
   159e2: 03 d7 06 00  	lhu	a4, 0x0(a3)
   159e6: 1b 16 07 01  	slliw	a2, a4, 0x10
   159ea: 1b 56 06 41  	sraiw	a2, a2, 0x10
   159ee: 1b 17 17 00  	slliw	a4, a4, 0x1
   159f2: 42 17        	slli	a4, a4, 0x30
   159f4: 93 15 06 02  	slli	a1, a2, 0x20
   159f8: 41 93        	srli	a4, a4, 0x30
   159fa: 63 d4 05 00  	bgez	a1, 0x15a02 <_ldtoa_r+0xf56>
   159fe: 93 e7 17 00  	ori	a5, a5, 0x1
   15a02: 13 f6 27 00  	andi	a2, a5, 0x2
   15a06: 93 65 17 00  	ori	a1, a4, 0x1
   15a0a: 79 d2        	beqz	a2, 0x159d0 <_ldtoa_r+0xf24>
   15a0c: 23 90 b6 00  	sh	a1, 0x0(a3)
   15a10: d1 b7        	j	0x159d4 <_ldtoa_r+0xf28>

0000000000015a12 <_ldcheck>:
   15a12: 18 61        	ld	a4, 0x0(a0)
   15a14: 1c 65        	ld	a5, 0x8(a0)
   15a16: 39 71        	addi	sp, sp, -0x40
   15a18: 0a 85        	mv	a0, sp
   15a1a: 0c 08        	addi	a1, sp, 0x10
   15a1c: 3a e0        	sd	a4, 0x0(sp)
   15a1e: 3e e4        	sd	a5, 0x8(sp)
   15a20: 06 fc        	sd	ra, 0x38(sp)
   15a22: ef e0 0f f3  	jal	0x14152 <e113toe.isra.0>
   15a26: 83 57 21 02  	lhu	a5, 0x22(sp)
   15a2a: 01 45        	li	a0, 0x0
   15a2c: 93 c7 f7 ff  	not	a5, a5
   15a30: 13 97 17 03  	slli	a4, a5, 0x31
   15a34: 19 eb        	bnez	a4, 0x15a4a <_ldcheck+0x38>
   15a36: 1c 08        	addi	a5, sp, 0x10
   15a38: 93 06 21 02  	addi	a3, sp, 0x22
   15a3c: 03 d7 07 00  	lhu	a4, 0x0(a5)
   15a40: 89 07        	addi	a5, a5, 0x2
   15a42: 19 e7        	bnez	a4, 0x15a50 <_ldcheck+0x3e>
   15a44: e3 9c d7 fe  	bne	a5, a3, 0x15a3c <_ldcheck+0x2a>
   15a48: 09 45        	li	a0, 0x2
   15a4a: e2 70        	ld	ra, 0x38(sp)
   15a4c: 21 61        	addi	sp, sp, 0x40
   15a4e: 82 80        	ret
   15a50: 05 45        	li	a0, 0x1
   15a52: e5 bf        	j	0x15a4a <_ldcheck+0x38>

0000000000015a54 <__localeconv_l>:
   15a54: 13 05 05 10  	addi	a0, a0, 0x100
   15a58: 82 80        	ret

0000000000015a5a <_localeconv_r>:
   15a5a: 13 85 81 61  	addi	a0, gp, 0x618
   15a5e: 82 80        	ret

0000000000015a60 <localeconv>:
   15a60: 13 85 81 61  	addi	a0, gp, 0x618
   15a64: 82 80        	ret

0000000000015a66 <__retarget_lock_init>:
   15a66: 82 80        	ret

0000000000015a68 <__retarget_lock_init_recursive>:
   15a68: 82 80        	ret

0000000000015a6a <__retarget_lock_close>:
   15a6a: 82 80        	ret

0000000000015a6c <__retarget_lock_close_recursive>:
   15a6c: 82 80        	ret

0000000000015a6e <__retarget_lock_acquire>:
   15a6e: 82 80        	ret

0000000000015a70 <__retarget_lock_acquire_recursive>:
   15a70: 82 80        	ret

0000000000015a72 <__retarget_lock_try_acquire>:
   15a72: 05 45        	li	a0, 0x1
   15a74: 82 80        	ret

0000000000015a76 <__retarget_lock_try_acquire_recursive>:
   15a76: 05 45        	li	a0, 0x1
   15a78: 82 80        	ret

0000000000015a7a <__retarget_lock_release>:
   15a7a: 82 80        	ret

0000000000015a7c <__retarget_lock_release_recursive>:
   15a7c: 82 80        	ret

0000000000015a7e <__smakebuf_r>:
   15a7e: 83 97 05 01  	lh	a5, 0x10(a1)
   15a82: 35 71        	addi	sp, sp, -0xa0
   15a84: 22 e9        	sd	s0, 0x90(sp)
   15a86: 06 ed        	sd	ra, 0x98(sp)
   15a88: 13 f7 27 00  	andi	a4, a5, 0x2
   15a8c: 2e 84        	mv	s0, a1
   15a8e: 19 cb        	beqz	a4, 0x15aa4 <__smakebuf_r+0x26>
   15a90: 93 87 75 07  	addi	a5, a1, 0x77
   15a94: 05 47        	li	a4, 0x1
   15a96: 9c e1        	sd	a5, 0x0(a1)
   15a98: 9c ed        	sd	a5, 0x18(a1)
   15a9a: 98 d1        	sw	a4, 0x20(a1)
   15a9c: ea 60        	ld	ra, 0x98(sp)
   15a9e: 4a 64        	ld	s0, 0x90(sp)
   15aa0: 0d 61        	addi	sp, sp, 0xa0
   15aa2: 82 80        	ret
   15aa4: 83 95 25 01  	lh	a1, 0x12(a1)
   15aa8: 26 e5        	sd	s1, 0x88(sp)
   15aaa: 4a e1        	sd	s2, 0x80(sp)
   15aac: ce fc        	sd	s3, 0x78(sp)
   15aae: d2 f8        	sd	s4, 0x70(sp)
   15ab0: aa 84        	mv	s1, a0
   15ab2: 63 c9 05 06  	bltz	a1, 0x15b24 <__smakebuf_r+0xa6>
   15ab6: 30 00        	addi	a2, sp, 0x8
   15ab8: ef 50 e0 14  	jal	0x1ac06 <_fstat_r>
   15abc: 63 42 05 06  	bltz	a0, 0x15b20 <__smakebuf_r+0xa2>
   15ac0: 32 49        	lw	s2, 0xc(sp)
   15ac2: 3d 67        	lui	a4, 0xf
   15ac4: 89 67        	lui	a5, 0x2
   15ac6: 33 79 e9 00  	and	s2, s2, a4
   15aca: 33 09 f9 40  	sub	s2, s2, a5
   15ace: 05 6a        	lui	s4, 0x1
   15ad0: 13 39 19 00  	seqz	s2, s2
   15ad4: 13 0a 0a 80  	addi	s4, s4, -0x800
   15ad8: 93 09 00 40  	li	s3, 0x400
   15adc: ce 85        	mv	a1, s3
   15ade: 26 85        	mv	a0, s1
   15ae0: ef 00 80 13  	jal	0x15c18 <_malloc_r>
   15ae4: 83 17 04 01  	lh	a5, 0x10(s0)
   15ae8: 21 cd        	beqz	a0, 0x15b40 <__smakebuf_r+0xc2>
   15aea: 17 d7 ff ff  	auipc	a4, 0xffffd
   15aee: 13 07 47 45  	addi	a4, a4, 0x454
   15af2: b8 ec        	sd	a4, 0x58(s1)
   15af4: 93 e7 07 08  	ori	a5, a5, 0x80
   15af8: 23 18 f4 00  	sh	a5, 0x10(s0)
   15afc: 08 e0        	sd	a0, 0x0(s0)
   15afe: 08 ec        	sd	a0, 0x18(s0)
   15b00: 23 20 34 03  	sw	s3, 0x20(s0)
   15b04: 63 15 09 06  	bnez	s2, 0x15b6e <__smakebuf_r+0xf0>
   15b08: b3 e7 47 01  	or	a5, a5, s4
   15b0c: ea 60        	ld	ra, 0x98(sp)
   15b0e: 23 18 f4 00  	sh	a5, 0x10(s0)
   15b12: 4a 64        	ld	s0, 0x90(sp)
   15b14: aa 64        	ld	s1, 0x88(sp)
   15b16: 0a 69        	ld	s2, 0x80(sp)
   15b18: e6 79        	ld	s3, 0x78(sp)
   15b1a: 46 7a        	ld	s4, 0x70(sp)
   15b1c: 0d 61        	addi	sp, sp, 0xa0
   15b1e: 82 80        	ret
   15b20: 83 17 04 01  	lh	a5, 0x10(s0)
   15b24: 93 f7 07 08  	andi	a5, a5, 0x80
   15b28: 01 49        	li	s2, 0x0
   15b2a: 95 cf        	beqz	a5, 0x15b66 <__smakebuf_r+0xe8>
   15b2c: 93 09 00 04  	li	s3, 0x40
   15b30: ce 85        	mv	a1, s3
   15b32: 26 85        	mv	a0, s1
   15b34: ef 00 40 0e  	jal	0x15c18 <_malloc_r>
   15b38: 83 17 04 01  	lh	a5, 0x10(s0)
   15b3c: 01 4a        	li	s4, 0x0
   15b3e: 55 f5        	bnez	a0, 0x15aea <__smakebuf_r+0x6c>
   15b40: 13 f7 07 20  	andi	a4, a5, 0x200
   15b44: 29 e3        	bnez	a4, 0x15b86 <__smakebuf_r+0x108>
   15b46: f1 9b        	andi	a5, a5, -0x4
   15b48: 13 07 74 07  	addi	a4, s0, 0x77
   15b4c: 93 e7 27 00  	ori	a5, a5, 0x2
   15b50: 85 46        	li	a3, 0x1
   15b52: aa 64        	ld	s1, 0x88(sp)
   15b54: 0a 69        	ld	s2, 0x80(sp)
   15b56: e6 79        	ld	s3, 0x78(sp)
   15b58: 46 7a        	ld	s4, 0x70(sp)
   15b5a: 23 18 f4 00  	sh	a5, 0x10(s0)
   15b5e: 18 e0        	sd	a4, 0x0(s0)
   15b60: 18 ec        	sd	a4, 0x18(s0)
   15b62: 14 d0        	sw	a3, 0x20(s0)
   15b64: 25 bf        	j	0x15a9c <__smakebuf_r+0x1e>
   15b66: 93 09 00 40  	li	s3, 0x400
   15b6a: 01 4a        	li	s4, 0x0
   15b6c: 85 bf        	j	0x15adc <__smakebuf_r+0x5e>
   15b6e: 83 15 24 01  	lh	a1, 0x12(s0)
   15b72: 26 85        	mv	a0, s1
   15b74: ef 50 00 41  	jal	0x1af84 <_isatty_r>
   15b78: 83 17 04 01  	lh	a5, 0x10(s0)
   15b7c: 51 d5        	beqz	a0, 0x15b08 <__smakebuf_r+0x8a>
   15b7e: f1 9b        	andi	a5, a5, -0x4
   15b80: 93 e7 17 00  	ori	a5, a5, 0x1
   15b84: 51 b7        	j	0x15b08 <__smakebuf_r+0x8a>
   15b86: aa 64        	ld	s1, 0x88(sp)
   15b88: 0a 69        	ld	s2, 0x80(sp)
   15b8a: e6 79        	ld	s3, 0x78(sp)
   15b8c: 46 7a        	ld	s4, 0x70(sp)
   15b8e: 39 b7        	j	0x15a9c <__smakebuf_r+0x1e>

0000000000015b90 <__swhatbuf_r>:
   15b90: 75 71        	addi	sp, sp, -0x90
   15b92: 22 e1        	sd	s0, 0x80(sp)
   15b94: 2e 84        	mv	s0, a1
   15b96: 83 95 25 01  	lh	a1, 0x12(a1)
   15b9a: a6 fc        	sd	s1, 0x78(sp)
   15b9c: ca f8        	sd	s2, 0x70(sp)
   15b9e: 06 e5        	sd	ra, 0x88(sp)
   15ba0: b2 84        	mv	s1, a2
   15ba2: 36 89        	mv	s2, a3
   15ba4: 63 cc 05 02  	bltz	a1, 0x15bdc <__swhatbuf_r+0x4c>
   15ba8: 30 00        	addi	a2, sp, 0x8
   15baa: ef 50 c0 05  	jal	0x1ac06 <_fstat_r>
   15bae: 63 47 05 02  	bltz	a0, 0x15bdc <__swhatbuf_r+0x4c>
   15bb2: b2 47        	lw	a5, 0xc(sp)
   15bb4: bd 66        	lui	a3, 0xf
   15bb6: 09 67        	lui	a4, 0x2
   15bb8: f5 8f        	and	a5, a5, a3
   15bba: 99 8f        	sub	a5, a5, a4
   15bbc: aa 60        	ld	ra, 0x88(sp)
   15bbe: 0a 64        	ld	s0, 0x80(sp)
   15bc0: 93 b7 17 00  	seqz	a5, a5
   15bc4: 23 20 f9 00  	sw	a5, 0x0(s2)
   15bc8: 13 07 00 40  	li	a4, 0x400
   15bcc: 98 e0        	sd	a4, 0x0(s1)
   15bce: 05 65        	lui	a0, 0x1
   15bd0: e6 74        	ld	s1, 0x78(sp)
   15bd2: 46 79        	ld	s2, 0x70(sp)
   15bd4: 13 05 05 80  	addi	a0, a0, -0x800
   15bd8: 49 61        	addi	sp, sp, 0x90
   15bda: 82 80        	ret
   15bdc: 83 57 04 01  	lhu	a5, 0x10(s0)
   15be0: 93 f7 07 08  	andi	a5, a5, 0x80
   15be4: 91 cf        	beqz	a5, 0x15c00 <__swhatbuf_r+0x70>
   15be6: aa 60        	ld	ra, 0x88(sp)
   15be8: 0a 64        	ld	s0, 0x80(sp)
   15bea: 81 47        	li	a5, 0x0
   15bec: 23 20 f9 00  	sw	a5, 0x0(s2)
   15bf0: 13 07 00 04  	li	a4, 0x40
   15bf4: 98 e0        	sd	a4, 0x0(s1)
   15bf6: 46 79        	ld	s2, 0x70(sp)
   15bf8: e6 74        	ld	s1, 0x78(sp)
   15bfa: 01 45        	li	a0, 0x0
   15bfc: 49 61        	addi	sp, sp, 0x90
   15bfe: 82 80        	ret
   15c00: aa 60        	ld	ra, 0x88(sp)
   15c02: 0a 64        	ld	s0, 0x80(sp)
   15c04: 23 20 f9 00  	sw	a5, 0x0(s2)
   15c08: 13 07 00 40  	li	a4, 0x400
   15c0c: 98 e0        	sd	a4, 0x0(s1)
   15c0e: 46 79        	ld	s2, 0x70(sp)
   15c10: e6 74        	ld	s1, 0x78(sp)
   15c12: 01 45        	li	a0, 0x0
   15c14: 49 61        	addi	sp, sp, 0x90
   15c16: 82 80        	ret

0000000000015c18 <_malloc_r>:
   15c18: 1d 71        	addi	sp, sp, -0x60
   15c1a: a6 e4        	sd	s1, 0x48(sp)
   15c1c: ca e0        	sd	s2, 0x40(sp)
   15c1e: 86 ec        	sd	ra, 0x58(sp)
   15c20: a2 e8        	sd	s0, 0x50(sp)
   15c22: 4e fc        	sd	s3, 0x38(sp)
   15c24: 93 84 75 01  	addi	s1, a1, 0x17
   15c28: 93 07 e0 02  	li	a5, 0x2e
   15c2c: 2a 89        	mv	s2, a0
   15c2e: 63 ec 97 04  	bltu	a5, s1, 0x15c86 <_malloc_r+0x6e>
   15c32: 93 04 00 02  	li	s1, 0x20
   15c36: 63 eb b4 18  	bltu	s1, a1, 0x15dcc <_malloc_r+0x1b4>
   15c3a: ef 00 c0 6c  	jal	0x16306 <__malloc_lock>
   15c3e: 93 07 00 05  	li	a5, 0x50
   15c42: 91 45        	li	a1, 0x4
   15c44: 97 b9 00 00  	auipc	s3, 0xb
   15c48: 93 89 49 d7  	addi	s3, s3, -0x28c
   15c4c: ce 97        	add	a5, a5, s3
   15c4e: 80 67        	ld	s0, 0x8(a5)
   15c50: 13 87 07 ff  	addi	a4, a5, -0x10
   15c54: 63 03 e4 34  	beq	s0, a4, 0x15f9a <_malloc_r+0x382>
   15c58: 1c 64        	ld	a5, 0x8(s0)
   15c5a: 14 6c        	ld	a3, 0x18(s0)
   15c5c: 10 68        	ld	a2, 0x10(s0)
   15c5e: f1 9b        	andi	a5, a5, -0x4
   15c60: a2 97        	add	a5, a5, s0
   15c62: 98 67        	ld	a4, 0x8(a5)
   15c64: 14 ee        	sd	a3, 0x18(a2)
   15c66: 90 ea        	sd	a2, 0x10(a3)
   15c68: 13 67 17 00  	ori	a4, a4, 0x1
   15c6c: 4a 85        	mv	a0, s2
   15c6e: 98 e7        	sd	a4, 0x8(a5)
   15c70: ef 00 e0 69  	jal	0x1630e <__malloc_unlock>
   15c74: e6 60        	ld	ra, 0x58(sp)
   15c76: 13 05 04 01  	addi	a0, s0, 0x10
   15c7a: 46 64        	ld	s0, 0x50(sp)
   15c7c: a6 64        	ld	s1, 0x48(sp)
   15c7e: 06 69        	ld	s2, 0x40(sp)
   15c80: e2 79        	ld	s3, 0x38(sp)
   15c82: 25 61        	addi	sp, sp, 0x60
   15c84: 82 80        	ret
   15c86: b7 07 00 80  	lui	a5, 0x80000
   15c8a: c1 98        	andi	s1, s1, -0x10
   15c8c: 93 c7 f7 ff  	not	a5, a5
   15c90: 63 ee 97 12  	bltu	a5, s1, 0x15dcc <_malloc_r+0x1b4>
   15c94: 63 ec b4 12  	bltu	s1, a1, 0x15dcc <_malloc_r+0x1b4>
   15c98: ef 00 e0 66  	jal	0x16306 <__malloc_lock>
   15c9c: 93 07 70 1f  	li	a5, 0x1f7
   15ca0: 63 f8 97 3e  	bgeu	a5, s1, 0x16090 <_malloc_r+0x478>
   15ca4: 93 d7 94 00  	srli	a5, s1, 0x9
   15ca8: 63 8d 07 12  	beqz	a5, 0x15de2 <_malloc_r+0x1ca>
   15cac: 11 47        	li	a4, 0x4
   15cae: 63 6d f7 32  	bltu	a4, a5, 0x15fe8 <_malloc_r+0x3d0>
   15cb2: 93 d7 64 00  	srli	a5, s1, 0x6
   15cb6: 9b 85 97 03  	addiw	a1, a5, 0x39
   15cba: 1b 96 15 00  	slliw	a2, a1, 0x1
   15cbe: 1b 88 87 03  	addiw	a6, a5, 0x38
   15cc2: 0e 06        	slli	a2, a2, 0x3
   15cc4: 97 b9 00 00  	auipc	s3, 0xb
   15cc8: 93 89 49 cf  	addi	s3, s3, -0x30c
   15ccc: 4e 96        	add	a2, a2, s3
   15cce: 00 66        	ld	s0, 0x8(a2)
   15cd0: 41 16        	addi	a2, a2, -0x10
   15cd2: 63 01 86 02  	beq	a2, s0, 0x15cf4 <_malloc_r+0xdc>
   15cd6: 7d 45        	li	a0, 0x1f
   15cd8: 39 a0        	j	0x15ce6 <_malloc_r+0xce>
   15cda: 14 6c        	ld	a3, 0x18(s0)
   15cdc: 63 5b 07 28  	bgez	a4, 0x15f72 <_malloc_r+0x35a>
   15ce0: 63 0a d6 00  	beq	a2, a3, 0x15cf4 <_malloc_r+0xdc>
   15ce4: 36 84        	mv	s0, a3
   15ce6: 1c 64        	ld	a5, 0x8(s0)
   15ce8: f1 9b        	andi	a5, a5, -0x4
   15cea: 33 87 97 40  	sub	a4, a5, s1
   15cee: e3 56 e5 fe  	bge	a0, a4, 0x15cda <_malloc_r+0xc2>
   15cf2: c2 85        	mv	a1, a6
   15cf4: 03 b4 09 02  	ld	s0, 0x20(s3)
   15cf8: 97 b8 00 00  	auipc	a7, 0xb
   15cfc: 93 88 08 cd  	addi	a7, a7, -0x330
   15d00: 63 06 14 27  	beq	s0, a7, 0x15f6c <_malloc_r+0x354>
   15d04: 1c 64        	ld	a5, 0x8(s0)
   15d06: fd 46        	li	a3, 0x1f
   15d08: f1 9b        	andi	a5, a5, -0x4
   15d0a: 33 87 97 40  	sub	a4, a5, s1
   15d0e: 63 ca e6 34  	blt	a3, a4, 0x16062 <_malloc_r+0x44a>
   15d12: 23 b4 19 03  	sd	a7, 0x28(s3)
   15d16: 23 b0 19 03  	sd	a7, 0x20(s3)
   15d1a: 63 59 07 32  	bgez	a4, 0x1604c <_malloc_r+0x434>
   15d1e: 13 07 f0 1f  	li	a4, 0x1ff
   15d22: 03 b5 89 00  	ld	a0, 0x8(s3)
   15d26: 63 6f f7 26  	bltu	a4, a5, 0x15fa4 <_malloc_r+0x38c>
   15d2a: 8d 83        	srli	a5, a5, 0x3
   15d2c: 81 27        	sext.w	a5, a5
   15d2e: 1b 87 17 00  	addiw	a4, a5, 0x1
   15d32: 1b 17 17 00  	slliw	a4, a4, 0x1
   15d36: 0e 07        	slli	a4, a4, 0x3
   15d38: 4e 97        	add	a4, a4, s3
   15d3a: 10 63        	ld	a2, 0x0(a4)
   15d3c: 9b d7 27 40  	sraiw	a5, a5, 0x2
   15d40: 85 46        	li	a3, 0x1
   15d42: b3 97 f6 00  	sll	a5, a3, a5
   15d46: 5d 8d        	or	a0, a0, a5
   15d48: 93 07 07 ff  	addi	a5, a4, -0x10
   15d4c: 10 e8        	sd	a2, 0x10(s0)
   15d4e: 1c ec        	sd	a5, 0x18(s0)
   15d50: 23 b4 a9 00  	sd	a0, 0x8(s3)
   15d54: 00 e3        	sd	s0, 0x0(a4)
   15d56: 00 ee        	sd	s0, 0x18(a2)
   15d58: 9b d7 25 40  	sraiw	a5, a1, 0x2
   15d5c: 05 46        	li	a2, 0x1
   15d5e: 33 16 f6 00  	sll	a2, a2, a5
   15d62: 63 67 c5 08  	bltu	a0, a2, 0x15df0 <_malloc_r+0x1d8>
   15d66: b3 77 a6 00  	and	a5, a2, a0
   15d6a: 81 ef        	bnez	a5, 0x15d82 <_malloc_r+0x16a>
   15d6c: 06 06        	slli	a2, a2, 0x1
   15d6e: f1 99        	andi	a1, a1, -0x4
   15d70: b3 77 a6 00  	and	a5, a2, a0
   15d74: 91 25        	addiw	a1, a1, 0x4
   15d76: 91 e7        	bnez	a5, 0x15d82 <_malloc_r+0x16a>
   15d78: 06 06        	slli	a2, a2, 0x1
   15d7a: b3 77 a6 00  	and	a5, a2, a0
   15d7e: 91 25        	addiw	a1, a1, 0x4
   15d80: e5 df        	beqz	a5, 0x15d78 <_malloc_r+0x160>
   15d82: 7d 48        	li	a6, 0x1f
   15d84: 1b 83 15 00  	addiw	t1, a1, 0x1
   15d88: 1b 13 13 00  	slliw	t1, t1, 0x1
   15d8c: 0e 03        	slli	t1, t1, 0x3
   15d8e: 41 13        	addi	t1, t1, -0x10
   15d90: 4e 93        	add	t1, t1, s3
   15d92: 1a 85        	mv	a0, t1
   15d94: 1c 6d        	ld	a5, 0x18(a0)
   15d96: 2e 8e        	mv	t3, a1
   15d98: 63 09 f5 26  	beq	a0, a5, 0x1600a <_malloc_r+0x3f2>
   15d9c: 98 67        	ld	a4, 0x8(a5)
   15d9e: 3e 84        	mv	s0, a5
   15da0: 9c 6f        	ld	a5, 0x18(a5)
   15da2: 71 9b        	andi	a4, a4, -0x4
   15da4: b3 06 97 40  	sub	a3, a4, s1
   15da8: 63 48 d8 26  	blt	a6, a3, 0x16018 <_malloc_r+0x400>
   15dac: e3 c6 06 fe  	bltz	a3, 0x15d98 <_malloc_r+0x180>
   15db0: 22 97        	add	a4, a4, s0
   15db2: 14 67        	ld	a3, 0x8(a4)
   15db4: 10 68        	ld	a2, 0x10(s0)
   15db6: 4a 85        	mv	a0, s2
   15db8: 93 e6 16 00  	ori	a3, a3, 0x1
   15dbc: 14 e7        	sd	a3, 0x8(a4)
   15dbe: 1c ee        	sd	a5, 0x18(a2)
   15dc0: 90 eb        	sd	a2, 0x10(a5)
   15dc2: ef 00 c0 54  	jal	0x1630e <__malloc_unlock>
   15dc6: 13 05 04 01  	addi	a0, s0, 0x10
   15dca: 29 a0        	j	0x15dd4 <_malloc_r+0x1bc>
   15dcc: b1 47        	li	a5, 0xc
   15dce: 23 20 f9 00  	sw	a5, 0x0(s2)
   15dd2: 01 45        	li	a0, 0x0
   15dd4: e6 60        	ld	ra, 0x58(sp)
   15dd6: 46 64        	ld	s0, 0x50(sp)
   15dd8: a6 64        	ld	s1, 0x48(sp)
   15dda: 06 69        	ld	s2, 0x40(sp)
   15ddc: e2 79        	ld	s3, 0x38(sp)
   15dde: 25 61        	addi	sp, sp, 0x60
   15de0: 82 80        	ret
   15de2: 13 06 00 40  	li	a2, 0x400
   15de6: 93 05 00 04  	li	a1, 0x40
   15dea: 13 08 f0 03  	li	a6, 0x3f
   15dee: d9 bd        	j	0x15cc4 <_malloc_r+0xac>
   15df0: 03 b4 09 01  	ld	s0, 0x10(s3)
   15df4: 56 f4        	sd	s5, 0x28(sp)
   15df6: 1c 64        	ld	a5, 0x8(s0)
   15df8: 93 fa c7 ff  	andi	s5, a5, -0x4
   15dfc: 63 e7 9a 00  	bltu	s5, s1, 0x15e0a <_malloc_r+0x1f2>
   15e00: 33 87 9a 40  	sub	a4, s5, s1
   15e04: fd 47        	li	a5, 0x1f
   15e06: 63 cd e7 12  	blt	a5, a4, 0x15f40 <_malloc_r+0x328>
   15e0a: 62 e8        	sd	s8, 0x10(sp)
   15e0c: 13 8c 81 71  	addi	s8, gp, 0x718
   15e10: 52 f8        	sd	s4, 0x30(sp)
   15e12: 03 37 0c 00  	ld	a4, 0x0(s8)
   15e16: 03 ba 01 78  	ld	s4, 0x780(gp)
   15e1a: 5e ec        	sd	s7, 0x18(sp)
   15e1c: 5a f0        	sd	s6, 0x20(sp)
   15e1e: fd 57        	li	a5, -0x1
   15e20: b3 0b 54 01  	add	s7, s0, s5
   15e24: 26 9a        	add	s4, s4, s1
   15e26: 63 0b f7 2e  	beq	a4, a5, 0x1611c <_malloc_r+0x504>
   15e2a: 85 67        	lui	a5, 0x1
   15e2c: fd 07        	addi	a5, a5, 0x1f
   15e2e: 3e 9a        	add	s4, s4, a5
   15e30: fd 77        	lui	a5, 0xfffff
   15e32: 33 7a fa 00  	and	s4, s4, a5
   15e36: d2 85        	mv	a1, s4
   15e38: 4a 85        	mv	a0, s2
   15e3a: ef 10 20 38  	jal	0x171bc <_sbrk_r>
   15e3e: fd 57        	li	a5, -0x1
   15e40: 2a 8b        	mv	s6, a0
   15e42: 63 0f f5 36  	beq	a0, a5, 0x161c0 <_malloc_r+0x5a8>
   15e46: 66 e4        	sd	s9, 0x8(sp)
   15e48: 63 6a 75 0d  	bltu	a0, s7, 0x15f1c <_malloc_r+0x304>
   15e4c: 17 b7 00 00  	auipc	a4, 0xb
   15e50: 03 27 c7 63  	lw	a4, 0x63c(a4)
   15e54: 97 bc 00 00  	auipc	s9, 0xb
   15e58: 93 8c 4c 63  	addi	s9, s9, 0x634
   15e5c: 3b 07 47 01  	addw	a4, a4, s4
   15e60: 23 a0 ec 00  	sw	a4, 0x0(s9)
   15e64: ba 86        	mv	a3, a4
   15e66: 63 81 ab 36  	beq	s7, a0, 0x161c8 <_malloc_r+0x5b0>
   15e6a: 03 37 0c 00  	ld	a4, 0x0(s8)
   15e6e: fd 57        	li	a5, -0x1
   15e70: 63 09 f7 36  	beq	a4, a5, 0x161e2 <_malloc_r+0x5ca>
   15e74: b3 07 7b 41  	sub	a5, s6, s7
   15e78: b5 9f        	addw	a5, a5, a3
   15e7a: 23 a0 fc 00  	sw	a5, 0x0(s9)
   15e7e: 13 7c fb 00  	andi	s8, s6, 0xf
   15e82: 63 09 0c 2a  	beqz	s8, 0x16134 <_malloc_r+0x51c>
   15e86: 33 0b 8b 41  	sub	s6, s6, s8
   15e8a: 85 66        	lui	a3, 0x1
   15e8c: 41 0b        	addi	s6, s6, 0x10
   15e8e: c1 06        	addi	a3, a3, 0x10
   15e90: 5a 9a        	add	s4, s4, s6
   15e92: b3 86 86 41  	sub	a3, a3, s8
   15e96: b3 86 46 41  	sub	a3, a3, s4
   15e9a: d2 16        	slli	a3, a3, 0x34
   15e9c: 93 db 46 03  	srli	s7, a3, 0x34
   15ea0: de 85        	mv	a1, s7
   15ea2: 4a 85        	mv	a0, s2
   15ea4: ef 10 80 31  	jal	0x171bc <_sbrk_r>
   15ea8: fd 57        	li	a5, -0x1
   15eaa: 63 0b f5 36  	beq	a0, a5, 0x16220 <_malloc_r+0x608>
   15eae: 33 05 65 41  	sub	a0, a0, s6
   15eb2: 33 0a 75 01  	add	s4, a0, s7
   15eb6: 9b 86 0b 00  	sext.w	a3, s7
   15eba: 17 b7 00 00  	auipc	a4, 0xb
   15ebe: 03 27 e7 5c  	lw	a4, 0x5ce(a4)
   15ec2: 23 b8 69 01  	sd	s6, 0x10(s3)
   15ec6: 93 67 1a 00  	ori	a5, s4, 0x1
   15eca: 35 9f        	addw	a4, a4, a3
   15ecc: 23 34 fb 00  	sd	a5, 0x8(s6)
   15ed0: 23 a0 ec 00  	sw	a4, 0x0(s9)
   15ed4: 63 05 34 03  	beq	s0, s3, 0x15efe <_malloc_r+0x2e6>
   15ed8: 7d 46        	li	a2, 0x1f
   15eda: 63 7d 56 27  	bgeu	a2, s5, 0x16154 <_malloc_r+0x53c>
   15ede: 14 64        	ld	a3, 0x8(s0)
   15ee0: 93 87 8a fe  	addi	a5, s5, -0x18
   15ee4: c1 9b        	andi	a5, a5, -0x10
   15ee6: 85 8a        	andi	a3, a3, 0x1
   15ee8: dd 8e        	or	a3, a3, a5
   15eea: 14 e4        	sd	a3, 0x8(s0)
   15eec: a5 45        	li	a1, 0x9
   15eee: b3 06 f4 00  	add	a3, s0, a5
   15ef2: 8c e6        	sd	a1, 0x8(a3)
   15ef4: 8c ea        	sd	a1, 0x10(a3)
   15ef6: 63 67 f6 20  	bltu	a2, a5, 0x16104 <_malloc_r+0x4ec>
   15efa: 83 37 8b 00  	ld	a5, 0x8(s6)
   15efe: 93 86 81 77  	addi	a3, gp, 0x778
   15f02: 90 62        	ld	a2, 0x0(a3)
   15f04: 63 73 e6 00  	bgeu	a2, a4, 0x15f0a <_malloc_r+0x2f2>
   15f08: 98 e2        	sd	a4, 0x0(a3)
   15f0a: 93 86 01 77  	addi	a3, gp, 0x770
   15f0e: 90 62        	ld	a2, 0x0(a3)
   15f10: 63 73 e6 00  	bgeu	a2, a4, 0x15f16 <_malloc_r+0x2fe>
   15f14: 98 e2        	sd	a4, 0x0(a3)
   15f16: a2 6c        	ld	s9, 0x8(sp)
   15f18: 5a 84        	mv	s0, s6
   15f1a: 39 a0        	j	0x15f28 <_malloc_r+0x310>
   15f1c: 63 05 34 29  	beq	s0, s3, 0x161a6 <_malloc_r+0x58e>
   15f20: 03 b4 09 01  	ld	s0, 0x10(s3)
   15f24: a2 6c        	ld	s9, 0x8(sp)
   15f26: 1c 64        	ld	a5, 0x8(s0)
   15f28: f1 9b        	andi	a5, a5, -0x4
   15f2a: 33 87 97 40  	sub	a4, a5, s1
   15f2e: 63 e7 97 22  	bltu	a5, s1, 0x1615c <_malloc_r+0x544>
   15f32: fd 47        	li	a5, 0x1f
   15f34: 63 d4 e7 22  	bge	a5, a4, 0x1615c <_malloc_r+0x544>
   15f38: 42 7a        	ld	s4, 0x30(sp)
   15f3a: 02 7b        	ld	s6, 0x20(sp)
   15f3c: e2 6b        	ld	s7, 0x18(sp)
   15f3e: 42 6c        	ld	s8, 0x10(sp)
   15f40: 93 e7 14 00  	ori	a5, s1, 0x1
   15f44: 1c e4        	sd	a5, 0x8(s0)
   15f46: a2 94        	add	s1, s1, s0
   15f48: 23 b8 99 00  	sd	s1, 0x10(s3)
   15f4c: 13 67 17 00  	ori	a4, a4, 0x1
   15f50: 4a 85        	mv	a0, s2
   15f52: 98 e4        	sd	a4, 0x8(s1)
   15f54: ef 00 a0 3b  	jal	0x1630e <__malloc_unlock>
   15f58: e6 60        	ld	ra, 0x58(sp)
   15f5a: 13 05 04 01  	addi	a0, s0, 0x10
   15f5e: 46 64        	ld	s0, 0x50(sp)
   15f60: a2 7a        	ld	s5, 0x28(sp)
   15f62: a6 64        	ld	s1, 0x48(sp)
   15f64: 06 69        	ld	s2, 0x40(sp)
   15f66: e2 79        	ld	s3, 0x38(sp)
   15f68: 25 61        	addi	sp, sp, 0x60
   15f6a: 82 80        	ret
   15f6c: 03 b5 89 00  	ld	a0, 0x8(s3)
   15f70: e5 b3        	j	0x15d58 <_malloc_r+0x140>
   15f72: 10 68        	ld	a2, 0x10(s0)
   15f74: a2 97        	add	a5, a5, s0
   15f76: 98 67        	ld	a4, 0x8(a5)
   15f78: 14 ee        	sd	a3, 0x18(a2)
   15f7a: 90 ea        	sd	a2, 0x10(a3)
   15f7c: 13 67 17 00  	ori	a4, a4, 0x1
   15f80: 4a 85        	mv	a0, s2
   15f82: 98 e7        	sd	a4, 0x8(a5)
   15f84: ef 00 a0 38  	jal	0x1630e <__malloc_unlock>
   15f88: e6 60        	ld	ra, 0x58(sp)
   15f8a: 13 05 04 01  	addi	a0, s0, 0x10
   15f8e: 46 64        	ld	s0, 0x50(sp)
   15f90: a6 64        	ld	s1, 0x48(sp)
   15f92: 06 69        	ld	s2, 0x40(sp)
   15f94: e2 79        	ld	s3, 0x38(sp)
   15f96: 25 61        	addi	sp, sp, 0x60
   15f98: 82 80        	ret
   15f9a: 80 6f        	ld	s0, 0x18(a5)
   15f9c: 89 25        	addiw	a1, a1, 0x2
   15f9e: e3 8b 87 d4  	beq	a5, s0, 0x15cf4 <_malloc_r+0xdc>
   15fa2: 5d b9        	j	0x15c58 <_malloc_r+0x40>
   15fa4: 13 d7 97 00  	srli	a4, a5, 0x9
   15fa8: 91 46        	li	a3, 0x4
   15faa: 63 fc e6 0e  	bgeu	a3, a4, 0x160a2 <_malloc_r+0x48a>
   15fae: d1 46        	li	a3, 0x14
   15fb0: 63 ef e6 1a  	bltu	a3, a4, 0x1616e <_malloc_r+0x556>
   15fb4: 1b 06 c7 05  	addiw	a2, a4, 0x5c
   15fb8: 1b 16 16 00  	slliw	a2, a2, 0x1
   15fbc: 0e 06        	slli	a2, a2, 0x3
   15fbe: 9b 06 b7 05  	addiw	a3, a4, 0x5b
   15fc2: 4e 96        	add	a2, a2, s3
   15fc4: 18 62        	ld	a4, 0x0(a2)
   15fc6: 41 16        	addi	a2, a2, -0x10
   15fc8: 63 16 e6 00  	bne	a2, a4, 0x15fd4 <_malloc_r+0x3bc>
   15fcc: 99 aa        	j	0x16122 <_malloc_r+0x50a>
   15fce: 18 6b        	ld	a4, 0x10(a4)
   15fd0: 63 06 e6 00  	beq	a2, a4, 0x15fdc <_malloc_r+0x3c4>
   15fd4: 14 67        	ld	a3, 0x8(a4)
   15fd6: f1 9a        	andi	a3, a3, -0x4
   15fd8: e3 eb d7 fe  	bltu	a5, a3, 0x15fce <_malloc_r+0x3b6>
   15fdc: 10 6f        	ld	a2, 0x18(a4)
   15fde: 10 ec        	sd	a2, 0x18(s0)
   15fe0: 18 e8        	sd	a4, 0x10(s0)
   15fe2: 00 ea        	sd	s0, 0x10(a2)
   15fe4: 00 ef        	sd	s0, 0x18(a4)
   15fe6: 8d bb        	j	0x15d58 <_malloc_r+0x140>
   15fe8: 51 47        	li	a4, 0x14
   15fea: 63 76 f7 0c  	bgeu	a4, a5, 0x160b6 <_malloc_r+0x49e>
   15fee: 13 07 40 05  	li	a4, 0x54
   15ff2: 63 6c f7 18  	bltu	a4, a5, 0x1618a <_malloc_r+0x572>
   15ff6: 93 d7 c4 00  	srli	a5, s1, 0xc
   15ffa: 9b 85 f7 06  	addiw	a1, a5, 0x6f
   15ffe: 1b 96 15 00  	slliw	a2, a1, 0x1
   16002: 1b 88 e7 06  	addiw	a6, a5, 0x6e
   16006: 0e 06        	slli	a2, a2, 0x3
   16008: 75 b9        	j	0x15cc4 <_malloc_r+0xac>
   1600a: 05 2e        	addiw	t3, t3, 0x1
   1600c: 93 77 3e 00  	andi	a5, t3, 0x3
   16010: 41 05        	addi	a0, a0, 0x10
   16012: dd cf        	beqz	a5, 0x160d0 <_malloc_r+0x4b8>
   16014: 1c 6d        	ld	a5, 0x18(a0)
   16016: 49 b3        	j	0x15d98 <_malloc_r+0x180>
   16018: 10 68        	ld	a2, 0x10(s0)
   1601a: 93 e5 14 00  	ori	a1, s1, 0x1
   1601e: 0c e4        	sd	a1, 0x8(s0)
   16020: 1c ee        	sd	a5, 0x18(a2)
   16022: 90 eb        	sd	a2, 0x10(a5)
   16024: a2 94        	add	s1, s1, s0
   16026: 23 b4 99 02  	sd	s1, 0x28(s3)
   1602a: 23 b0 99 02  	sd	s1, 0x20(s3)
   1602e: 93 e7 16 00  	ori	a5, a3, 0x1
   16032: 22 97        	add	a4, a4, s0
   16034: 23 bc 14 01  	sd	a7, 0x18(s1)
   16038: 23 b8 14 01  	sd	a7, 0x10(s1)
   1603c: 9c e4        	sd	a5, 0x8(s1)
   1603e: 4a 85        	mv	a0, s2
   16040: 14 e3        	sd	a3, 0x0(a4)
   16042: ef 00 c0 2c  	jal	0x1630e <__malloc_unlock>
   16046: 13 05 04 01  	addi	a0, s0, 0x10
   1604a: 69 b3        	j	0x15dd4 <_malloc_r+0x1bc>
   1604c: a2 97        	add	a5, a5, s0
   1604e: 98 67        	ld	a4, 0x8(a5)
   16050: 4a 85        	mv	a0, s2
   16052: 13 67 17 00  	ori	a4, a4, 0x1
   16056: 98 e7        	sd	a4, 0x8(a5)
   16058: ef 00 60 2b  	jal	0x1630e <__malloc_unlock>
   1605c: 13 05 04 01  	addi	a0, s0, 0x10
   16060: 95 bb        	j	0x15dd4 <_malloc_r+0x1bc>
   16062: 93 e6 14 00  	ori	a3, s1, 0x1
   16066: 14 e4        	sd	a3, 0x8(s0)
   16068: a2 94        	add	s1, s1, s0
   1606a: 23 b4 99 02  	sd	s1, 0x28(s3)
   1606e: 23 b0 99 02  	sd	s1, 0x20(s3)
   16072: 93 66 17 00  	ori	a3, a4, 0x1
   16076: a2 97        	add	a5, a5, s0
   16078: 23 bc 14 01  	sd	a7, 0x18(s1)
   1607c: 23 b8 14 01  	sd	a7, 0x10(s1)
   16080: 94 e4        	sd	a3, 0x8(s1)
   16082: 4a 85        	mv	a0, s2
   16084: 98 e3        	sd	a4, 0x0(a5)
   16086: ef 00 80 28  	jal	0x1630e <__malloc_unlock>
   1608a: 13 05 04 01  	addi	a0, s0, 0x10
   1608e: 99 b3        	j	0x15dd4 <_malloc_r+0x1bc>
   16090: 93 d5 34 00  	srli	a1, s1, 0x3
   16094: 9b 87 15 00  	addiw	a5, a1, 0x1
   16098: 9b 97 17 00  	slliw	a5, a5, 0x1
   1609c: 8e 07        	slli	a5, a5, 0x3
   1609e: 81 25        	sext.w	a1, a1
   160a0: 55 b6        	j	0x15c44 <_malloc_r+0x2c>
   160a2: 13 d7 67 00  	srli	a4, a5, 0x6
   160a6: 1b 06 97 03  	addiw	a2, a4, 0x39
   160aa: 1b 16 16 00  	slliw	a2, a2, 0x1
   160ae: 0e 06        	slli	a2, a2, 0x3
   160b0: 9b 06 87 03  	addiw	a3, a4, 0x38
   160b4: 39 b7        	j	0x15fc2 <_malloc_r+0x3aa>
   160b6: 9b 85 c7 05  	addiw	a1, a5, 0x5c
   160ba: 1b 96 15 00  	slliw	a2, a1, 0x1
   160be: 1b 88 b7 05  	addiw	a6, a5, 0x5b
   160c2: 0e 06        	slli	a2, a2, 0x3
   160c4: 01 b1        	j	0x15cc4 <_malloc_r+0xac>
   160c6: 83 37 03 01  	ld	a5, 0x10(t1)
   160ca: fd 35        	addiw	a1, a1, -0x1
   160cc: 63 9a 67 18  	bne	a5, t1, 0x16260 <_malloc_r+0x648>
   160d0: 93 f7 35 00  	andi	a5, a1, 0x3
   160d4: 41 13        	addi	t1, t1, -0x10
   160d6: e5 fb        	bnez	a5, 0x160c6 <_malloc_r+0x4ae>
   160d8: 03 b7 89 00  	ld	a4, 0x8(s3)
   160dc: 93 47 f6 ff  	not	a5, a2
   160e0: f9 8f        	and	a5, a5, a4
   160e2: 23 b4 f9 00  	sd	a5, 0x8(s3)
   160e6: 06 06        	slli	a2, a2, 0x1
   160e8: e3 e4 c7 d0  	bltu	a5, a2, 0x15df0 <_malloc_r+0x1d8>
   160ec: e3 02 06 d0  	beqz	a2, 0x15df0 <_malloc_r+0x1d8>
   160f0: 33 77 f6 00  	and	a4, a2, a5
   160f4: 11 e7        	bnez	a4, 0x16100 <_malloc_r+0x4e8>
   160f6: 06 06        	slli	a2, a2, 0x1
   160f8: 33 77 f6 00  	and	a4, a2, a5
   160fc: 11 2e        	addiw	t3, t3, 0x4
   160fe: 65 df        	beqz	a4, 0x160f6 <_malloc_r+0x4de>
   16100: f2 85        	mv	a1, t3
   16102: 49 b1        	j	0x15d84 <_malloc_r+0x16c>
   16104: 93 05 04 01  	addi	a1, s0, 0x10
   16108: 4a 85        	mv	a0, s2
   1610a: ef d0 4f a9  	jal	0x1339e <_free_r>
   1610e: 17 b7 00 00  	auipc	a4, 0xb
   16112: 03 27 a7 37  	lw	a4, 0x37a(a4)
   16116: 03 bb 09 01  	ld	s6, 0x10(s3)
   1611a: c5 b3        	j	0x15efa <_malloc_r+0x2e2>
   1611c: 13 0a 0a 02  	addi	s4, s4, 0x20
   16120: 19 bb        	j	0x15e36 <_malloc_r+0x21e>
   16122: 9b d6 26 40  	sraiw	a3, a3, 0x2
   16126: 85 47        	li	a5, 0x1
   16128: b3 97 d7 00  	sll	a5, a5, a3
   1612c: 5d 8d        	or	a0, a0, a5
   1612e: 23 b4 a9 00  	sd	a0, 0x8(s3)
   16132: 75 b5        	j	0x15fde <_malloc_r+0x3c6>
   16134: b3 0b 4b 01  	add	s7, s6, s4
   16138: b3 0b 70 41  	neg	s7, s7
   1613c: d2 1b        	slli	s7, s7, 0x34
   1613e: 93 db 4b 03  	srli	s7, s7, 0x34
   16142: de 85        	mv	a1, s7
   16144: 4a 85        	mv	a0, s2
   16146: ef 10 60 07  	jal	0x171bc <_sbrk_r>
   1614a: fd 57        	li	a5, -0x1
   1614c: 81 46        	li	a3, 0x0
   1614e: e3 10 f5 d6  	bne	a0, a5, 0x15eae <_malloc_r+0x296>
   16152: a5 b3        	j	0x15eba <_malloc_r+0x2a2>
   16154: a2 6c        	ld	s9, 0x8(sp)
   16156: 85 47        	li	a5, 0x1
   16158: 23 34 fb 00  	sd	a5, 0x8(s6)
   1615c: 4a 85        	mv	a0, s2
   1615e: ef 00 00 1b  	jal	0x1630e <__malloc_unlock>
   16162: 42 7a        	ld	s4, 0x30(sp)
   16164: a2 7a        	ld	s5, 0x28(sp)
   16166: 02 7b        	ld	s6, 0x20(sp)
   16168: e2 6b        	ld	s7, 0x18(sp)
   1616a: 42 6c        	ld	s8, 0x10(sp)
   1616c: 9d b1        	j	0x15dd2 <_malloc_r+0x1ba>
   1616e: 93 06 40 05  	li	a3, 0x54
   16172: 63 eb e6 06  	bltu	a3, a4, 0x161e8 <_malloc_r+0x5d0>
   16176: 13 d7 c7 00  	srli	a4, a5, 0xc
   1617a: 1b 06 f7 06  	addiw	a2, a4, 0x6f
   1617e: 1b 16 16 00  	slliw	a2, a2, 0x1
   16182: 0e 06        	slli	a2, a2, 0x3
   16184: 9b 06 e7 06  	addiw	a3, a4, 0x6e
   16188: 2d bd        	j	0x15fc2 <_malloc_r+0x3aa>
   1618a: 13 07 40 15  	li	a4, 0x154
   1618e: 63 6b f7 06  	bltu	a4, a5, 0x16204 <_malloc_r+0x5ec>
   16192: 93 d7 f4 00  	srli	a5, s1, 0xf
   16196: 9b 85 87 07  	addiw	a1, a5, 0x78
   1619a: 1b 96 15 00  	slliw	a2, a1, 0x1
   1619e: 1b 88 77 07  	addiw	a6, a5, 0x77
   161a2: 0e 06        	slli	a2, a2, 0x3
   161a4: 05 b6        	j	0x15cc4 <_malloc_r+0xac>
   161a6: 97 b6 00 00  	auipc	a3, 0xb
   161aa: 83 a6 26 2e  	lw	a3, 0x2e2(a3)
   161ae: 97 bc 00 00  	auipc	s9, 0xb
   161b2: 93 8c ac 2d  	addi	s9, s9, 0x2da
   161b6: bb 86 46 01  	addw	a3, a3, s4
   161ba: 23 a0 dc 00  	sw	a3, 0x0(s9)
   161be: 75 b1        	j	0x15e6a <_malloc_r+0x252>
   161c0: 03 b4 09 01  	ld	s0, 0x10(s3)
   161c4: 1c 64        	ld	a5, 0x8(s0)
   161c6: 8d b3        	j	0x15f28 <_malloc_r+0x310>
   161c8: 93 17 45 03  	slli	a5, a0, 0x34
   161cc: e3 9f 07 c8  	bnez	a5, 0x15e6a <_malloc_r+0x252>
   161d0: 03 bb 09 01  	ld	s6, 0x10(s3)
   161d4: b3 87 4a 01  	add	a5, s5, s4
   161d8: 93 e7 17 00  	ori	a5, a5, 0x1
   161dc: 23 34 fb 00  	sd	a5, 0x8(s6)
   161e0: 39 bb        	j	0x15efe <_malloc_r+0x2e6>
   161e2: 23 30 6c 01  	sd	s6, 0x0(s8)
   161e6: 61 b9        	j	0x15e7e <_malloc_r+0x266>
   161e8: 93 06 40 15  	li	a3, 0x154
   161ec: 63 e0 e6 04  	bltu	a3, a4, 0x1622c <_malloc_r+0x614>
   161f0: 13 d7 f7 00  	srli	a4, a5, 0xf
   161f4: 1b 06 87 07  	addiw	a2, a4, 0x78
   161f8: 1b 16 16 00  	slliw	a2, a2, 0x1
   161fc: 0e 06        	slli	a2, a2, 0x3
   161fe: 9b 06 77 07  	addiw	a3, a4, 0x77
   16202: c1 b3        	j	0x15fc2 <_malloc_r+0x3aa>
   16204: 13 07 40 55  	li	a4, 0x554
   16208: 63 60 f7 04  	bltu	a4, a5, 0x16248 <_malloc_r+0x630>
   1620c: 93 d7 24 01  	srli	a5, s1, 0x12
   16210: 9b 85 d7 07  	addiw	a1, a5, 0x7d
   16214: 1b 96 15 00  	slliw	a2, a1, 0x1
   16218: 1b 88 c7 07  	addiw	a6, a5, 0x7c
   1621c: 0e 06        	slli	a2, a2, 0x3
   1621e: 5d b4        	j	0x15cc4 <_malloc_r+0xac>
   16220: 41 1c        	addi	s8, s8, -0x10
   16222: 62 9a        	add	s4, s4, s8
   16224: 33 0a 6a 41  	sub	s4, s4, s6
   16228: 81 46        	li	a3, 0x0
   1622a: 41 b9        	j	0x15eba <_malloc_r+0x2a2>
   1622c: 93 06 40 55  	li	a3, 0x554
   16230: 63 e3 e6 02  	bltu	a3, a4, 0x16256 <_malloc_r+0x63e>
   16234: 13 d7 27 01  	srli	a4, a5, 0x12
   16238: 1b 06 d7 07  	addiw	a2, a4, 0x7d
   1623c: 1b 16 16 00  	slliw	a2, a2, 0x1
   16240: 0e 06        	slli	a2, a2, 0x3
   16242: 9b 06 c7 07  	addiw	a3, a4, 0x7c
   16246: b5 bb        	j	0x15fc2 <_malloc_r+0x3aa>
   16248: 13 06 00 7f  	li	a2, 0x7f0
   1624c: 93 05 f0 07  	li	a1, 0x7f
   16250: 13 08 e0 07  	li	a6, 0x7e
   16254: 85 bc        	j	0x15cc4 <_malloc_r+0xac>
   16256: 13 06 00 7f  	li	a2, 0x7f0
   1625a: 93 06 e0 07  	li	a3, 0x7e
   1625e: 95 b3        	j	0x15fc2 <_malloc_r+0x3aa>
   16260: 83 b7 89 00  	ld	a5, 0x8(s3)
   16264: 49 b5        	j	0x160e6 <_malloc_r+0x4ce>

0000000000016266 <memchr>:
   16266: 13 77 75 00  	andi	a4, a0, 0x7
   1626a: aa 87        	mv	a5, a0
   1626c: 93 f8 f5 0f  	andi	a7, a1, 0xff
   16270: 2a 83        	mv	t1, a0
   16272: 0d c7        	beqz	a4, 0x1629c <memchr+0x36>
   16274: 33 08 c5 00  	add	a6, a0, a2
   16278: 39 a0        	j	0x16286 <memchr+0x20>
   1627a: 83 c6 07 00  	lbu	a3, 0x0(a5)
   1627e: 63 82 16 09  	beq	a3, a7, 0x16302 <memchr+0x9c>
   16282: 11 cb        	beqz	a4, 0x16296 <memchr+0x30>
   16284: aa 87        	mv	a5, a0
   16286: 13 85 17 00  	addi	a0, a5, 0x1
   1628a: 13 77 75 00  	andi	a4, a0, 0x7
   1628e: e3 16 f8 fe  	bne	a6, a5, 0x1627a <memchr+0x14>
   16292: 01 45        	li	a0, 0x0
   16294: 82 80        	ret
   16296: 7d 16        	addi	a2, a2, -0x1
   16298: 1a 96        	add	a2, a2, t1
   1629a: 1d 8e        	sub	a2, a2, a5
   1629c: 9d 47        	li	a5, 0x7
   1629e: 63 f7 c7 04  	bgeu	a5, a2, 0x162ec <memchr+0x86>
   162a2: 93 f5 f5 0f  	andi	a1, a1, 0xff
   162a6: 1b 97 85 00  	slliw	a4, a1, 0x8
   162aa: ba 95        	add	a1, a1, a4
   162ac: 93 96 05 01  	slli	a3, a1, 0x10
   162b0: 37 07 ff fe  	lui	a4, 0xfeff0
   162b4: ae 96        	add	a3, a3, a1
   162b6: 13 07 f7 ef  	addi	a4, a4, -0x101
   162ba: 17 b3 00 00  	auipc	t1, 0xb
   162be: 03 33 e3 0b  	ld	t1, 0xbe(t1)
   162c2: 13 9e 06 02  	slli	t3, a3, 0x20
   162c6: 13 18 07 02  	slli	a6, a4, 0x20
   162ca: be 85        	mv	a1, a5
   162cc: f2 96        	add	a3, a3, t3
   162ce: 3a 98        	add	a6, a6, a4
   162d0: 1c 61        	ld	a5, 0x0(a0)
   162d2: b5 8f        	xor	a5, a5, a3
   162d4: 33 87 07 01  	add	a4, a5, a6
   162d8: 93 c7 f7 ff  	not	a5, a5
   162dc: f9 8f        	and	a5, a5, a4
   162de: b3 f7 67 00  	and	a5, a5, t1
   162e2: 91 e7        	bnez	a5, 0x162ee <memchr+0x88>
   162e4: 61 16        	addi	a2, a2, -0x8
   162e6: 21 05        	addi	a0, a0, 0x8
   162e8: e3 e4 c5 fe  	bltu	a1, a2, 0x162d0 <memchr+0x6a>
   162ec: 5d d2        	beqz	a2, 0x16292 <memchr+0x2c>
   162ee: 2a 96        	add	a2, a2, a0
   162f0: 21 a0        	j	0x162f8 <memchr+0x92>
   162f2: 05 05        	addi	a0, a0, 0x1
   162f4: e3 0f c5 f8  	beq	a0, a2, 0x16292 <memchr+0x2c>
   162f8: 83 47 05 00  	lbu	a5, 0x0(a0)
   162fc: e3 9b 17 ff  	bne	a5, a7, 0x162f2 <memchr+0x8c>
   16300: 82 80        	ret
   16302: 3e 85        	mv	a0, a5
   16304: 82 80        	ret

0000000000016306 <__malloc_lock>:
   16306: 13 85 81 74  	addi	a0, gp, 0x748
   1630a: 6f f0 6f f6  	j	0x15a70 <__retarget_lock_acquire_recursive>

000000000001630e <__malloc_unlock>:
   1630e: 13 85 81 74  	addi	a0, gp, 0x748
   16312: 6f f0 af f6  	j	0x15a7c <__retarget_lock_release_recursive>

0000000000016316 <_Balloc>:
   16316: 3c 7d        	ld	a5, 0x78(a0)
   16318: 01 11        	addi	sp, sp, -0x20
   1631a: 22 e8        	sd	s0, 0x10(sp)
   1631c: 26 e4        	sd	s1, 0x8(sp)
   1631e: 06 ec        	sd	ra, 0x18(sp)
   16320: 2a 84        	mv	s0, a0
   16322: ae 84        	mv	s1, a1
   16324: 99 cf        	beqz	a5, 0x16342 <_Balloc+0x2c>
   16326: 13 97 34 00  	slli	a4, s1, 0x3
   1632a: ba 97        	add	a5, a5, a4
   1632c: 88 63        	ld	a0, 0x0(a5)
   1632e: 05 c5        	beqz	a0, 0x16356 <_Balloc+0x40>
   16330: 18 61        	ld	a4, 0x0(a0)
   16332: 98 e3        	sd	a4, 0x0(a5)
   16334: 23 38 05 00  	sd	zero, 0x10(a0)
   16338: e2 60        	ld	ra, 0x18(sp)
   1633a: 42 64        	ld	s0, 0x10(sp)
   1633c: a2 64        	ld	s1, 0x8(sp)
   1633e: 05 61        	addi	sp, sp, 0x20
   16340: 82 80        	ret
   16342: 13 06 10 04  	li	a2, 0x41
   16346: a1 45        	li	a1, 0x8
   16348: ef 40 00 4d  	jal	0x1a818 <_calloc_r>
   1634c: 28 fc        	sd	a0, 0x78(s0)
   1634e: aa 87        	mv	a5, a0
   16350: 79 f9        	bnez	a0, 0x16326 <_Balloc+0x10>
   16352: 01 45        	li	a0, 0x0
   16354: d5 b7        	j	0x16338 <_Balloc+0x22>
   16356: 4a e0        	sd	s2, 0x0(sp)
   16358: 05 49        	li	s2, 0x1
   1635a: 3b 19 99 00  	sllw	s2, s2, s1
   1635e: 13 06 79 00  	addi	a2, s2, 0x7
   16362: 22 85        	mv	a0, s0
   16364: 0a 06        	slli	a2, a2, 0x2
   16366: 85 45        	li	a1, 0x1
   16368: ef 40 00 4b  	jal	0x1a818 <_calloc_r>
   1636c: 11 c5        	beqz	a0, 0x16378 <_Balloc+0x62>
   1636e: 23 26 25 01  	sw	s2, 0xc(a0)
   16372: 04 c5        	sw	s1, 0x8(a0)
   16374: 02 69        	ld	s2, 0x0(sp)
   16376: 7d bf        	j	0x16334 <_Balloc+0x1e>
   16378: 02 69        	ld	s2, 0x0(sp)
   1637a: 01 45        	li	a0, 0x0
   1637c: 75 bf        	j	0x16338 <_Balloc+0x22>

000000000001637e <_Bfree>:
   1637e: 81 c9        	beqz	a1, 0x1638e <_Bfree+0x10>
   16380: 98 45        	lw	a4, 0x8(a1)
   16382: 3c 7d        	ld	a5, 0x78(a0)
   16384: 0e 07        	slli	a4, a4, 0x3
   16386: ba 97        	add	a5, a5, a4
   16388: 98 63        	ld	a4, 0x0(a5)
   1638a: 98 e1        	sd	a4, 0x0(a1)
   1638c: 8c e3        	sd	a1, 0x0(a5)
   1638e: 82 80        	ret

0000000000016390 <__multadd>:
   16390: 79 71        	addi	sp, sp, -0x30
   16392: 26 ec        	sd	s1, 0x18(sp)
   16394: c4 49        	lw	s1, 0x14(a1)
   16396: 22 f0        	sd	s0, 0x20(sp)
   16398: 4a e8        	sd	s2, 0x10(sp)
   1639a: 4e e4        	sd	s3, 0x8(sp)
   1639c: 06 f4        	sd	ra, 0x28(sp)
   1639e: 2e 89        	mv	s2, a1
   163a0: aa 89        	mv	s3, a0
   163a2: 36 84        	mv	s0, a3
   163a4: 13 88 85 01  	addi	a6, a1, 0x18
   163a8: 81 48        	li	a7, 0x0
   163aa: 83 27 08 00  	lw	a5, 0x0(a6)
   163ae: 11 08        	addi	a6, a6, 0x4
   163b0: 85 28        	addiw	a7, a7, 0x1
   163b2: 93 96 07 03  	slli	a3, a5, 0x30
   163b6: c1 92        	srli	a3, a3, 0x30
   163b8: bb 86 c6 02  	mulw	a3, a3, a2
   163bc: 9b d7 07 01  	srliw	a5, a5, 0x10
   163c0: bb 87 c7 02  	mulw	a5, a5, a2
   163c4: a1 9e        	addw	a3, a3, s0
   163c6: 1b d7 06 01  	srliw	a4, a3, 0x10
   163ca: c2 16        	slli	a3, a3, 0x30
   163cc: c1 92        	srli	a3, a3, 0x30
   163ce: b9 9f        	addw	a5, a5, a4
   163d0: 1b 97 07 01  	slliw	a4, a5, 0x10
   163d4: 35 9f        	addw	a4, a4, a3
   163d6: 23 2e e8 fe  	sw	a4, -0x4(a6)
   163da: 1b d4 07 01  	srliw	s0, a5, 0x10
   163de: e3 c6 98 fc  	blt	a7, s1, 0x163aa <__multadd+0x1a>
   163e2: 09 cc        	beqz	s0, 0x163fc <__multadd+0x6c>
   163e4: 83 27 c9 00  	lw	a5, 0xc(s2)
   163e8: 63 d2 f4 02  	bge	s1, a5, 0x1640c <__multadd+0x7c>
   163ec: 13 97 24 00  	slli	a4, s1, 0x2
   163f0: 4a 97        	add	a4, a4, s2
   163f2: 00 cf        	sw	s0, 0x18(a4)
   163f4: 9b 87 14 00  	addiw	a5, s1, 0x1
   163f8: 23 2a f9 00  	sw	a5, 0x14(s2)
   163fc: a2 70        	ld	ra, 0x28(sp)
   163fe: 02 74        	ld	s0, 0x20(sp)
   16400: e2 64        	ld	s1, 0x18(sp)
   16402: a2 69        	ld	s3, 0x8(sp)
   16404: 4a 85        	mv	a0, s2
   16406: 42 69        	ld	s2, 0x10(sp)
   16408: 45 61        	addi	sp, sp, 0x30
   1640a: 82 80        	ret
   1640c: 83 25 89 00  	lw	a1, 0x8(s2)
   16410: 4e 85        	mv	a0, s3
   16412: 52 e0        	sd	s4, 0x0(sp)
   16414: 85 25        	addiw	a1, a1, 0x1
   16416: ef f0 1f f0  	jal	0x16316 <_Balloc>
   1641a: 2a 8a        	mv	s4, a0
   1641c: 21 c1        	beqz	a0, 0x1645c <__multadd+0xcc>
   1641e: 03 26 49 01  	lw	a2, 0x14(s2)
   16422: 93 05 09 01  	addi	a1, s2, 0x10
   16426: 41 05        	addi	a0, a0, 0x10
   16428: 09 06        	addi	a2, a2, 0x2
   1642a: 0a 06        	slli	a2, a2, 0x2
   1642c: ef 40 d0 4b  	jal	0x1b0e8 <memcpy>
   16430: 03 27 89 00  	lw	a4, 0x8(s2)
   16434: 83 b7 89 07  	ld	a5, 0x78(s3)
   16438: 0e 07        	slli	a4, a4, 0x3
   1643a: ba 97        	add	a5, a5, a4
   1643c: 98 63        	ld	a4, 0x0(a5)
   1643e: 23 30 e9 00  	sd	a4, 0x0(s2)
   16442: 23 b0 27 01  	sd	s2, 0x0(a5)
   16446: 13 97 24 00  	slli	a4, s1, 0x2
   1644a: 52 89        	mv	s2, s4
   1644c: 4a 97        	add	a4, a4, s2
   1644e: 02 6a        	ld	s4, 0x0(sp)
   16450: 9b 87 14 00  	addiw	a5, s1, 0x1
   16454: 00 cf        	sw	s0, 0x18(a4)
   16456: 23 2a f9 00  	sw	a5, 0x14(s2)
   1645a: 4d b7        	j	0x163fc <__multadd+0x6c>
   1645c: 97 86 00 00  	auipc	a3, 0x8
   16460: 93 86 c6 0b  	addi	a3, a3, 0xbc
   16464: 01 46        	li	a2, 0x0
   16466: 93 05 50 0b  	li	a1, 0xb5
   1646a: 17 85 00 00  	auipc	a0, 0x8
   1646e: 13 05 65 0c  	addi	a0, a0, 0xc6
   16472: ef 40 00 36  	jal	0x1a7d2 <__assert_func>

0000000000016476 <__s2b>:
   16476: 39 71        	addi	sp, sp, -0x40
   16478: 4e ec        	sd	s3, 0x18(sp)
   1647a: b6 89        	mv	s3, a3
   1647c: b7 96 e3 38  	lui	a3, 0x38e39
   16480: 9b 87 89 00  	addiw	a5, s3, 0x8
   16484: 93 86 96 e3  	addi	a3, a3, -0x1c7
   16488: b3 86 d7 02  	mul	a3, a5, a3
   1648c: 22 f8        	sd	s0, 0x30(sp)
   1648e: 26 f4        	sd	s1, 0x28(sp)
   16490: 4a f0        	sd	s2, 0x20(sp)
   16492: 52 e8        	sd	s4, 0x10(sp)
   16494: 2e 84        	mv	s0, a1
   16496: 9b d7 f7 41  	sraiw	a5, a5, 0x1f
   1649a: 06 fc        	sd	ra, 0x38(sp)
   1649c: a5 45        	li	a1, 0x9
   1649e: 2a 89        	mv	s2, a0
   164a0: 85 96        	srai	a3, a3, 0x21
   164a2: 32 8a        	mv	s4, a2
   164a4: ba 84        	mv	s1, a4
   164a6: 9d 9e        	subw	a3, a3, a5
   164a8: 63 d2 35 0b  	bge	a1, s3, 0x1654c <__s2b+0xd6>
   164ac: 85 47        	li	a5, 0x1
   164ae: 81 45        	li	a1, 0x0
   164b0: 9b 97 17 00  	slliw	a5, a5, 0x1
   164b4: 85 25        	addiw	a1, a1, 0x1
   164b6: e3 cd d7 fe  	blt	a5, a3, 0x164b0 <__s2b+0x3a>
   164ba: 4a 85        	mv	a0, s2
   164bc: ef f0 bf e5  	jal	0x16316 <_Balloc>
   164c0: aa 85        	mv	a1, a0
   164c2: 59 c5        	beqz	a0, 0x16550 <__s2b+0xda>
   164c4: 85 47        	li	a5, 0x1
   164c6: 5c c9        	sw	a5, 0x14(a0)
   164c8: 04 cd        	sw	s1, 0x18(a0)
   164ca: a5 47        	li	a5, 0x9
   164cc: 63 dd 47 07  	bge	a5, s4, 0x16546 <__s2b+0xd0>
   164d0: 56 e4        	sd	s5, 0x8(sp)
   164d2: 93 17 0a 02  	slli	a5, s4, 0x20
   164d6: 9b 0a 6a ff  	addiw	s5, s4, -0xa
   164da: 5a e0        	sd	s6, 0x0(sp)
   164dc: 81 93        	srli	a5, a5, 0x20
   164de: 13 0b 94 00  	addi	s6, s0, 0x9
   164e2: 82 1a        	slli	s5, s5, 0x20
   164e4: 93 da 0a 02  	srli	s5, s5, 0x20
   164e8: 3e 94        	add	s0, s0, a5
   164ea: da 84        	mv	s1, s6
   164ec: 83 c6 04 00  	lbu	a3, 0x0(s1)
   164f0: 29 46        	li	a2, 0xa
   164f2: 4a 85        	mv	a0, s2
   164f4: 9b 86 06 fd  	addiw	a3, a3, -0x30
   164f8: 85 04        	addi	s1, s1, 0x1
   164fa: ef f0 7f e9  	jal	0x16390 <__multadd>
   164fe: aa 85        	mv	a1, a0
   16500: e3 96 84 fe  	bne	s1, s0, 0x164ec <__s2b+0x76>
   16504: 56 9b        	add	s6, s6, s5
   16506: 13 04 2b 00  	addi	s0, s6, 0x2
   1650a: a2 6a        	ld	s5, 0x8(sp)
   1650c: 02 6b        	ld	s6, 0x0(sp)
   1650e: 63 53 3a 03  	bge	s4, s3, 0x16534 <__s2b+0xbe>
   16512: bb 84 49 41  	subw	s1, s3, s4
   16516: 82 14        	slli	s1, s1, 0x20
   16518: 81 90        	srli	s1, s1, 0x20
   1651a: a2 94        	add	s1, s1, s0
   1651c: 83 46 04 00  	lbu	a3, 0x0(s0)
   16520: 29 46        	li	a2, 0xa
   16522: 4a 85        	mv	a0, s2
   16524: 9b 86 06 fd  	addiw	a3, a3, -0x30
   16528: 05 04        	addi	s0, s0, 0x1
   1652a: ef f0 7f e6  	jal	0x16390 <__multadd>
   1652e: aa 85        	mv	a1, a0
   16530: e3 16 94 fe  	bne	s0, s1, 0x1651c <__s2b+0xa6>
   16534: e2 70        	ld	ra, 0x38(sp)
   16536: 42 74        	ld	s0, 0x30(sp)
   16538: a2 74        	ld	s1, 0x28(sp)
   1653a: 02 79        	ld	s2, 0x20(sp)
   1653c: e2 69        	ld	s3, 0x18(sp)
   1653e: 42 6a        	ld	s4, 0x10(sp)
   16540: 2e 85        	mv	a0, a1
   16542: 21 61        	addi	sp, sp, 0x40
   16544: 82 80        	ret
   16546: 29 04        	addi	s0, s0, 0xa
   16548: 3e 8a        	mv	s4, a5
   1654a: d1 b7        	j	0x1650e <__s2b+0x98>
   1654c: 81 45        	li	a1, 0x0
   1654e: b5 b7        	j	0x164ba <__s2b+0x44>
   16550: 97 86 00 00  	auipc	a3, 0x8
   16554: 93 86 86 fc  	addi	a3, a3, -0x38
   16558: 01 46        	li	a2, 0x0
   1655a: 93 05 e0 0c  	li	a1, 0xce
   1655e: 17 85 00 00  	auipc	a0, 0x8
   16562: 13 05 25 fd  	addi	a0, a0, -0x2e
   16566: 56 e4        	sd	s5, 0x8(sp)
   16568: 5a e0        	sd	s6, 0x0(sp)
   1656a: ef 40 80 26  	jal	0x1a7d2 <__assert_func>

000000000001656e <__hi0bits>:
   1656e: aa 87        	mv	a5, a0
   16570: 41 67        	lui	a4, 0x10
   16572: 01 45        	li	a0, 0x0
   16574: 63 f5 e7 00  	bgeu	a5, a4, 0x1657e <__hi0bits+0x10>
   16578: 9b 97 07 01  	slliw	a5, a5, 0x10
   1657c: 41 45        	li	a0, 0x10
   1657e: 37 07 00 01  	lui	a4, 0x1000
   16582: 63 f5 e7 00  	bgeu	a5, a4, 0x1658c <__hi0bits+0x1e>
   16586: 21 25        	addiw	a0, a0, 0x8
   16588: 9b 97 87 00  	slliw	a5, a5, 0x8
   1658c: 37 07 00 10  	lui	a4, 0x10000
   16590: 63 ec e7 00  	bltu	a5, a4, 0x165a8 <__hi0bits+0x3a>
   16594: 37 07 00 40  	lui	a4, 0x40000
   16598: 63 f8 e7 02  	bgeu	a5, a4, 0x165c8 <__hi0bits+0x5a>
   1659c: 13 97 27 02  	slli	a4, a5, 0x22
   165a0: 63 49 07 02  	bltz	a4, 0x165d2 <__hi0bits+0x64>
   165a4: 0d 25        	addiw	a0, a0, 0x3
   165a6: 82 80        	ret
   165a8: 1b 97 47 00  	slliw	a4, a5, 0x4
   165ac: b7 06 00 40  	lui	a3, 0x40000
   165b0: 11 25        	addiw	a0, a0, 0x4
   165b2: 63 7c d7 00  	bgeu	a4, a3, 0x165ca <__hi0bits+0x5c>
   165b6: 9b 97 67 00  	slliw	a5, a5, 0x6
   165ba: 63 cc 07 00  	bltz	a5, 0x165d2 <__hi0bits+0x64>
   165be: f5 8f        	and	a5, a5, a3
   165c0: f5 f3        	bnez	a5, 0x165a4 <__hi0bits+0x36>
   165c2: 13 05 00 02  	li	a0, 0x20
   165c6: 82 80        	ret
   165c8: 3e 87        	mv	a4, a5
   165ca: e3 4e 07 fe  	bltz	a4, 0x165c6 <__hi0bits+0x58>
   165ce: 05 25        	addiw	a0, a0, 0x1
   165d0: 82 80        	ret
   165d2: 09 25        	addiw	a0, a0, 0x2
   165d4: 82 80        	ret

00000000000165d6 <__lo0bits>:
   165d6: 1c 41        	lw	a5, 0x0(a0)
   165d8: 2a 87        	mv	a4, a0
   165da: 93 f6 77 00  	andi	a3, a5, 0x7
   165de: 3e 86        	mv	a2, a5
   165e0: 9d c2        	beqz	a3, 0x16606 <__lo0bits+0x30>
   165e2: 93 f6 17 00  	andi	a3, a5, 0x1
   165e6: 01 45        	li	a0, 0x0
   165e8: 91 ee        	bnez	a3, 0x16604 <__lo0bits+0x2e>
   165ea: 93 f6 27 00  	andi	a3, a5, 0x2
   165ee: d1 c2        	beqz	a3, 0x16672 <__lo0bits+0x9c>
   165f0: 9b d7 17 00  	srliw	a5, a5, 0x1
   165f4: 1c c3        	sw	a5, 0x0(a4)
   165f6: 05 45        	li	a0, 0x1
   165f8: 82 80        	ret
   165fa: 9b d7 37 00  	srliw	a5, a5, 0x3
   165fe: d9 e3        	bnez	a5, 0x16684 <__lo0bits+0xae>
   16600: 13 05 00 02  	li	a0, 0x20
   16604: 82 80        	ret
   16606: 93 96 07 03  	slli	a3, a5, 0x30
   1660a: c1 92        	srli	a3, a3, 0x30
   1660c: 85 ea        	bnez	a3, 0x1663c <__lo0bits+0x66>
   1660e: 9b d7 07 01  	srliw	a5, a5, 0x10
   16612: 93 f6 f7 0f  	andi	a3, a5, 0xff
   16616: 41 45        	li	a0, 0x10
   16618: 81 e6        	bnez	a3, 0x16620 <__lo0bits+0x4a>
   1661a: 61 45        	li	a0, 0x18
   1661c: 9b d7 87 00  	srliw	a5, a5, 0x8
   16620: 93 f6 f7 00  	andi	a3, a5, 0xf
   16624: 9d ce        	beqz	a3, 0x16662 <__lo0bits+0x8c>
   16626: 93 f6 37 00  	andi	a3, a5, 0x3
   1662a: 85 c6        	beqz	a3, 0x16652 <__lo0bits+0x7c>
   1662c: 93 f6 17 00  	andi	a3, a5, 0x1
   16630: 81 e6        	bnez	a3, 0x16638 <__lo0bits+0x62>
   16632: 05 25        	addiw	a0, a0, 0x1
   16634: 9b d7 17 00  	srliw	a5, a5, 0x1
   16638: 1c c3        	sw	a5, 0x0(a4)
   1663a: 82 80        	ret
   1663c: 93 f6 f7 0f  	andi	a3, a5, 0xff
   16640: 8d c6        	beqz	a3, 0x1666a <__lo0bits+0x94>
   16642: 3d 8a        	andi	a2, a2, 0xf
   16644: 05 ee        	bnez	a2, 0x1667c <__lo0bits+0xa6>
   16646: 11 45        	li	a0, 0x4
   16648: 9b d7 47 00  	srliw	a5, a5, 0x4
   1664c: 93 f6 37 00  	andi	a3, a5, 0x3
   16650: f1 fe        	bnez	a3, 0x1662c <__lo0bits+0x56>
   16652: 9b d6 27 00  	srliw	a3, a5, 0x2
   16656: 13 f6 16 00  	andi	a2, a3, 0x1
   1665a: 45 d2        	beqz	a2, 0x165fa <__lo0bits+0x24>
   1665c: 09 25        	addiw	a0, a0, 0x2
   1665e: b6 87        	mv	a5, a3
   16660: e1 bf        	j	0x16638 <__lo0bits+0x62>
   16662: 11 25        	addiw	a0, a0, 0x4
   16664: 9b d7 47 00  	srliw	a5, a5, 0x4
   16668: d5 b7        	j	0x1664c <__lo0bits+0x76>
   1666a: 21 45        	li	a0, 0x8
   1666c: 9b d7 87 00  	srliw	a5, a5, 0x8
   16670: 45 bf        	j	0x16620 <__lo0bits+0x4a>
   16672: 9b d7 27 00  	srliw	a5, a5, 0x2
   16676: 1c c3        	sw	a5, 0x0(a4)
   16678: 09 45        	li	a0, 0x2
   1667a: 82 80        	ret
   1667c: 9b d7 37 00  	srliw	a5, a5, 0x3
   16680: 0d 45        	li	a0, 0x3
   16682: 5d bf        	j	0x16638 <__lo0bits+0x62>
   16684: 0d 25        	addiw	a0, a0, 0x3
   16686: 4d bf        	j	0x16638 <__lo0bits+0x62>

0000000000016688 <__i2b>:
   16688: 3c 7d        	ld	a5, 0x78(a0)
   1668a: 01 11        	addi	sp, sp, -0x20
   1668c: 22 e8        	sd	s0, 0x10(sp)
   1668e: 26 e4        	sd	s1, 0x8(sp)
   16690: 06 ec        	sd	ra, 0x18(sp)
   16692: 2a 84        	mv	s0, a0
   16694: ae 84        	mv	s1, a1
   16696: 91 cf        	beqz	a5, 0x166b2 <__i2b+0x2a>
   16698: 88 67        	ld	a0, 0x8(a5)
   1669a: 29 c1        	beqz	a0, 0x166dc <__i2b+0x54>
   1669c: 18 61        	ld	a4, 0x0(a0)
   1669e: 98 e7        	sd	a4, 0x8(a5)
   166a0: e2 60        	ld	ra, 0x18(sp)
   166a2: 42 64        	ld	s0, 0x10(sp)
   166a4: 85 47        	li	a5, 0x1
   166a6: 82 17        	slli	a5, a5, 0x20
   166a8: 04 cd        	sw	s1, 0x18(a0)
   166aa: 1c e9        	sd	a5, 0x10(a0)
   166ac: a2 64        	ld	s1, 0x8(sp)
   166ae: 05 61        	addi	sp, sp, 0x20
   166b0: 82 80        	ret
   166b2: 13 06 10 04  	li	a2, 0x41
   166b6: a1 45        	li	a1, 0x8
   166b8: ef 40 00 16  	jal	0x1a818 <_calloc_r>
   166bc: 28 fc        	sd	a0, 0x78(s0)
   166be: aa 87        	mv	a5, a0
   166c0: 61 fd        	bnez	a0, 0x16698 <__i2b+0x10>
   166c2: 97 86 00 00  	auipc	a3, 0x8
   166c6: 93 86 66 e5  	addi	a3, a3, -0x1aa
   166ca: 01 46        	li	a2, 0x0
   166cc: 93 05 00 14  	li	a1, 0x140
   166d0: 17 85 00 00  	auipc	a0, 0x8
   166d4: 13 05 05 e6  	addi	a0, a0, -0x1a0
   166d8: ef 40 a0 0f  	jal	0x1a7d2 <__assert_func>
   166dc: 22 85        	mv	a0, s0
   166de: 13 06 40 02  	li	a2, 0x24
   166e2: 85 45        	li	a1, 0x1
   166e4: ef 40 40 13  	jal	0x1a818 <_calloc_r>
   166e8: 69 dd        	beqz	a0, 0x166c2 <__i2b+0x3a>
   166ea: 85 47        	li	a5, 0x1
   166ec: 86 17        	slli	a5, a5, 0x21
   166ee: 85 07        	addi	a5, a5, 0x1
   166f0: 1c e5        	sd	a5, 0x8(a0)
   166f2: 7d b7        	j	0x166a0 <__i2b+0x18>

00000000000166f4 <__multiply>:
   166f4: 39 71        	addi	sp, sp, -0x40
   166f6: 4e ec        	sd	s3, 0x18(sp)
   166f8: 52 e8        	sd	s4, 0x10(sp)
   166fa: 83 a9 45 01  	lw	s3, 0x14(a1)
   166fe: 03 2a 46 01  	lw	s4, 0x14(a2)
   16702: 4a f0        	sd	s2, 0x20(sp)
   16704: 56 e4        	sd	s5, 0x8(sp)
   16706: 06 fc        	sd	ra, 0x38(sp)
   16708: 22 f8        	sd	s0, 0x30(sp)
   1670a: 26 f4        	sd	s1, 0x28(sp)
   1670c: ae 8a        	mv	s5, a1
   1670e: 32 89        	mv	s2, a2
   16710: 63 c7 49 01  	blt	s3, s4, 0x1671e <__multiply+0x2a>
   16714: 52 87        	mv	a4, s4
   16716: 2e 89        	mv	s2, a1
   16718: 4e 8a        	mv	s4, s3
   1671a: b2 8a        	mv	s5, a2
   1671c: ba 89        	mv	s3, a4
   1671e: 83 27 c9 00  	lw	a5, 0xc(s2)
   16722: bb 04 3a 01  	addw	s1, s4, s3
   16726: 83 25 89 00  	lw	a1, 0x8(s2)
   1672a: 26 84        	mv	s0, s1
   1672c: 63 d3 97 00  	bge	a5, s1, 0x16732 <__multiply+0x3e>
   16730: 85 25        	addiw	a1, a1, 0x1
   16732: ef f0 5f be  	jal	0x16316 <_Balloc>
   16736: 63 05 05 16  	beqz	a0, 0x168a0 <__multiply+0x1ac>
   1673a: 13 03 85 01  	addi	t1, a0, 0x18
   1673e: 93 98 24 00  	slli	a7, s1, 0x2
   16742: 9a 98        	add	a7, a7, t1
   16744: 9a 87        	mv	a5, t1
   16746: 63 77 13 01  	bgeu	t1, a7, 0x16754 <__multiply+0x60>
   1674a: 23 a0 07 00  	sw	zero, 0x0(a5)
   1674e: 91 07        	addi	a5, a5, 0x4
   16750: e3 ed 17 ff  	bltu	a5, a7, 0x1674a <__multiply+0x56>
   16754: 13 88 8a 01  	addi	a6, s5, 0x18
   16758: 13 9e 29 00  	slli	t3, s3, 0x2
   1675c: 93 15 2a 00  	slli	a1, s4, 0x2
   16760: 93 0e 89 01  	addi	t4, s2, 0x18
   16764: 42 9e        	add	t3, t3, a6
   16766: f6 95        	add	a1, a1, t4
   16768: 63 79 c8 11  	bgeu	a6, t3, 0x1687a <__multiply+0x186>
   1676c: 93 07 99 01  	addi	a5, s2, 0x19
   16770: 01 4f        	li	t5, 0x0
   16772: 63 e7 f5 02  	bltu	a1, a5, 0x167a0 <__multiply+0xac>
   16776: 83 2f 08 00  	lw	t6, 0x0(a6)
   1677a: 33 89 25 41  	sub	s2, a1, s2
   1677e: 1d 19        	addi	s2, s2, -0x19
   16780: 93 93 0f 03  	slli	t2, t6, 0x30
   16784: 93 d3 03 03  	srli	t2, t2, 0x30
   16788: 13 7f c9 ff  	andi	t5, s2, -0x4
   1678c: 63 92 03 02  	bnez	t2, 0x167b0 <__multiply+0xbc>
   16790: 9b df 0f 01  	srliw	t6, t6, 0x10
   16794: 63 91 0f 08  	bnez	t6, 0x16816 <__multiply+0x122>
   16798: 11 08        	addi	a6, a6, 0x4
   1679a: 11 03        	addi	t1, t1, 0x4
   1679c: 63 7f c8 0d  	bgeu	a6, t3, 0x1687a <__multiply+0x186>
   167a0: 83 2f 08 00  	lw	t6, 0x0(a6)
   167a4: 93 93 0f 03  	slli	t2, t6, 0x30
   167a8: 93 d3 03 03  	srli	t2, t2, 0x30
   167ac: e3 82 03 fe  	beqz	t2, 0x16790 <__multiply+0x9c>
   167b0: 9a 82        	mv	t0, t1
   167b2: f6 8f        	mv	t6, t4
   167b4: 01 47        	li	a4, 0x0
   167b6: 03 a6 0f 00  	lw	a2, 0x0(t6)
   167ba: 83 a6 02 00  	lw	a3, 0x0(t0)
   167be: 91 02        	addi	t0, t0, 0x4
   167c0: 93 17 06 03  	slli	a5, a2, 0x30
   167c4: c1 93        	srli	a5, a5, 0x30
   167c6: bb 87 77 02  	mulw	a5, a5, t2
   167ca: 1b 56 06 01  	srliw	a2, a2, 0x10
   167ce: 13 99 06 03  	slli	s2, a3, 0x30
   167d2: 13 59 09 03  	srli	s2, s2, 0x30
   167d6: 9b d6 06 01  	srliw	a3, a3, 0x10
   167da: 91 0f        	addi	t6, t6, 0x4
   167dc: 3b 06 76 02  	mulw	a2, a2, t2
   167e0: bb 87 27 01  	addw	a5, a5, s2
   167e4: b9 9f        	addw	a5, a5, a4
   167e6: 1b d7 07 01  	srliw	a4, a5, 0x10
   167ea: c2 17        	slli	a5, a5, 0x30
   167ec: c1 93        	srli	a5, a5, 0x30
   167ee: b1 9e        	addw	a3, a3, a2
   167f0: 35 9f        	addw	a4, a4, a3
   167f2: 9b 16 07 01  	slliw	a3, a4, 0x10
   167f6: d5 8f        	or	a5, a5, a3
   167f8: 23 ae f2 fe  	sw	a5, -0x4(t0)
   167fc: 1b 57 07 01  	srliw	a4, a4, 0x10
   16800: e3 eb bf fa  	bltu	t6, a1, 0x167b6 <__multiply+0xc2>
   16804: b3 07 e3 01  	add	a5, t1, t5
   16808: d8 c3        	sw	a4, 0x4(a5)
   1680a: 83 2f 08 00  	lw	t6, 0x0(a6)
   1680e: 9b df 0f 01  	srliw	t6, t6, 0x10
   16812: e3 83 0f f8  	beqz	t6, 0x16798 <__multiply+0xa4>
   16816: 83 27 03 00  	lw	a5, 0x0(t1)
   1681a: 9a 82        	mv	t0, t1
   1681c: 76 86        	mv	a2, t4
   1681e: be 83        	mv	t2, a5
   16820: 01 49        	li	s2, 0x0
   16822: 83 56 06 00  	lhu	a3, 0x0(a2)
   16826: 1b d7 03 01  	srliw	a4, t2, 0x10
   1682a: c2 17        	slli	a5, a5, 0x30
   1682c: bb 86 f6 03  	mulw	a3, a3, t6
   16830: c1 93        	srli	a5, a5, 0x30
   16832: 11 06        	addi	a2, a2, 0x4
   16834: 83 a3 42 00  	lw	t2, 0x4(t0)
   16838: 91 02        	addi	t0, t0, 0x4
   1683a: 93 99 03 03  	slli	s3, t2, 0x30
   1683e: 93 d9 09 03  	srli	s3, s3, 0x30
   16842: bb 86 26 01  	addw	a3, a3, s2
   16846: 35 9f        	addw	a4, a4, a3
   16848: 9b 16 07 01  	slliw	a3, a4, 0x10
   1684c: d5 8f        	or	a5, a5, a3
   1684e: 23 ae f2 fe  	sw	a5, -0x4(t0)
   16852: 83 57 e6 ff  	lhu	a5, -0x2(a2)
   16856: 1b 57 07 01  	srliw	a4, a4, 0x10
   1685a: bb 87 f7 03  	mulw	a5, a5, t6
   1685e: bb 87 37 01  	addw	a5, a5, s3
   16862: b9 9f        	addw	a5, a5, a4
   16864: 1b d9 07 01  	srliw	s2, a5, 0x10
   16868: e3 6d b6 fa  	bltu	a2, a1, 0x16822 <__multiply+0x12e>
   1686c: 33 07 e3 01  	add	a4, t1, t5
   16870: 5c c3        	sw	a5, 0x4(a4)
   16872: 11 08        	addi	a6, a6, 0x4
   16874: 11 03        	addi	t1, t1, 0x4
   16876: e3 65 c8 f3  	bltu	a6, t3, 0x167a0 <__multiply+0xac>
   1687a: 63 45 90 00  	bgtz	s1, 0x16884 <__multiply+0x190>
   1687e: 39 a0        	j	0x1688c <__multiply+0x198>
   16880: 7d 34        	addiw	s0, s0, -0x1
   16882: 09 c4        	beqz	s0, 0x1688c <__multiply+0x198>
   16884: 83 a7 c8 ff  	lw	a5, -0x4(a7)
   16888: f1 18        	addi	a7, a7, -0x4
   1688a: fd db        	beqz	a5, 0x16880 <__multiply+0x18c>
   1688c: e2 70        	ld	ra, 0x38(sp)
   1688e: 40 c9        	sw	s0, 0x14(a0)
   16890: 42 74        	ld	s0, 0x30(sp)
   16892: a2 74        	ld	s1, 0x28(sp)
   16894: 02 79        	ld	s2, 0x20(sp)
   16896: e2 69        	ld	s3, 0x18(sp)
   16898: 42 6a        	ld	s4, 0x10(sp)
   1689a: a2 6a        	ld	s5, 0x8(sp)
   1689c: 21 61        	addi	sp, sp, 0x40
   1689e: 82 80        	ret
   168a0: 97 86 00 00  	auipc	a3, 0x8
   168a4: 93 86 86 c7  	addi	a3, a3, -0x388
   168a8: 01 46        	li	a2, 0x0
   168aa: 93 05 d0 15  	li	a1, 0x15d
   168ae: 17 85 00 00  	auipc	a0, 0x8
   168b2: 13 05 25 c8  	addi	a0, a0, -0x37e
   168b6: ef 30 d0 71  	jal	0x1a7d2 <__assert_func>

00000000000168ba <__pow5mult>:
   168ba: 79 71        	addi	sp, sp, -0x30
   168bc: 22 f0        	sd	s0, 0x20(sp)
   168be: 4a e8        	sd	s2, 0x10(sp)
   168c0: 4e e4        	sd	s3, 0x8(sp)
   168c2: 06 f4        	sd	ra, 0x28(sp)
   168c4: 93 77 36 00  	andi	a5, a2, 0x3
   168c8: 32 84        	mv	s0, a2
   168ca: aa 89        	mv	s3, a0
   168cc: 2e 89        	mv	s2, a1
   168ce: d9 e3        	bnez	a5, 0x16954 <__pow5mult+0x9a>
   168d0: 1b 54 24 40  	sraiw	s0, s0, 0x2
   168d4: 2d c8        	beqz	s0, 0x16946 <__pow5mult+0x8c>
   168d6: 26 ec        	sd	s1, 0x18(sp)
   168d8: 83 b4 09 07  	ld	s1, 0x70(s3)
   168dc: c9 c8        	beqz	s1, 0x1696e <__pow5mult+0xb4>
   168de: 93 77 14 00  	andi	a5, s0, 0x1
   168e2: 1b 54 14 40  	sraiw	s0, s0, 0x1
   168e6: 89 eb        	bnez	a5, 0x168f8 <__pow5mult+0x3e>
   168e8: 88 60        	ld	a0, 0x0(s1)
   168ea: 0d cd        	beqz	a0, 0x16924 <__pow5mult+0x6a>
   168ec: aa 84        	mv	s1, a0
   168ee: 93 77 14 00  	andi	a5, s0, 0x1
   168f2: 1b 54 14 40  	sraiw	s0, s0, 0x1
   168f6: ed db        	beqz	a5, 0x168e8 <__pow5mult+0x2e>
   168f8: 26 86        	mv	a2, s1
   168fa: ca 85        	mv	a1, s2
   168fc: 4e 85        	mv	a0, s3
   168fe: ef f0 7f df  	jal	0x166f4 <__multiply>
   16902: 63 0d 09 00  	beqz	s2, 0x1691c <__pow5mult+0x62>
   16906: 03 27 89 00  	lw	a4, 0x8(s2)
   1690a: 83 b7 89 07  	ld	a5, 0x78(s3)
   1690e: 0e 07        	slli	a4, a4, 0x3
   16910: ba 97        	add	a5, a5, a4
   16912: 98 63        	ld	a4, 0x0(a5)
   16914: 23 30 e9 00  	sd	a4, 0x0(s2)
   16918: 23 b0 27 01  	sd	s2, 0x0(a5)
   1691c: 11 cc        	beqz	s0, 0x16938 <__pow5mult+0x7e>
   1691e: 2a 89        	mv	s2, a0
   16920: 88 60        	ld	a0, 0x0(s1)
   16922: 69 f5        	bnez	a0, 0x168ec <__pow5mult+0x32>
   16924: 26 86        	mv	a2, s1
   16926: a6 85        	mv	a1, s1
   16928: 4e 85        	mv	a0, s3
   1692a: ef f0 bf dc  	jal	0x166f4 <__multiply>
   1692e: 88 e0        	sd	a0, 0x0(s1)
   16930: 23 30 05 00  	sd	zero, 0x0(a0)
   16934: aa 84        	mv	s1, a0
   16936: 65 bf        	j	0x168ee <__pow5mult+0x34>
   16938: a2 70        	ld	ra, 0x28(sp)
   1693a: 02 74        	ld	s0, 0x20(sp)
   1693c: e2 64        	ld	s1, 0x18(sp)
   1693e: 42 69        	ld	s2, 0x10(sp)
   16940: a2 69        	ld	s3, 0x8(sp)
   16942: 45 61        	addi	sp, sp, 0x30
   16944: 82 80        	ret
   16946: a2 70        	ld	ra, 0x28(sp)
   16948: 02 74        	ld	s0, 0x20(sp)
   1694a: a2 69        	ld	s3, 0x8(sp)
   1694c: 4a 85        	mv	a0, s2
   1694e: 42 69        	ld	s2, 0x10(sp)
   16950: 45 61        	addi	sp, sp, 0x30
   16952: 82 80        	ret
   16954: fd 37        	addiw	a5, a5, -0x1
   16956: 17 87 00 00  	auipc	a4, 0x8
   1695a: 13 07 27 09  	addi	a4, a4, 0x92
   1695e: 8a 07        	slli	a5, a5, 0x2
   16960: ba 97        	add	a5, a5, a4
   16962: 90 43        	lw	a2, 0x0(a5)
   16964: 81 46        	li	a3, 0x0
   16966: ef f0 bf a2  	jal	0x16390 <__multadd>
   1696a: 2a 89        	mv	s2, a0
   1696c: 95 b7        	j	0x168d0 <__pow5mult+0x16>
   1696e: 85 45        	li	a1, 0x1
   16970: 4e 85        	mv	a0, s3
   16972: ef f0 5f 9a  	jal	0x16316 <_Balloc>
   16976: aa 84        	mv	s1, a0
   16978: 19 c9        	beqz	a0, 0x1698e <__pow5mult+0xd4>
   1697a: 13 07 10 27  	li	a4, 0x271
   1697e: 85 47        	li	a5, 0x1
   16980: 18 cd        	sw	a4, 0x18(a0)
   16982: 5c c9        	sw	a5, 0x14(a0)
   16984: 23 b8 a9 06  	sd	a0, 0x70(s3)
   16988: 23 30 05 00  	sd	zero, 0x0(a0)
   1698c: 89 bf        	j	0x168de <__pow5mult+0x24>
   1698e: 97 86 00 00  	auipc	a3, 0x8
   16992: 93 86 a6 b8  	addi	a3, a3, -0x476
   16996: 01 46        	li	a2, 0x0
   16998: 93 05 00 14  	li	a1, 0x140
   1699c: 17 85 00 00  	auipc	a0, 0x8
   169a0: 13 05 45 b9  	addi	a0, a0, -0x46c
   169a4: ef 30 f0 62  	jal	0x1a7d2 <__assert_func>

00000000000169a8 <__lshift>:
   169a8: 39 71        	addi	sp, sp, -0x40
   169aa: 4a f0        	sd	s2, 0x20(sp)
   169ac: 03 a9 45 01  	lw	s2, 0x14(a1)
   169b0: dc 45        	lw	a5, 0xc(a1)
   169b2: 56 e4        	sd	s5, 0x8(sp)
   169b4: 9b 5a 56 40  	sraiw	s5, a2, 0x5
   169b8: 3b 09 59 01  	addw	s2, s2, s5
   169bc: 22 f8        	sd	s0, 0x30(sp)
   169be: 26 f4        	sd	s1, 0x28(sp)
   169c0: 4e ec        	sd	s3, 0x18(sp)
   169c2: 52 e8        	sd	s4, 0x10(sp)
   169c4: 1b 07 19 00  	addiw	a4, s2, 0x1
   169c8: 06 fc        	sd	ra, 0x38(sp)
   169ca: 2e 84        	mv	s0, a1
   169cc: 32 8a        	mv	s4, a2
   169ce: 8c 45        	lw	a1, 0x8(a1)
   169d0: aa 84        	mv	s1, a0
   169d2: ba 89        	mv	s3, a4
   169d4: 63 d7 e7 00  	bge	a5, a4, 0x169e2 <__lshift+0x3a>
   169d8: 9b 97 17 00  	slliw	a5, a5, 0x1
   169dc: 85 25        	addiw	a1, a1, 0x1
   169de: e3 cd e7 fe  	blt	a5, a4, 0x169d8 <__lshift+0x30>
   169e2: 26 85        	mv	a0, s1
   169e4: ef f0 3f 93  	jal	0x16316 <_Balloc>
   169e8: 61 c1        	beqz	a0, 0x16aa8 <__lshift+0x100>
   169ea: 13 08 85 01  	addi	a6, a0, 0x18
   169ee: 63 51 50 03  	blez	s5, 0x16a10 <__lshift+0x68>
   169f2: 1b 87 6a 00  	addiw	a4, s5, 0x6
   169f6: 0a 07        	slli	a4, a4, 0x2
   169f8: 2a 97        	add	a4, a4, a0
   169fa: c2 87        	mv	a5, a6
   169fc: 91 07        	addi	a5, a5, 0x4
   169fe: 23 ae 07 fe  	sw	zero, -0x4(a5)
   16a02: e3 1d f7 fe  	bne	a4, a5, 0x169fc <__lshift+0x54>
   16a06: 93 97 0a 02  	slli	a5, s5, 0x20
   16a0a: 93 da e7 01  	srli	s5, a5, 0x1e
   16a0e: 56 98        	add	a6, a6, s5
   16a10: 83 28 44 01  	lw	a7, 0x14(s0)
   16a14: 93 07 84 01  	addi	a5, s0, 0x18
   16a18: 13 76 fa 01  	andi	a2, s4, 0x1f
   16a1c: 8a 08        	slli	a7, a7, 0x2
   16a1e: be 98        	add	a7, a7, a5
   16a20: 2d c6        	beqz	a2, 0x16a8a <__lshift+0xe2>
   16a22: 93 05 00 02  	li	a1, 0x20
   16a26: 91 9d        	subw	a1, a1, a2
   16a28: 42 83        	mv	t1, a6
   16a2a: 81 46        	li	a3, 0x0
   16a2c: 98 43        	lw	a4, 0x0(a5)
   16a2e: 11 03        	addi	t1, t1, 0x4
   16a30: 91 07        	addi	a5, a5, 0x4
   16a32: 3b 17 c7 00  	sllw	a4, a4, a2
   16a36: 55 8f        	or	a4, a4, a3
   16a38: 23 2e e3 fe  	sw	a4, -0x4(t1)
   16a3c: 83 a6 c7 ff  	lw	a3, -0x4(a5)
   16a40: bb d6 b6 00  	srlw	a3, a3, a1
   16a44: e3 e4 17 ff  	bltu	a5, a7, 0x16a2c <__lshift+0x84>
   16a48: 93 07 94 01  	addi	a5, s0, 0x19
   16a4c: 01 47        	li	a4, 0x0
   16a4e: 63 e7 f8 00  	bltu	a7, a5, 0x16a5c <__lshift+0xb4>
   16a52: b3 88 88 40  	sub	a7, a7, s0
   16a56: 9d 18        	addi	a7, a7, -0x19
   16a58: 13 f7 c8 ff  	andi	a4, a7, -0x4
   16a5c: 3a 98        	add	a6, a6, a4
   16a5e: 23 22 d8 00  	sw	a3, 0x4(a6)
   16a62: 91 e2        	bnez	a3, 0x16a66 <__lshift+0xbe>
   16a64: ca 89        	mv	s3, s2
   16a66: 18 44        	lw	a4, 0x8(s0)
   16a68: bc 7c        	ld	a5, 0x78(s1)
   16a6a: 23 2a 35 01  	sw	s3, 0x14(a0)
   16a6e: 0e 07        	slli	a4, a4, 0x3
   16a70: ba 97        	add	a5, a5, a4
   16a72: 98 63        	ld	a4, 0x0(a5)
   16a74: e2 70        	ld	ra, 0x38(sp)
   16a76: a2 74        	ld	s1, 0x28(sp)
   16a78: 18 e0        	sd	a4, 0x0(s0)
   16a7a: 80 e3        	sd	s0, 0x0(a5)
   16a7c: 42 74        	ld	s0, 0x30(sp)
   16a7e: 02 79        	ld	s2, 0x20(sp)
   16a80: e2 69        	ld	s3, 0x18(sp)
   16a82: 42 6a        	ld	s4, 0x10(sp)
   16a84: a2 6a        	ld	s5, 0x8(sp)
   16a86: 21 61        	addi	sp, sp, 0x40
   16a88: 82 80        	ret
   16a8a: 98 43        	lw	a4, 0x0(a5)
   16a8c: 91 07        	addi	a5, a5, 0x4
   16a8e: 11 08        	addi	a6, a6, 0x4
   16a90: 23 2e e8 fe  	sw	a4, -0x4(a6)
   16a94: e3 f8 17 fd  	bgeu	a5, a7, 0x16a64 <__lshift+0xbc>
   16a98: 98 43        	lw	a4, 0x0(a5)
   16a9a: 91 07        	addi	a5, a5, 0x4
   16a9c: 11 08        	addi	a6, a6, 0x4
   16a9e: 23 2e e8 fe  	sw	a4, -0x4(a6)
   16aa2: e3 e4 17 ff  	bltu	a5, a7, 0x16a8a <__lshift+0xe2>
   16aa6: 7d bf        	j	0x16a64 <__lshift+0xbc>
   16aa8: 97 86 00 00  	auipc	a3, 0x8
   16aac: 93 86 06 a7  	addi	a3, a3, -0x590
   16ab0: 01 46        	li	a2, 0x0
   16ab2: 93 05 90 1d  	li	a1, 0x1d9
   16ab6: 17 85 00 00  	auipc	a0, 0x8
   16aba: 13 05 a5 a7  	addi	a0, a0, -0x586
   16abe: ef 30 50 51  	jal	0x1a7d2 <__assert_func>

0000000000016ac2 <__mcmp>:
   16ac2: dc 49        	lw	a5, 0x14(a1)
   16ac4: 2a 88        	mv	a6, a0
   16ac6: 48 49        	lw	a0, 0x14(a0)
   16ac8: 1d 9d        	subw	a0, a0, a5
   16aca: 1d e5        	bnez	a0, 0x16af8 <__mcmp+0x36>
   16acc: 8a 07        	slli	a5, a5, 0x2
   16ace: 61 08        	addi	a6, a6, 0x18
   16ad0: e1 05        	addi	a1, a1, 0x18
   16ad2: 33 87 f5 00  	add	a4, a1, a5
   16ad6: c2 97        	add	a5, a5, a6
   16ad8: 19 a0        	j	0x16ade <__mcmp+0x1c>
   16ada: 63 7f f8 00  	bgeu	a6, a5, 0x16af8 <__mcmp+0x36>
   16ade: 03 a6 c7 ff  	lw	a2, -0x4(a5)
   16ae2: 83 26 c7 ff  	lw	a3, -0x4(a4)
   16ae6: f1 17        	addi	a5, a5, -0x4
   16ae8: 71 17        	addi	a4, a4, -0x4
   16aea: e3 08 d6 fe  	beq	a2, a3, 0x16ada <__mcmp+0x18>
   16aee: 05 45        	li	a0, 0x1
   16af0: 63 74 d6 00  	bgeu	a2, a3, 0x16af8 <__mcmp+0x36>
   16af4: 7d 55        	li	a0, -0x1
   16af6: 82 80        	ret
   16af8: 82 80        	ret

0000000000016afa <__mdiff>:
   16afa: 01 11        	addi	sp, sp, -0x20
   16afc: 5c 4a        	lw	a5, 0x14(a2)
   16afe: 4a e0        	sd	s2, 0x0(sp)
   16b00: 03 a9 45 01  	lw	s2, 0x14(a1)
   16b04: 22 e8        	sd	s0, 0x10(sp)
   16b06: 26 e4        	sd	s1, 0x8(sp)
   16b08: 06 ec        	sd	ra, 0x18(sp)
   16b0a: 3b 09 f9 40  	subw	s2, s2, a5
   16b0e: 2e 84        	mv	s0, a1
   16b10: b2 84        	mv	s1, a2
   16b12: 63 11 09 12  	bnez	s2, 0x16c34 <__mdiff+0x13a>
   16b16: 93 96 27 00  	slli	a3, a5, 0x2
   16b1a: 13 86 85 01  	addi	a2, a1, 0x18
   16b1e: 13 87 84 01  	addi	a4, s1, 0x18
   16b22: b3 07 d6 00  	add	a5, a2, a3
   16b26: 36 97        	add	a4, a4, a3
   16b28: 19 a0        	j	0x16b2e <__mdiff+0x34>
   16b2a: 63 73 f6 12  	bgeu	a2, a5, 0x16c50 <__mdiff+0x156>
   16b2e: 83 a5 c7 ff  	lw	a1, -0x4(a5)
   16b32: 83 26 c7 ff  	lw	a3, -0x4(a4)
   16b36: f1 17        	addi	a5, a5, -0x4
   16b38: 71 17        	addi	a4, a4, -0x4
   16b3a: e3 88 d5 fe  	beq	a1, a3, 0x16b2a <__mdiff+0x30>
   16b3e: 63 f7 d5 12  	bgeu	a1, a3, 0x16c6c <__mdiff+0x172>
   16b42: 05 49        	li	s2, 0x1
   16b44: 8c 44        	lw	a1, 0x8(s1)
   16b46: ef f0 0f fd  	jal	0x16316 <_Balloc>
   16b4a: 63 07 05 12  	beqz	a0, 0x16c78 <__mdiff+0x17e>
   16b4e: 83 a8 44 01  	lw	a7, 0x14(s1)
   16b52: 03 2f 44 01  	lw	t5, 0x14(s0)
   16b56: e1 04        	addi	s1, s1, 0x18
   16b58: 13 98 28 00  	slli	a6, a7, 0x2
   16b5c: 0a 0f        	slli	t5, t5, 0x2
   16b5e: 13 03 84 01  	addi	t1, s0, 0x18
   16b62: 93 0f 85 01  	addi	t6, a0, 0x18
   16b66: 23 28 25 01  	sw	s2, 0x10(a0)
   16b6a: 26 98        	add	a6, a6, s1
   16b6c: 1a 9f        	add	t5, t5, t1
   16b6e: a6 8e        	mv	t4, s1
   16b70: 7e 8e        	mv	t3, t6
   16b72: 81 47        	li	a5, 0x0
   16b74: 83 a6 0e 00  	lw	a3, 0x0(t4)
   16b78: 03 26 03 00  	lw	a2, 0x0(t1)
   16b7c: 11 0e        	addi	t3, t3, 0x4
   16b7e: 13 97 06 03  	slli	a4, a3, 0x30
   16b82: 93 15 06 03  	slli	a1, a2, 0x30
   16b86: 41 93        	srli	a4, a4, 0x30
   16b88: c1 91        	srli	a1, a1, 0x30
   16b8a: 0d 9f        	subw	a4, a4, a1
   16b8c: 3d 9f        	addw	a4, a4, a5
   16b8e: 9b d6 06 01  	srliw	a3, a3, 0x10
   16b92: 1b 56 06 01  	srliw	a2, a2, 0x10
   16b96: 91 9e        	subw	a3, a3, a2
   16b98: 9b 57 07 41  	sraiw	a5, a4, 0x10
   16b9c: b5 9f        	addw	a5, a5, a3
   16b9e: 42 17        	slli	a4, a4, 0x30
   16ba0: 9b 96 07 01  	slliw	a3, a5, 0x10
   16ba4: 41 93        	srli	a4, a4, 0x30
   16ba6: d9 8e        	or	a3, a3, a4
   16ba8: 11 03        	addi	t1, t1, 0x4
   16baa: 23 2e de fe  	sw	a3, -0x4(t3)
   16bae: 91 0e        	addi	t4, t4, 0x4
   16bb0: 9b d7 07 41  	sraiw	a5, a5, 0x10
   16bb4: e3 60 e3 fd  	bltu	t1, t5, 0x16b74 <__mdiff+0x7a>
   16bb8: 13 06 94 01  	addi	a2, s0, 0x19
   16bbc: 01 47        	li	a4, 0x0
   16bbe: 63 73 cf 08  	bgeu	t5, a2, 0x16c44 <__mdiff+0x14a>
   16bc2: b3 8e e4 00  	add	t4, s1, a4
   16bc6: 91 0e        	addi	t4, t4, 0x4
   16bc8: 7e 97        	add	a4, a4, t6
   16bca: 33 8e 9f 40  	sub	t3, t6, s1
   16bce: 76 86        	mv	a2, t4
   16bd0: 13 0f 47 00  	addi	t5, a4, 0x4
   16bd4: 63 f0 0e 0b  	bgeu	t4, a6, 0x16c74 <__mdiff+0x17a>
   16bd8: 18 42        	lw	a4, 0x0(a2)
   16bda: 33 03 c6 01  	add	t1, a2, t3
   16bde: 11 06        	addi	a2, a2, 0x4
   16be0: 93 16 07 03  	slli	a3, a4, 0x30
   16be4: c1 92        	srli	a3, a3, 0x30
   16be6: bb 05 f7 00  	addw	a1, a4, a5
   16bea: b5 9f        	addw	a5, a5, a3
   16bec: 9b d7 07 41  	sraiw	a5, a5, 0x10
   16bf0: 1b 57 07 01  	srliw	a4, a4, 0x10
   16bf4: 3d 9f        	addw	a4, a4, a5
   16bf6: c2 15        	slli	a1, a1, 0x30
   16bf8: c1 91        	srli	a1, a1, 0x30
   16bfa: 9b 16 07 01  	slliw	a3, a4, 0x10
   16bfe: cd 8e        	or	a3, a3, a1
   16c00: 23 20 d3 00  	sw	a3, 0x0(t1)
   16c04: 9b 57 07 41  	sraiw	a5, a4, 0x10
   16c08: e3 68 06 fd  	bltu	a2, a6, 0x16bd8 <__mdiff+0xde>
   16c0c: 93 07 f8 ff  	addi	a5, a6, -0x1
   16c10: b3 87 d7 41  	sub	a5, a5, t4
   16c14: f1 9b        	andi	a5, a5, -0x4
   16c16: fa 97        	add	a5, a5, t5
   16c18: 91 e6        	bnez	a3, 0x16c24 <__mdiff+0x12a>
   16c1a: 03 a7 c7 ff  	lw	a4, -0x4(a5)
   16c1e: f1 17        	addi	a5, a5, -0x4
   16c20: fd 38        	addiw	a7, a7, -0x1
   16c22: 65 df        	beqz	a4, 0x16c1a <__mdiff+0x120>
   16c24: e2 60        	ld	ra, 0x18(sp)
   16c26: 42 64        	ld	s0, 0x10(sp)
   16c28: 23 2a 15 01  	sw	a7, 0x14(a0)
   16c2c: a2 64        	ld	s1, 0x8(sp)
   16c2e: 02 69        	ld	s2, 0x0(sp)
   16c30: 05 61        	addi	sp, sp, 0x20
   16c32: 82 80        	ret
   16c34: 4a 87        	mv	a4, s2
   16c36: 05 49        	li	s2, 0x1
   16c38: e3 46 07 f0  	bltz	a4, 0x16b44 <__mdiff+0x4a>
   16c3c: 01 49        	li	s2, 0x0
   16c3e: ae 84        	mv	s1, a1
   16c40: 32 84        	mv	s0, a2
   16c42: 09 b7        	j	0x16b44 <__mdiff+0x4a>
   16c44: 33 0f 8f 40  	sub	t5, t5, s0
   16c48: 1d 1f        	addi	t5, t5, -0x19
   16c4a: 13 77 cf ff  	andi	a4, t5, -0x4
   16c4e: 95 bf        	j	0x16bc2 <__mdiff+0xc8>
   16c50: 81 45        	li	a1, 0x0
   16c52: ef f0 4f ec  	jal	0x16316 <_Balloc>
   16c56: 15 cd        	beqz	a0, 0x16c92 <__mdiff+0x198>
   16c58: e2 60        	ld	ra, 0x18(sp)
   16c5a: 42 64        	ld	s0, 0x10(sp)
   16c5c: 85 47        	li	a5, 0x1
   16c5e: 23 2c 05 00  	sw	zero, 0x18(a0)
   16c62: 5c c9        	sw	a5, 0x14(a0)
   16c64: a2 64        	ld	s1, 0x8(sp)
   16c66: 02 69        	ld	s2, 0x0(sp)
   16c68: 05 61        	addi	sp, sp, 0x20
   16c6a: 82 80        	ret
   16c6c: a6 87        	mv	a5, s1
   16c6e: a2 84        	mv	s1, s0
   16c70: 3e 84        	mv	s0, a5
   16c72: c9 bd        	j	0x16b44 <__mdiff+0x4a>
   16c74: ba 87        	mv	a5, a4
   16c76: 4d b7        	j	0x16c18 <__mdiff+0x11e>
   16c78: 97 86 00 00  	auipc	a3, 0x8
   16c7c: 93 86 06 8a  	addi	a3, a3, -0x760
   16c80: 01 46        	li	a2, 0x0
   16c82: 93 05 00 24  	li	a1, 0x240
   16c86: 17 85 00 00  	auipc	a0, 0x8
   16c8a: 13 05 a5 8a  	addi	a0, a0, -0x756
   16c8e: ef 30 50 34  	jal	0x1a7d2 <__assert_func>
   16c92: 97 86 00 00  	auipc	a3, 0x8
   16c96: 93 86 66 88  	addi	a3, a3, -0x77a
   16c9a: 01 46        	li	a2, 0x0
   16c9c: 93 05 20 23  	li	a1, 0x232
   16ca0: 17 85 00 00  	auipc	a0, 0x8
   16ca4: 13 05 05 89  	addi	a0, a0, -0x770
   16ca8: ef 30 b0 32  	jal	0x1a7d2 <__assert_func>

0000000000016cac <__ulp>:
   16cac: d3 07 05 e2  	fmv.x.d	a5, fa0
   16cb0: b7 06 f0 7f  	lui	a3, 0x7ff00
   16cb4: 37 07 c0 fc  	lui	a4, 0xfcc00
   16cb8: 81 93        	srli	a5, a5, 0x20
   16cba: f5 8f        	and	a5, a5, a3
   16cbc: b9 9f        	addw	a5, a5, a4
   16cbe: 01 47        	li	a4, 0x0
   16cc0: 63 59 f0 00  	blez	a5, 0x16cd2 <__ulp+0x26>
   16cc4: 02 17        	slli	a4, a4, 0x20
   16cc6: 01 93        	srli	a4, a4, 0x20
   16cc8: 82 17        	slli	a5, a5, 0x20
   16cca: d9 8f        	or	a5, a5, a4
   16ccc: 53 85 07 f2  	fmv.d.x	fa0, a5
   16cd0: 82 80        	ret
   16cd2: bb 07 f0 40  	negw	a5, a5
   16cd6: 9b d7 47 41  	sraiw	a5, a5, 0x14
   16cda: 4d 47        	li	a4, 0x13
   16cdc: 63 4e f7 00  	blt	a4, a5, 0x16cf8 <__ulp+0x4c>
   16ce0: 37 07 08 00  	lui	a4, 0x80
   16ce4: bb 57 f7 40  	sraw	a5, a4, a5
   16ce8: 01 47        	li	a4, 0x0
   16cea: 02 17        	slli	a4, a4, 0x20
   16cec: 01 93        	srli	a4, a4, 0x20
   16cee: 82 17        	slli	a5, a5, 0x20
   16cf0: d9 8f        	or	a5, a5, a4
   16cf2: 53 85 07 f2  	fmv.d.x	fa0, a5
   16cf6: 82 80        	ret
   16cf8: b1 37        	addiw	a5, a5, -0x14
   16cfa: f9 46        	li	a3, 0x1e
   16cfc: 05 47        	li	a4, 0x1
   16cfe: 63 c6 f6 00  	blt	a3, a5, 0x16d0a <__ulp+0x5e>
   16d02: 37 07 00 80  	lui	a4, 0x80000
   16d06: 3b 57 f7 00  	srlw	a4, a4, a5
   16d0a: 81 47        	li	a5, 0x0
   16d0c: 02 17        	slli	a4, a4, 0x20
   16d0e: 01 93        	srli	a4, a4, 0x20
   16d10: 82 17        	slli	a5, a5, 0x20
   16d12: d9 8f        	or	a5, a5, a4
   16d14: 53 85 07 f2  	fmv.d.x	fa0, a5
   16d18: 82 80        	ret

0000000000016d1a <__b2d>:
   16d1a: 79 71        	addi	sp, sp, -0x30
   16d1c: 26 ec        	sd	s1, 0x18(sp)
   16d1e: 44 49        	lw	s1, 0x14(a0)
   16d20: 22 f0        	sd	s0, 0x20(sp)
   16d22: 13 04 85 01  	addi	s0, a0, 0x18
   16d26: 8a 04        	slli	s1, s1, 0x2
   16d28: a2 94        	add	s1, s1, s0
   16d2a: 4a e8        	sd	s2, 0x10(sp)
   16d2c: 03 a9 c4 ff  	lw	s2, -0x4(s1)
   16d30: 4e e4        	sd	s3, 0x8(sp)
   16d32: 52 e0        	sd	s4, 0x0(sp)
   16d34: 4a 85        	mv	a0, s2
   16d36: ae 89        	mv	s3, a1
   16d38: 06 f4        	sd	ra, 0x28(sp)
   16d3a: ef f0 5f 83  	jal	0x1656e <__hi0bits>
   16d3e: 93 07 00 02  	li	a5, 0x20
   16d42: 3b 87 a7 40  	subw	a4, a5, a0
   16d46: 23 a0 e9 00  	sw	a4, 0x0(s3)
   16d4a: 29 47        	li	a4, 0xa
   16d4c: 13 8a c4 ff  	addi	s4, s1, -0x4
   16d50: 63 5c a7 06  	bge	a4, a0, 0x16dc8 <__b2d+0xae>
   16d54: 1b 06 55 ff  	addiw	a2, a0, -0xb
   16d58: 63 7f 44 03  	bgeu	s0, s4, 0x16d96 <__b2d+0x7c>
   16d5c: 03 a7 84 ff  	lw	a4, -0x8(s1)
   16d60: 1d ce        	beqz	a2, 0x16d9e <__b2d+0x84>
   16d62: bb 86 c7 40  	subw	a3, a5, a2
   16d66: bb 57 d7 00  	srlw	a5, a4, a3
   16d6a: 3b 19 c9 00  	sllw	s2, s2, a2
   16d6e: 33 69 f9 00  	or	s2, s2, a5
   16d72: b7 07 f0 3f  	lui	a5, 0x3ff00
   16d76: 33 69 f9 00  	or	s2, s2, a5
   16d7a: 93 85 84 ff  	addi	a1, s1, -0x8
   16d7e: 3b 17 c7 00  	sllw	a4, a4, a2
   16d82: 93 17 09 02  	slli	a5, s2, 0x20
   16d86: 63 72 b4 02  	bgeu	s0, a1, 0x16daa <__b2d+0x90>
   16d8a: 03 a6 44 ff  	lw	a2, -0xc(s1)
   16d8e: bb 56 d6 00  	srlw	a3, a2, a3
   16d92: 55 8f        	or	a4, a4, a3
   16d94: 19 a8        	j	0x16daa <__b2d+0x90>
   16d96: ad 47        	li	a5, 0xb
   16d98: 01 47        	li	a4, 0x0
   16d9a: 63 1c f5 04  	bne	a0, a5, 0x16df2 <__b2d+0xd8>
   16d9e: b7 07 f0 3f  	lui	a5, 0x3ff00
   16da2: 33 69 f9 00  	or	s2, s2, a5
   16da6: 93 17 09 02  	slli	a5, s2, 0x20
   16daa: a2 70        	ld	ra, 0x28(sp)
   16dac: 02 74        	ld	s0, 0x20(sp)
   16dae: 02 17        	slli	a4, a4, 0x20
   16db0: 81 93        	srli	a5, a5, 0x20
   16db2: 01 93        	srli	a4, a4, 0x20
   16db4: 82 17        	slli	a5, a5, 0x20
   16db6: d9 8f        	or	a5, a5, a4
   16db8: e2 64        	ld	s1, 0x18(sp)
   16dba: 42 69        	ld	s2, 0x10(sp)
   16dbc: a2 69        	ld	s3, 0x8(sp)
   16dbe: 02 6a        	ld	s4, 0x0(sp)
   16dc0: 53 85 07 f2  	fmv.d.x	fa0, a5
   16dc4: 45 61        	addi	sp, sp, 0x30
   16dc6: 82 80        	ret
   16dc8: ad 46        	li	a3, 0xb
   16dca: 89 9e        	subw	a3, a3, a0
   16dcc: 37 07 f0 3f  	lui	a4, 0x3ff00
   16dd0: bb 57 d9 00  	srlw	a5, s2, a3
   16dd4: d9 8f        	or	a5, a5, a4
   16dd6: 82 17        	slli	a5, a5, 0x20
   16dd8: 01 47        	li	a4, 0x0
   16dda: 63 76 44 01  	bgeu	s0, s4, 0x16de6 <__b2d+0xcc>
   16dde: 03 a7 84 ff  	lw	a4, -0x8(s1)
   16de2: 3b 57 d7 00  	srlw	a4, a4, a3
   16de6: 55 25        	addiw	a0, a0, 0x15
   16de8: 3b 19 a9 00  	sllw	s2, s2, a0
   16dec: 33 67 e9 00  	or	a4, s2, a4
   16df0: 6d bf        	j	0x16daa <__b2d+0x90>
   16df2: b7 07 f0 3f  	lui	a5, 0x3ff00
   16df6: 3b 19 c9 00  	sllw	s2, s2, a2
   16dfa: 33 69 f9 00  	or	s2, s2, a5
   16dfe: 93 17 09 02  	slli	a5, s2, 0x20
   16e02: 01 47        	li	a4, 0x0
   16e04: 5d b7        	j	0x16daa <__b2d+0x90>

0000000000016e06 <__d2b>:
   16e06: 39 71        	addi	sp, sp, -0x40
   16e08: 52 e8        	sd	s4, 0x10(sp)
   16e0a: 2e 8a        	mv	s4, a1
   16e0c: 85 45        	li	a1, 0x1
   16e0e: 22 f8        	sd	s0, 0x30(sp)
   16e10: 4e ec        	sd	s3, 0x18(sp)
   16e12: 06 fc        	sd	ra, 0x38(sp)
   16e14: 26 f4        	sd	s1, 0x28(sp)
   16e16: 4a f0        	sd	s2, 0x20(sp)
   16e18: 53 04 05 e2  	fmv.x.d	s0, fa0
   16e1c: b2 89        	mv	s3, a2
   16e1e: ef f0 8f cf  	jal	0x16316 <_Balloc>
   16e22: 55 c9        	beqz	a0, 0x16ed6 <__d2b+0xd0>
   16e24: 93 57 04 42  	srai	a5, s0, 0x20
   16e28: 1b d9 47 01  	srliw	s2, a5, 0x14
   16e2c: 37 07 10 00  	lui	a4, 0x100
   16e30: 93 06 f7 ff  	addi	a3, a4, -0x1
   16e34: 13 79 f9 7f  	andi	s2, s2, 0x7ff
   16e38: aa 84        	mv	s1, a0
   16e3a: f5 8f        	and	a5, a5, a3
   16e3c: 63 03 09 00  	beqz	s2, 0x16e42 <__d2b+0x3c>
   16e40: d9 8f        	or	a5, a5, a4
   16e42: 01 24        	sext.w	s0, s0
   16e44: 3e c6        	sw	a5, 0xc(sp)
   16e46: 29 e0        	bnez	s0, 0x16e88 <__d2b+0x82>
   16e48: 68 00        	addi	a0, sp, 0xc
   16e4a: ef f0 cf f8  	jal	0x165d6 <__lo0bits>
   16e4e: b2 47        	lw	a5, 0xc(sp)
   16e50: 05 44        	li	s0, 0x1
   16e52: c0 c8        	sw	s0, 0x14(s1)
   16e54: 9c cc        	sw	a5, 0x18(s1)
   16e56: 1b 05 05 02  	addiw	a0, a0, 0x20
   16e5a: 63 0f 09 04  	beqz	s2, 0x16eb8 <__d2b+0xb2>
   16e5e: 1b 09 d9 bc  	addiw	s2, s2, -0x433
   16e62: 3b 09 a9 00  	addw	s2, s2, a0
   16e66: 13 04 50 03  	li	s0, 0x35
   16e6a: 23 20 2a 01  	sw	s2, 0x0(s4)
   16e6e: 3b 05 a4 40  	subw	a0, s0, a0
   16e72: e2 70        	ld	ra, 0x38(sp)
   16e74: 42 74        	ld	s0, 0x30(sp)
   16e76: 23 a0 a9 00  	sw	a0, 0x0(s3)
   16e7a: 02 79        	ld	s2, 0x20(sp)
   16e7c: e2 69        	ld	s3, 0x18(sp)
   16e7e: 42 6a        	ld	s4, 0x10(sp)
   16e80: 26 85        	mv	a0, s1
   16e82: a2 74        	ld	s1, 0x28(sp)
   16e84: 21 61        	addi	sp, sp, 0x40
   16e86: 82 80        	ret
   16e88: 28 00        	addi	a0, sp, 0x8
   16e8a: 22 c4        	sw	s0, 0x8(sp)
   16e8c: ef f0 af f4  	jal	0x165d6 <__lo0bits>
   16e90: b2 47        	lw	a5, 0xc(sp)
   16e92: 22 47        	lw	a4, 0x8(sp)
   16e94: 11 c9        	beqz	a0, 0x16ea8 <__d2b+0xa2>
   16e96: 93 06 00 02  	li	a3, 0x20
   16e9a: 89 9e        	subw	a3, a3, a0
   16e9c: bb 96 d7 00  	sllw	a3, a5, a3
   16ea0: bb d7 a7 00  	srlw	a5, a5, a0
   16ea4: 55 8f        	or	a4, a4, a3
   16ea6: 3e c6        	sw	a5, 0xc(sp)
   16ea8: 33 34 f0 00  	snez	s0, a5
   16eac: 05 04        	addi	s0, s0, 0x1
   16eae: 98 cc        	sw	a4, 0x18(s1)
   16eb0: dc cc        	sw	a5, 0x1c(s1)
   16eb2: c0 c8        	sw	s0, 0x14(s1)
   16eb4: e3 15 09 fa  	bnez	s2, 0x16e5e <__d2b+0x58>
   16eb8: 1b 05 e5 bc  	addiw	a0, a0, -0x432
   16ebc: 93 17 24 00  	slli	a5, s0, 0x2
   16ec0: 23 20 aa 00  	sw	a0, 0x0(s4)
   16ec4: a6 97        	add	a5, a5, s1
   16ec6: c8 4b        	lw	a0, 0x14(a5)
   16ec8: 1b 14 54 00  	slliw	s0, s0, 0x5
   16ecc: ef f0 2f ea  	jal	0x1656e <__hi0bits>
   16ed0: 3b 05 a4 40  	subw	a0, s0, a0
   16ed4: 79 bf        	j	0x16e72 <__d2b+0x6c>
   16ed6: 97 76 00 00  	auipc	a3, 0x7
   16eda: 93 86 26 64  	addi	a3, a3, 0x642
   16ede: 01 46        	li	a2, 0x0
   16ee0: 93 05 a0 30  	li	a1, 0x30a
   16ee4: 17 75 00 00  	auipc	a0, 0x7
   16ee8: 13 05 c5 64  	addi	a0, a0, 0x64c
   16eec: ef 30 70 0e  	jal	0x1a7d2 <__assert_func>

0000000000016ef0 <__ratio>:
   16ef0: 39 71        	addi	sp, sp, -0x40
   16ef2: 26 f4        	sd	s1, 0x28(sp)
   16ef4: ae 84        	mv	s1, a1
   16ef6: 2c 00        	addi	a1, sp, 0x8
   16ef8: 06 fc        	sd	ra, 0x38(sp)
   16efa: 22 f8        	sd	s0, 0x30(sp)
   16efc: 4e ec        	sd	s3, 0x18(sp)
   16efe: aa 89        	mv	s3, a0
   16f00: ef f0 bf e1  	jal	0x16d1a <__b2d>
   16f04: 6c 00        	addi	a1, sp, 0xc
   16f06: 26 85        	mv	a0, s1
   16f08: 53 04 05 e2  	fmv.x.d	s0, fa0
   16f0c: ef f0 ff e0  	jal	0x16d1a <__b2d>
   16f10: d8 48        	lw	a4, 0x14(s1)
   16f12: 83 a6 49 01  	lw	a3, 0x14(s3)
   16f16: a2 47        	lw	a5, 0x8(sp)
   16f18: 32 46        	lw	a2, 0xc(sp)
   16f1a: 99 9e        	subw	a3, a3, a4
   16f1c: 9b 96 56 00  	slliw	a3, a3, 0x5
   16f20: 91 9f        	subw	a5, a5, a2
   16f22: b5 9f        	addw	a5, a5, a3
   16f24: 53 07 05 e2  	fmv.x.d	a4, fa0
   16f28: 63 5b f0 02  	blez	a5, 0x16f5e <__ratio+0x6e>
   16f2c: 4a f0        	sd	s2, 0x20(sp)
   16f2e: 9b 97 47 01  	slliw	a5, a5, 0x14
   16f32: 22 89        	mv	s2, s0
   16f34: 01 90        	srli	s0, s0, 0x20
   16f36: a1 9f        	addw	a5, a5, s0
   16f38: 02 19        	slli	s2, s2, 0x20
   16f3a: 13 59 09 02  	srli	s2, s2, 0x20
   16f3e: 82 17        	slli	a5, a5, 0x20
   16f40: 33 64 f9 00  	or	s0, s2, a5
   16f44: 02 79        	ld	s2, 0x20(sp)
   16f46: d3 07 04 f2  	fmv.d.x	fa5, s0
   16f4a: e2 70        	ld	ra, 0x38(sp)
   16f4c: 42 74        	ld	s0, 0x30(sp)
   16f4e: 53 07 07 f2  	fmv.d.x	fa4, a4
   16f52: a2 74        	ld	s1, 0x28(sp)
   16f54: e2 69        	ld	s3, 0x18(sp)
   16f56: 53 f5 e7 1a  	fdiv.d	fa0, fa5, fa4
   16f5a: 21 61        	addi	sp, sp, 0x40
   16f5c: 82 80        	ret
   16f5e: bb 07 f0 40  	negw	a5, a5
   16f62: ba 86        	mv	a3, a4
   16f64: 9b 97 47 01  	slliw	a5, a5, 0x14
   16f68: 01 93        	srli	a4, a4, 0x20
   16f6a: b9 9f        	addw	a5, a5, a4
   16f6c: 82 16        	slli	a3, a3, 0x20
   16f6e: 81 92        	srli	a3, a3, 0x20
   16f70: 82 17        	slli	a5, a5, 0x20
   16f72: 33 e7 f6 00  	or	a4, a3, a5
   16f76: c1 bf        	j	0x16f46 <__ratio+0x56>

0000000000016f78 <_mprec_log10>:
   16f78: dd 47        	li	a5, 0x17
   16f7a: 63 df a7 00  	bge	a5, a0, 0x16f98 <_mprec_log10+0x20>
   16f7e: 97 a7 00 00  	auipc	a5, 0xa
   16f82: 07 b5 27 40  	fld	fa0, 0x402(a5)
   16f86: 97 a7 00 00  	auipc	a5, 0xa
   16f8a: 87 b7 27 40  	fld	fa5, 0x402(a5)
   16f8e: 7d 35        	addiw	a0, a0, -0x1
   16f90: 53 75 f5 12  	fmul.d	fa0, fa0, fa5
   16f94: 6d fd        	bnez	a0, 0x16f8e <_mprec_log10+0x16>
   16f96: 82 80        	ret
   16f98: 0e 05        	slli	a0, a0, 0x3
   16f9a: 97 87 00 00  	auipc	a5, 0x8
   16f9e: 93 87 e7 aa  	addi	a5, a5, -0x552
   16fa2: aa 97        	add	a5, a5, a0
   16fa4: 88 23        	fld	fa0, 0x0(a5)
   16fa6: 82 80        	ret

0000000000016fa8 <__copybits>:
   16fa8: 54 4a        	lw	a3, 0x14(a2)
   16faa: fd 35        	addiw	a1, a1, -0x1
   16fac: 9b d5 55 40  	sraiw	a1, a1, 0x5
   16fb0: 85 25        	addiw	a1, a1, 0x1
   16fb2: 8a 06        	slli	a3, a3, 0x2
   16fb4: 93 07 86 01  	addi	a5, a2, 0x18
   16fb8: 8a 05        	slli	a1, a1, 0x2
   16fba: be 96        	add	a3, a3, a5
   16fbc: aa 95        	add	a1, a1, a0
   16fbe: 63 f0 d7 02  	bgeu	a5, a3, 0x16fde <__copybits+0x36>
   16fc2: 2a 87        	mv	a4, a0
   16fc4: 03 a8 07 00  	lw	a6, 0x0(a5)
   16fc8: 91 07        	addi	a5, a5, 0x4
   16fca: 11 07        	addi	a4, a4, 0x4
   16fcc: 23 2e 07 ff  	sw	a6, -0x4(a4)
   16fd0: e3 ea d7 fe  	bltu	a5, a3, 0x16fc4 <__copybits+0x1c>
   16fd4: 91 8e        	sub	a3, a3, a2
   16fd6: 9d 16        	addi	a3, a3, -0x19
   16fd8: f1 9a        	andi	a3, a3, -0x4
   16fda: 11 05        	addi	a0, a0, 0x4
   16fdc: 36 95        	add	a0, a0, a3
   16fde: 63 77 b5 00  	bgeu	a0, a1, 0x16fec <__copybits+0x44>
   16fe2: 11 05        	addi	a0, a0, 0x4
   16fe4: 23 2e 05 fe  	sw	zero, -0x4(a0)
   16fe8: e3 6d b5 fe  	bltu	a0, a1, 0x16fe2 <__copybits+0x3a>
   16fec: 82 80        	ret

0000000000016fee <__any_on>:
   16fee: 58 49        	lw	a4, 0x14(a0)
   16ff0: 1b d6 55 40  	sraiw	a2, a1, 0x5
   16ff4: 93 06 85 01  	addi	a3, a0, 0x18
   16ff8: 63 5d c7 00  	bge	a4, a2, 0x17012 <__any_on+0x24>
   16ffc: 0a 07        	slli	a4, a4, 0x2
   16ffe: b3 87 e6 00  	add	a5, a3, a4
   17002: 63 f8 f6 02  	bgeu	a3, a5, 0x17032 <__any_on+0x44>
   17006: 03 a7 c7 ff  	lw	a4, -0x4(a5)
   1700a: f1 17        	addi	a5, a5, -0x4
   1700c: 7d db        	beqz	a4, 0x17002 <__any_on+0x14>
   1700e: 05 45        	li	a0, 0x1
   17010: 82 80        	ret
   17012: 93 17 26 00  	slli	a5, a2, 0x2
   17016: b6 97        	add	a5, a5, a3
   17018: e3 55 e6 fe  	bge	a2, a4, 0x17002 <__any_on+0x14>
   1701c: fd 89        	andi	a1, a1, 0x1f
   1701e: f5 d1        	beqz	a1, 0x17002 <__any_on+0x14>
   17020: 90 43        	lw	a2, 0x0(a5)
   17022: 05 45        	li	a0, 0x1
   17024: 3b 57 b6 00  	srlw	a4, a2, a1
   17028: 3b 17 b7 00  	sllw	a4, a4, a1
   1702c: e3 0b c7 fc  	beq	a4, a2, 0x17002 <__any_on+0x14>
   17030: 82 80        	ret
   17032: 01 45        	li	a0, 0x0
   17034: 82 80        	ret

0000000000017036 <cleanup_glue>:
   17036: 79 71        	addi	sp, sp, -0x30
   17038: 4a e8        	sd	s2, 0x10(sp)
   1703a: 03 b9 05 00  	ld	s2, 0x0(a1)
   1703e: 22 f0        	sd	s0, 0x20(sp)
   17040: 26 ec        	sd	s1, 0x18(sp)
   17042: 06 f4        	sd	ra, 0x28(sp)
   17044: 2e 84        	mv	s0, a1
   17046: aa 84        	mv	s1, a0
   17048: 63 0f 09 02  	beqz	s2, 0x17086 <cleanup_glue+0x50>
   1704c: 4e e4        	sd	s3, 0x8(sp)
   1704e: 83 39 09 00  	ld	s3, 0x0(s2)
   17052: 63 85 09 02  	beqz	s3, 0x1707c <cleanup_glue+0x46>
   17056: 52 e0        	sd	s4, 0x0(sp)
   17058: 03 ba 09 00  	ld	s4, 0x0(s3)
   1705c: 63 0b 0a 00  	beqz	s4, 0x17072 <cleanup_glue+0x3c>
   17060: 83 35 0a 00  	ld	a1, 0x0(s4)
   17064: 99 c1        	beqz	a1, 0x1706a <cleanup_glue+0x34>
   17066: ef f0 1f fd  	jal	0x17036 <cleanup_glue>
   1706a: d2 85        	mv	a1, s4
   1706c: 26 85        	mv	a0, s1
   1706e: ef c0 0f b3  	jal	0x1339e <_free_r>
   17072: ce 85        	mv	a1, s3
   17074: 26 85        	mv	a0, s1
   17076: ef c0 8f b2  	jal	0x1339e <_free_r>
   1707a: 02 6a        	ld	s4, 0x0(sp)
   1707c: ca 85        	mv	a1, s2
   1707e: 26 85        	mv	a0, s1
   17080: ef c0 ef b1  	jal	0x1339e <_free_r>
   17084: a2 69        	ld	s3, 0x8(sp)
   17086: a2 85        	mv	a1, s0
   17088: 02 74        	ld	s0, 0x20(sp)
   1708a: a2 70        	ld	ra, 0x28(sp)
   1708c: 42 69        	ld	s2, 0x10(sp)
   1708e: 26 85        	mv	a0, s1
   17090: e2 64        	ld	s1, 0x18(sp)
   17092: 45 61        	addi	sp, sp, 0x30
   17094: 6f c0 af b0  	j	0x1339e <_free_r>

0000000000017098 <_reclaim_reent>:
   17098: 83 b7 81 70  	ld	a5, 0x708(gp)
   1709c: 63 84 a7 0a  	beq	a5, a0, 0x17144 <_reclaim_reent+0xac>
   170a0: 2c 7d        	ld	a1, 0x78(a0)
   170a2: 79 71        	addi	sp, sp, -0x30
   170a4: 26 ec        	sd	s1, 0x18(sp)
   170a6: 06 f4        	sd	ra, 0x28(sp)
   170a8: 22 f0        	sd	s0, 0x20(sp)
   170aa: 4a e8        	sd	s2, 0x10(sp)
   170ac: aa 84        	mv	s1, a0
   170ae: 9d c5        	beqz	a1, 0x170dc <_reclaim_reent+0x44>
   170b0: 4e e4        	sd	s3, 0x8(sp)
   170b2: 01 49        	li	s2, 0x0
   170b4: 93 09 00 20  	li	s3, 0x200
   170b8: b3 87 25 01  	add	a5, a1, s2
   170bc: 80 63        	ld	s0, 0x0(a5)
   170be: 01 c8        	beqz	s0, 0x170ce <_reclaim_reent+0x36>
   170c0: a2 85        	mv	a1, s0
   170c2: 00 60        	ld	s0, 0x0(s0)
   170c4: 26 85        	mv	a0, s1
   170c6: ef c0 8f ad  	jal	0x1339e <_free_r>
   170ca: 7d f8        	bnez	s0, 0x170c0 <_reclaim_reent+0x28>
   170cc: ac 7c        	ld	a1, 0x78(s1)
   170ce: 21 09        	addi	s2, s2, 0x8
   170d0: e3 14 39 ff  	bne	s2, s3, 0x170b8 <_reclaim_reent+0x20>
   170d4: 26 85        	mv	a0, s1
   170d6: ef c0 8f ac  	jal	0x1339e <_free_r>
   170da: a2 69        	ld	s3, 0x8(sp)
   170dc: ac 70        	ld	a1, 0x60(s1)
   170de: 81 c5        	beqz	a1, 0x170e6 <_reclaim_reent+0x4e>
   170e0: 26 85        	mv	a0, s1
   170e2: ef c0 cf ab  	jal	0x1339e <_free_r>
   170e6: 03 b4 84 1f  	ld	s0, 0x1f8(s1)
   170ea: 01 cc        	beqz	s0, 0x17102 <_reclaim_reent+0x6a>
   170ec: 13 89 04 20  	addi	s2, s1, 0x200
   170f0: 63 09 24 01  	beq	s0, s2, 0x17102 <_reclaim_reent+0x6a>
   170f4: a2 85        	mv	a1, s0
   170f6: 00 60        	ld	s0, 0x0(s0)
   170f8: 26 85        	mv	a0, s1
   170fa: ef c0 4f aa  	jal	0x1339e <_free_r>
   170fe: e3 1b 89 fe  	bne	s2, s0, 0x170f4 <_reclaim_reent+0x5c>
   17102: cc 64        	ld	a1, 0x88(s1)
   17104: 81 c5        	beqz	a1, 0x1710c <_reclaim_reent+0x74>
   17106: 26 85        	mv	a0, s1
   17108: ef c0 6f a9  	jal	0x1339e <_free_r>
   1710c: bc 48        	lw	a5, 0x50(s1)
   1710e: 8d c7        	beqz	a5, 0x17138 <_reclaim_reent+0xa0>
   17110: bc 6c        	ld	a5, 0x58(s1)
   17112: 26 85        	mv	a0, s1
   17114: 82 97        	jalr	a5
   17116: 03 b4 04 52  	ld	s0, 0x520(s1)
   1711a: 19 cc        	beqz	s0, 0x17138 <_reclaim_reent+0xa0>
   1711c: 0c 60        	ld	a1, 0x0(s0)
   1711e: 81 c5        	beqz	a1, 0x17126 <_reclaim_reent+0x8e>
   17120: 26 85        	mv	a0, s1
   17122: ef f0 5f f1  	jal	0x17036 <cleanup_glue>
   17126: a2 85        	mv	a1, s0
   17128: 02 74        	ld	s0, 0x20(sp)
   1712a: a2 70        	ld	ra, 0x28(sp)
   1712c: 42 69        	ld	s2, 0x10(sp)
   1712e: 26 85        	mv	a0, s1
   17130: e2 64        	ld	s1, 0x18(sp)
   17132: 45 61        	addi	sp, sp, 0x30
   17134: 6f c0 af a6  	j	0x1339e <_free_r>
   17138: a2 70        	ld	ra, 0x28(sp)
   1713a: 02 74        	ld	s0, 0x20(sp)
   1713c: e2 64        	ld	s1, 0x18(sp)
   1713e: 42 69        	ld	s2, 0x10(sp)
   17140: 45 61        	addi	sp, sp, 0x30
   17142: 82 80        	ret
   17144: 82 80        	ret

0000000000017146 <frexp>:
   17146: d3 07 05 e2  	fmv.x.d	a5, fa0
   1714a: 37 06 00 80  	lui	a2, 0x80000
   1714e: 13 46 f6 ff  	not	a2, a2
   17152: 93 d6 07 42  	srai	a3, a5, 0x20
   17156: 23 20 05 00  	sw	zero, 0x0(a0)
   1715a: 33 f7 c6 00  	and	a4, a3, a2
   1715e: b7 05 f0 7f  	lui	a1, 0x7ff00
   17162: 63 7b b7 02  	bgeu	a4, a1, 0x17198 <frexp+0x52>
   17166: 33 68 f7 00  	or	a6, a4, a5
   1716a: 01 28        	sext.w	a6, a6
   1716c: 63 06 08 02  	beqz	a6, 0x17198 <frexp+0x52>
   17170: f5 8d        	and	a1, a1, a3
   17172: 95 c5        	beqz	a1, 0x1719e <frexp+0x58>
   17174: 81 45        	li	a1, 0x0
   17176: 37 06 10 80  	lui	a2, 0x80100
   1717a: 7d 16        	addi	a2, a2, -0x1
   1717c: f1 8e        	and	a3, a3, a2
   1717e: 1b 57 47 41  	sraiw	a4, a4, 0x14
   17182: 37 06 e0 3f  	lui	a2, 0x3fe00
   17186: 82 17        	slli	a5, a5, 0x20
   17188: 1b 07 27 c0  	addiw	a4, a4, -0x3fe
   1718c: d1 8e        	or	a3, a3, a2
   1718e: 81 93        	srli	a5, a5, 0x20
   17190: 2d 9f        	addw	a4, a4, a1
   17192: 82 16        	slli	a3, a3, 0x20
   17194: 18 c1        	sw	a4, 0x0(a0)
   17196: d5 8f        	or	a5, a5, a3
   17198: 53 85 07 f2  	fmv.d.x	fa0, a5
   1719c: 82 80        	ret
   1719e: 17 a7 00 00  	auipc	a4, 0xa
   171a2: 87 37 27 1f  	fld	fa5, 0x1f2(a4)
   171a6: 93 05 a0 fc  	li	a1, -0x36
   171aa: d3 77 f5 12  	fmul.d	fa5, fa0, fa5
   171ae: d3 87 07 e2  	fmv.x.d	a5, fa5
   171b2: 93 d6 07 42  	srai	a3, a5, 0x20
   171b6: 33 f7 c6 00  	and	a4, a3, a2
   171ba: 75 bf        	j	0x17176 <frexp+0x30>

00000000000171bc <_sbrk_r>:
   171bc: 41 11        	addi	sp, sp, -0x10
   171be: 22 e0        	sd	s0, 0x0(sp)
   171c0: 2a 84        	mv	s0, a0
   171c2: 2e 85        	mv	a0, a1
   171c4: 23 a4 01 78  	sw	zero, 0x788(gp)
   171c8: 06 e4        	sd	ra, 0x8(sp)
   171ca: ef 50 30 56  	jal	0x1cf2c <_sbrk>
   171ce: fd 57        	li	a5, -0x1
   171d0: 63 06 f5 00  	beq	a0, a5, 0x171dc <_sbrk_r+0x20>
   171d4: a2 60        	ld	ra, 0x8(sp)
   171d6: 02 64        	ld	s0, 0x0(sp)
   171d8: 41 01        	addi	sp, sp, 0x10
   171da: 82 80        	ret
   171dc: 83 a7 81 78  	lw	a5, 0x788(gp)
   171e0: f5 db        	beqz	a5, 0x171d4 <_sbrk_r+0x18>
   171e2: a2 60        	ld	ra, 0x8(sp)
   171e4: 1c c0        	sw	a5, 0x0(s0)
   171e6: 02 64        	ld	s0, 0x0(sp)
   171e8: 41 01        	addi	sp, sp, 0x10
   171ea: 82 80        	ret

00000000000171ec <_sprintf_r>:
   171ec: 11 71        	addi	sp, sp, -0x100
   171ee: 13 0f 81 0d  	addi	t5, sp, 0xd8
   171f2: 37 03 00 80  	lui	t1, 0x80000
   171f6: c1 7e        	lui	t4, 0xffff0
   171f8: 2e 8e        	mv	t3, a1
   171fa: b6 ed        	sd	a3, 0xd8(sp)
   171fc: 7d 13        	addi	t1, t1, -0x1
   171fe: 93 8e 8e 20  	addi	t4, t4, 0x208
   17202: 2c 00        	addi	a1, sp, 0x8
   17204: fa 86        	mv	a3, t5
   17206: 86 e5        	sd	ra, 0xc8(sp)
   17208: be f5        	sd	a5, 0xe8(sp)
   1720a: 72 e4        	sd	t3, 0x8(sp)
   1720c: 72 f0        	sd	t3, 0x20(sp)
   1720e: ba f1        	sd	a4, 0xe0(sp)
   17210: c2 f9        	sd	a6, 0xf0(sp)
   17212: c6 fd        	sd	a7, 0xf8(sp)
   17214: 1a ca        	sw	t1, 0x14(sp)
   17216: 1a d4        	sw	t1, 0x28(sp)
   17218: 76 cc        	sw	t4, 0x18(sp)
   1721a: 7a e0        	sd	t5, 0x0(sp)
   1721c: ef 00 60 2f  	jal	0x17512 <_svfprintf_r>
   17220: a2 67        	ld	a5, 0x8(sp)
   17222: 23 80 07 00  	sb	zero, 0x0(a5)
   17226: ae 60        	ld	ra, 0xc8(sp)
   17228: 11 61        	addi	sp, sp, 0x100
   1722a: 82 80        	ret

000000000001722c <sprintf>:
   1722c: 11 71        	addi	sp, sp, -0x100
   1722e: 2a 8e        	mv	t3, a0
   17230: 03 b5 81 70  	ld	a0, 0x708(gp)
   17234: 13 0f 01 0d  	addi	t5, sp, 0xd0
   17238: 37 03 00 80  	lui	t1, 0x80000
   1723c: c1 7e        	lui	t4, 0xffff0
   1723e: b2 e9        	sd	a2, 0xd0(sp)
   17240: b6 ed        	sd	a3, 0xd8(sp)
   17242: 7d 13        	addi	t1, t1, -0x1
   17244: 2e 86        	mv	a2, a1
   17246: 93 8e 8e 20  	addi	t4, t4, 0x208
   1724a: 2c 00        	addi	a1, sp, 0x8
   1724c: fa 86        	mv	a3, t5
   1724e: 86 e5        	sd	ra, 0xc8(sp)
   17250: be f5        	sd	a5, 0xe8(sp)
   17252: 72 e4        	sd	t3, 0x8(sp)
   17254: 72 f0        	sd	t3, 0x20(sp)
   17256: ba f1        	sd	a4, 0xe0(sp)
   17258: c2 f9        	sd	a6, 0xf0(sp)
   1725a: c6 fd        	sd	a7, 0xf8(sp)
   1725c: 1a ca        	sw	t1, 0x14(sp)
   1725e: 1a d4        	sw	t1, 0x28(sp)
   17260: 76 cc        	sw	t4, 0x18(sp)
   17262: 7a e0        	sd	t5, 0x0(sp)
   17264: ef 00 e0 2a  	jal	0x17512 <_svfprintf_r>
   17268: a2 67        	ld	a5, 0x8(sp)
   1726a: 23 80 07 00  	sb	zero, 0x0(a5)
   1726e: ae 60        	ld	ra, 0xc8(sp)
   17270: 11 61        	addi	sp, sp, 0x100
   17272: 82 80        	ret

0000000000017274 <__sread>:
   17274: 41 11        	addi	sp, sp, -0x10
   17276: 22 e0        	sd	s0, 0x0(sp)
   17278: 2e 84        	mv	s0, a1
   1727a: 83 95 25 01  	lh	a1, 0x12(a1)
   1727e: 06 e4        	sd	ra, 0x8(sp)
   17280: ef 40 c0 00  	jal	0x1b28c <_read_r>
   17284: 63 49 05 00  	bltz	a0, 0x17296 <__sread+0x22>
   17288: 5c 68        	ld	a5, 0x90(s0)
   1728a: a2 60        	ld	ra, 0x8(sp)
   1728c: aa 97        	add	a5, a5, a0
   1728e: 5c e8        	sd	a5, 0x90(s0)
   17290: 02 64        	ld	s0, 0x0(sp)
   17292: 41 01        	addi	sp, sp, 0x10
   17294: 82 80        	ret
   17296: 83 57 04 01  	lhu	a5, 0x10(s0)
   1729a: 7d 77        	lui	a4, 0xfffff
   1729c: 7d 17        	addi	a4, a4, -0x1
   1729e: f9 8f        	and	a5, a5, a4
   172a0: a2 60        	ld	ra, 0x8(sp)
   172a2: 23 18 f4 00  	sh	a5, 0x10(s0)
   172a6: 02 64        	ld	s0, 0x0(sp)
   172a8: 41 01        	addi	sp, sp, 0x10
   172aa: 82 80        	ret

00000000000172ac <__seofread>:
   172ac: 01 45        	li	a0, 0x0
   172ae: 82 80        	ret

00000000000172b0 <__swrite>:
   172b0: 83 97 05 01  	lh	a5, 0x10(a1)
   172b4: 79 71        	addi	sp, sp, -0x30
   172b6: 22 f0        	sd	s0, 0x20(sp)
   172b8: 26 ec        	sd	s1, 0x18(sp)
   172ba: 4a e8        	sd	s2, 0x10(sp)
   172bc: 4e e4        	sd	s3, 0x8(sp)
   172be: 06 f4        	sd	ra, 0x28(sp)
   172c0: 13 f7 07 10  	andi	a4, a5, 0x100
   172c4: 2e 84        	mv	s0, a1
   172c6: 32 89        	mv	s2, a2
   172c8: b6 89        	mv	s3, a3
   172ca: aa 84        	mv	s1, a0
   172cc: 1d e3        	bnez	a4, 0x172f2 <__swrite+0x42>
   172ce: 7d 77        	lui	a4, 0xfffff
   172d0: 7d 17        	addi	a4, a4, -0x1
   172d2: f9 8f        	and	a5, a5, a4
   172d4: 83 15 24 01  	lh	a1, 0x12(s0)
   172d8: 23 18 f4 00  	sh	a5, 0x10(s0)
   172dc: 02 74        	ld	s0, 0x20(sp)
   172de: a2 70        	ld	ra, 0x28(sp)
   172e0: ce 86        	mv	a3, s3
   172e2: 4a 86        	mv	a2, s2
   172e4: a2 69        	ld	s3, 0x8(sp)
   172e6: 42 69        	ld	s2, 0x10(sp)
   172e8: 26 85        	mv	a0, s1
   172ea: e2 64        	ld	s1, 0x18(sp)
   172ec: 45 61        	addi	sp, sp, 0x30
   172ee: 6f 30 00 41  	j	0x1a6fe <_write_r>
   172f2: 83 95 25 01  	lh	a1, 0x12(a1)
   172f6: 89 46        	li	a3, 0x2
   172f8: 01 46        	li	a2, 0x0
   172fa: ef 30 10 57  	jal	0x1b06a <_lseek_r>
   172fe: 83 17 04 01  	lh	a5, 0x10(s0)
   17302: f1 b7        	j	0x172ce <__swrite+0x1e>

0000000000017304 <__sseek>:
   17304: 41 11        	addi	sp, sp, -0x10
   17306: 22 e0        	sd	s0, 0x0(sp)
   17308: 2e 84        	mv	s0, a1
   1730a: 83 95 25 01  	lh	a1, 0x12(a1)
   1730e: 06 e4        	sd	ra, 0x8(sp)
   17310: ef 30 b0 55  	jal	0x1b06a <_lseek_r>
   17314: 7d 57        	li	a4, -0x1
   17316: 83 17 04 01  	lh	a5, 0x10(s0)
   1731a: 63 0b e5 00  	beq	a0, a4, 0x17330 <__sseek+0x2c>
   1731e: 05 67        	lui	a4, 0x1
   17320: d9 8f        	or	a5, a5, a4
   17322: a2 60        	ld	ra, 0x8(sp)
   17324: 48 e8        	sd	a0, 0x90(s0)
   17326: 23 18 f4 00  	sh	a5, 0x10(s0)
   1732a: 02 64        	ld	s0, 0x0(sp)
   1732c: 41 01        	addi	sp, sp, 0x10
   1732e: 82 80        	ret
   17330: 7d 77        	lui	a4, 0xfffff
   17332: 7d 17        	addi	a4, a4, -0x1
   17334: f9 8f        	and	a5, a5, a4
   17336: a2 60        	ld	ra, 0x8(sp)
   17338: 23 18 f4 00  	sh	a5, 0x10(s0)
   1733c: 02 64        	ld	s0, 0x0(sp)
   1733e: 41 01        	addi	sp, sp, 0x10
   17340: 82 80        	ret

0000000000017342 <__sclose>:
   17342: 83 95 25 01  	lh	a1, 0x12(a1)
   17346: 6f 30 40 56  	j	0x1a8aa <_close_r>
   1734a: 00 00        	unimp

000000000001734c <strcpy>:
   1734c: b3 67 b5 00  	or	a5, a0, a1
   17350: 9d 8b        	andi	a5, a5, 0x7
   17352: d9 e3        	bnez	a5, 0x173d8 <strcpy+0x8c>
   17354: b7 87 7f 7f  	lui	a5, 0x7f7f8
   17358: 93 87 f7 f7  	addi	a5, a5, -0x81
   1735c: 98 61        	ld	a4, 0x0(a1)
   1735e: 93 96 07 02  	slli	a3, a5, 0x20
   17362: be 96        	add	a3, a3, a5
   17364: 33 78 d7 00  	and	a6, a4, a3
   17368: 36 98        	add	a6, a6, a3
   1736a: 33 68 e8 00  	or	a6, a6, a4
   1736e: 33 68 d8 00  	or	a6, a6, a3
   17372: fd 57        	li	a5, -0x1
   17374: 2a 86        	mv	a2, a0
   17376: 63 1d f8 00  	bne	a6, a5, 0x17390 <strcpy+0x44>
   1737a: a1 05        	addi	a1, a1, 0x8
   1737c: 18 e2        	sd	a4, 0x0(a2)
   1737e: 98 61        	ld	a4, 0x0(a1)
   17380: 21 06        	addi	a2, a2, 0x8
   17382: b3 77 d7 00  	and	a5, a4, a3
   17386: b6 97        	add	a5, a5, a3
   17388: d9 8f        	or	a5, a5, a4
   1738a: d5 8f        	or	a5, a5, a3
   1738c: e3 87 07 ff  	beq	a5, a6, 0x1737a <strcpy+0x2e>
   17390: 83 c7 05 00  	lbu	a5, 0x0(a1)
   17394: 03 c7 15 00  	lbu	a4, 0x1(a1)
   17398: 83 c6 25 00  	lbu	a3, 0x2(a1)
   1739c: 23 00 f6 00  	sb	a5, 0x0(a2)
   173a0: 9d cb        	beqz	a5, 0x173d6 <strcpy+0x8a>
   173a2: a3 00 e6 00  	sb	a4, 0x1(a2)
   173a6: 05 cb        	beqz	a4, 0x173d6 <strcpy+0x8a>
   173a8: 83 c7 35 00  	lbu	a5, 0x3(a1)
   173ac: 23 01 d6 00  	sb	a3, 0x2(a2)
   173b0: 9d c2        	beqz	a3, 0x173d6 <strcpy+0x8a>
   173b2: 03 c7 45 00  	lbu	a4, 0x4(a1)
   173b6: a3 01 f6 00  	sb	a5, 0x3(a2)
   173ba: 91 cf        	beqz	a5, 0x173d6 <strcpy+0x8a>
   173bc: 83 c7 55 00  	lbu	a5, 0x5(a1)
   173c0: 23 02 e6 00  	sb	a4, 0x4(a2)
   173c4: 09 cb        	beqz	a4, 0x173d6 <strcpy+0x8a>
   173c6: 03 c7 65 00  	lbu	a4, 0x6(a1)
   173ca: a3 02 f6 00  	sb	a5, 0x5(a2)
   173ce: 81 c7        	beqz	a5, 0x173d6 <strcpy+0x8a>
   173d0: 23 03 e6 00  	sb	a4, 0x6(a2)
   173d4: 19 eb        	bnez	a4, 0x173ea <strcpy+0x9e>
   173d6: 82 80        	ret
   173d8: aa 87        	mv	a5, a0
   173da: 03 c7 05 00  	lbu	a4, 0x0(a1)
   173de: 85 07        	addi	a5, a5, 0x1
   173e0: 85 05        	addi	a1, a1, 0x1
   173e2: a3 8f e7 fe  	sb	a4, -0x1(a5)
   173e6: 75 fb        	bnez	a4, 0x173da <strcpy+0x8e>
   173e8: 82 80        	ret
   173ea: a3 03 06 00  	sb	zero, 0x7(a2)
   173ee: 82 80        	ret
   173f0: 00 00        	unimp
   173f2: 00 00        	unimp

00000000000173f4 <strlen>:
   173f4: 93 77 75 00  	andi	a5, a0, 0x7
   173f8: 2a 87        	mv	a4, a0
   173fa: b1 ef        	bnez	a5, 0x17456 <strlen+0x62>
   173fc: b7 87 7f 7f  	lui	a5, 0x7f7f8
   17400: 93 87 f7 f7  	addi	a5, a5, -0x81
   17404: 93 96 07 02  	slli	a3, a5, 0x20
   17408: be 96        	add	a3, a3, a5
   1740a: fd 55        	li	a1, -0x1
   1740c: 10 63        	ld	a2, 0x0(a4)
   1740e: 21 07        	addi	a4, a4, 0x8
   17410: b3 77 d6 00  	and	a5, a2, a3
   17414: b6 97        	add	a5, a5, a3
   17416: d1 8f        	or	a5, a5, a2
   17418: d5 8f        	or	a5, a5, a3
   1741a: e3 89 b7 fe  	beq	a5, a1, 0x1740c <strlen+0x18>
   1741e: 83 46 87 ff  	lbu	a3, -0x8(a4)
   17422: b3 07 a7 40  	sub	a5, a4, a0
   17426: a9 c6        	beqz	a3, 0x17470 <strlen+0x7c>
   17428: 83 46 97 ff  	lbu	a3, -0x7(a4)
   1742c: 9d ce        	beqz	a3, 0x1746a <strlen+0x76>
   1742e: 83 46 a7 ff  	lbu	a3, -0x6(a4)
   17432: a9 c6        	beqz	a3, 0x1747c <strlen+0x88>
   17434: 83 46 b7 ff  	lbu	a3, -0x5(a4)
   17438: 9d ce        	beqz	a3, 0x17476 <strlen+0x82>
   1743a: 83 46 c7 ff  	lbu	a3, -0x4(a4)
   1743e: b1 c2        	beqz	a3, 0x17482 <strlen+0x8e>
   17440: 83 46 d7 ff  	lbu	a3, -0x3(a4)
   17444: b1 c2        	beqz	a3, 0x17488 <strlen+0x94>
   17446: 03 45 e7 ff  	lbu	a0, -0x2(a4)
   1744a: 33 35 a0 00  	snez	a0, a0
   1744e: 3e 95        	add	a0, a0, a5
   17450: 79 15        	addi	a0, a0, -0x2
   17452: 82 80        	ret
   17454: c5 d6        	beqz	a3, 0x173fc <strlen+0x8>
   17456: 83 47 07 00  	lbu	a5, 0x0(a4)
   1745a: 05 07        	addi	a4, a4, 0x1
   1745c: 93 76 77 00  	andi	a3, a4, 0x7
   17460: f5 fb        	bnez	a5, 0x17454 <strlen+0x60>
   17462: 09 8f        	sub	a4, a4, a0
   17464: 13 05 f7 ff  	addi	a0, a4, -0x1
   17468: 82 80        	ret
   1746a: 13 85 97 ff  	addi	a0, a5, -0x7
   1746e: 82 80        	ret
   17470: 13 85 87 ff  	addi	a0, a5, -0x8
   17474: 82 80        	ret
   17476: 13 85 b7 ff  	addi	a0, a5, -0x5
   1747a: 82 80        	ret
   1747c: 13 85 a7 ff  	addi	a0, a5, -0x6
   17480: 82 80        	ret
   17482: 13 85 c7 ff  	addi	a0, a5, -0x4
   17486: 82 80        	ret
   17488: 13 85 d7 ff  	addi	a0, a5, -0x3
   1748c: 82 80        	ret

000000000001748e <strncpy>:
   1748e: b3 e7 a5 00  	or	a5, a1, a0
   17492: 9d 8b        	andi	a5, a5, 0x7
   17494: 81 e7        	bnez	a5, 0x1749c <strncpy+0xe>
   17496: 9d 48        	li	a7, 0x7
   17498: 63 ef c8 02  	bltu	a7, a2, 0x174d6 <strncpy+0x48>
   1749c: aa 87        	mv	a5, a0
   1749e: b3 88 c5 00  	add	a7, a1, a2
   174a2: 2e 87        	mv	a4, a1
   174a4: 09 a8        	j	0x174b6 <strncpy+0x28>
   174a6: 83 46 07 00  	lbu	a3, 0x0(a4)
   174aa: 13 08 17 00  	addi	a6, a4, 0x1
   174ae: a3 8f d7 fe  	sb	a3, -0x1(a5)
   174b2: 91 c6        	beqz	a3, 0x174be <strncpy+0x30>
   174b4: 42 87        	mv	a4, a6
   174b6: 85 07        	addi	a5, a5, 0x1
   174b8: e3 17 17 ff  	bne	a4, a7, 0x174a6 <strncpy+0x18>
   174bc: 82 80        	ret
   174be: 7d 16        	addi	a2, a2, -0x1
   174c0: b2 95        	add	a1, a1, a2
   174c2: 99 8d        	sub	a1, a1, a4
   174c4: 33 87 b7 00  	add	a4, a5, a1
   174c8: a1 c5        	beqz	a1, 0x17510 <strncpy+0x82>
   174ca: 85 07        	addi	a5, a5, 0x1
   174cc: a3 8f 07 fe  	sb	zero, -0x1(a5)
   174d0: e3 9d e7 fe  	bne	a5, a4, 0x174ca <strncpy+0x3c>
   174d4: 82 80        	ret
   174d6: b7 07 ff fe  	lui	a5, 0xfeff0
   174da: 93 87 f7 ef  	addi	a5, a5, -0x101
   174de: 17 ae 00 00  	auipc	t3, 0xa
   174e2: 03 3e ae e9  	ld	t3, -0x166(t3)
   174e6: 13 93 07 02  	slli	t1, a5, 0x20
   174ea: 3e 93        	add	t1, t1, a5
   174ec: aa 87        	mv	a5, a0
   174ee: 94 61        	ld	a3, 0x0(a1)
   174f0: 33 87 66 00  	add	a4, a3, t1
   174f4: 13 c8 f6 ff  	not	a6, a3
   174f8: 33 77 07 01  	and	a4, a4, a6
   174fc: 33 77 c7 01  	and	a4, a4, t3
   17500: 59 ff        	bnez	a4, 0x1749e <strncpy+0x10>
   17502: 61 16        	addi	a2, a2, -0x8
   17504: 94 e3        	sd	a3, 0x0(a5)
   17506: a1 07        	addi	a5, a5, 0x8
   17508: a1 05        	addi	a1, a1, 0x8
   1750a: e3 e2 c8 fe  	bltu	a7, a2, 0x174ee <strncpy+0x60>
   1750e: 41 bf        	j	0x1749e <strncpy+0x10>
   17510: 82 80        	ret

0000000000017512 <_svfprintf_r>:
   17512: 13 01 01 db  	addi	sp, sp, -0x250
   17516: 23 34 11 24  	sd	ra, 0x248(sp)
   1751a: 23 30 81 24  	sd	s0, 0x240(sp)
   1751e: 23 30 81 21  	sd	s8, 0x200(sp)
   17522: 2e 84        	mv	s0, a1
   17524: 2e e8        	sd	a1, 0x10(sp)
   17526: 32 8c        	mv	s8, a2
   17528: 36 f4        	sd	a3, 0x28(sp)
   1752a: 2a e4        	sd	a0, 0x8(sp)
   1752c: ef e0 ef d2  	jal	0x15a5a <_localeconv_r>
   17530: 1c 61        	ld	a5, 0x0(a0)
   17532: 3e 85        	mv	a0, a5
   17534: be ec        	sd	a5, 0x58(sp)
   17536: ef f0 ff eb  	jal	0x173f4 <strlen>
   1753a: 03 57 04 01  	lhu	a4, 0x10(s0)
   1753e: 82 e9        	sd	zero, 0xd0(sp)
   17540: 82 ed        	sd	zero, 0xd8(sp)
   17542: 13 77 07 08  	andi	a4, a4, 0x80
   17546: aa e8        	sd	a0, 0x50(sp)
   17548: 09 c7        	beqz	a4, 0x17552 <_svfprintf_r+0x40>
   1754a: 18 6c        	ld	a4, 0x18(s0)
   1754c: 19 e3        	bnez	a4, 0x17552 <_svfprintf_r+0x40>
   1754e: 6f 00 b0 7a  	j	0x184f8 <_svfprintf_r+0xfe6>
   17552: 23 3c 91 22  	sd	s1, 0x238(sp)
   17556: 23 38 21 23  	sd	s2, 0x230(sp)
   1755a: 23 34 31 23  	sd	s3, 0x228(sp)
   1755e: 23 30 41 23  	sd	s4, 0x220(sp)
   17562: 23 3c 51 21  	sd	s5, 0x218(sp)
   17566: 23 38 61 21  	sd	s6, 0x210(sp)
   1756a: 23 34 71 21  	sd	s7, 0x208(sp)
   1756e: e6 ff        	sd	s9, 0x1f8(sp)
   17570: ea fb        	sd	s10, 0x1f0(sp)
   17572: ee f7        	sd	s11, 0x1e8(sp)
   17574: e2 8b        	mv	s7, s8
   17576: 03 c7 0b 00  	lbu	a4, 0x0(s7)
   1757a: 93 09 01 16  	addi	s3, sp, 0x160
   1757e: 82 f9        	sd	zero, 0xf0(sp)
   17580: 82 d5        	sw	zero, 0xe8(sp)
   17582: ce f1        	sd	s3, 0xe0(sp)
   17584: 02 fc        	sd	zero, 0x38(sp)
   17586: 82 f0        	sd	zero, 0x60(sp)
   17588: 82 f8        	sd	zero, 0x70(sp)
   1758a: 82 fc        	sd	zero, 0x78(sp)
   1758c: 82 f4        	sd	zero, 0x68(sp)
   1758e: 02 ec        	sd	zero, 0x18(sp)
   17590: 13 04 50 02  	li	s0, 0x25
   17594: c1 44        	li	s1, 0x10
   17596: 4e 89        	mv	s2, s3
   17598: 63 08 07 18  	beqz	a4, 0x17728 <_svfprintf_r+0x216>
   1759c: de 8a        	mv	s5, s7
   1759e: 63 02 87 1e  	beq	a4, s0, 0x17782 <_svfprintf_r+0x270>
   175a2: 03 c7 1a 00  	lbu	a4, 0x1(s5)
   175a6: 85 0a        	addi	s5, s5, 0x1
   175a8: 7d fb        	bnez	a4, 0x1759e <_svfprintf_r+0x8c>
   175aa: 3b 8a 7a 41  	subw	s4, s5, s7
   175ae: 63 0d 0a 16  	beqz	s4, 0x17728 <_svfprintf_r+0x216>
   175b2: ce 76        	ld	a3, 0xf0(sp)
   175b4: 2e 57        	lw	a4, 0xe8(sp)
   175b6: 23 30 79 01  	sd	s7, 0x0(s2)
   175ba: d2 96        	add	a3, a3, s4
   175bc: 05 27        	addiw	a4, a4, 0x1
   175be: 23 34 49 01  	sd	s4, 0x8(s2)
   175c2: b6 f9        	sd	a3, 0xf0(sp)
   175c4: ba d5        	sw	a4, 0xe8(sp)
   175c6: 9d 46        	li	a3, 0x7
   175c8: 41 09        	addi	s2, s2, 0x10
   175ca: 63 c3 e6 1c  	blt	a3, a4, 0x17790 <_svfprintf_r+0x27e>
   175ce: e2 67        	ld	a5, 0x18(sp)
   175d0: 03 c7 0a 00  	lbu	a4, 0x0(s5)
   175d4: bb 87 47 01  	addw	a5, a5, s4
   175d8: 3e ec        	sd	a5, 0x18(sp)
   175da: 63 07 07 14  	beqz	a4, 0x17728 <_svfprintf_r+0x216>
   175de: 7d 53        	li	t1, -0x1
   175e0: 03 ce 1a 00  	lbu	t3, 0x1(s5)
   175e4: a3 07 01 0a  	sb	zero, 0xaf(sp)
   175e8: 85 0a        	addi	s5, s5, 0x1
   175ea: 81 4c        	li	s9, 0x0
   175ec: 01 4b        	li	s6, 0x0
   175ee: 13 0a a0 05  	li	s4, 0x5a
   175f2: 1a 8c        	mv	s8, t1
   175f4: 85 0a        	addi	s5, s5, 0x1
   175f6: 9b 07 0e fe  	addiw	a5, t3, -0x20
   175fa: 63 67 fa 04  	bltu	s4, a5, 0x17648 <_svfprintf_r+0x136>
   175fe: 13 97 07 02  	slli	a4, a5, 0x20
   17602: 93 57 e7 01  	srli	a5, a4, 0x1e
   17606: 17 77 00 00  	auipc	a4, 0x7
   1760a: 13 07 a7 50  	addi	a4, a4, 0x50a
   1760e: ba 97        	add	a5, a5, a4
   17610: 9c 43        	lw	a5, 0x0(a5)
   17612: ba 97        	add	a5, a5, a4
   17614: 82 87        	jr	a5
   17616: 81 4c        	li	s9, 0x0
   17618: a5 46        	li	a3, 0x9
   1761a: 03 c7 0a 00  	lbu	a4, 0x0(s5)
   1761e: 9b 97 2c 00  	slliw	a5, s9, 0x2
   17622: bb 8c 97 01  	addw	s9, a5, s9
   17626: 1b 0e 0e fd  	addiw	t3, t3, -0x30
   1762a: 9b 9c 1c 00  	slliw	s9, s9, 0x1
   1762e: 9b 07 07 fd  	addiw	a5, a4, -0x30
   17632: 85 0a        	addi	s5, s5, 0x1
   17634: bb 0c 9e 01  	addw	s9, t3, s9
   17638: 1b 0e 07 00  	sext.w	t3, a4
   1763c: e3 ff f6 fc  	bgeu	a3, a5, 0x1761a <_svfprintf_r+0x108>
   17640: 9b 07 0e fe  	addiw	a5, t3, -0x20
   17644: e3 7d fa fa  	bgeu	s4, a5, 0x175fe <_svfprintf_r+0xec>
   17648: 63 00 0e 0e  	beqz	t3, 0x17728 <_svfprintf_r+0x216>
   1764c: 05 4c        	li	s8, 0x1
   1764e: 23 0c c1 0f  	sb	t3, 0xf8(sp)
   17652: a3 07 01 0a  	sb	zero, 0xaf(sp)
   17656: e2 8d        	mv	s11, s8
   17658: 02 f0        	sd	zero, 0x20(sp)
   1765a: 01 43        	li	t1, 0x0
   1765c: 82 e4        	sd	zero, 0x48(sp)
   1765e: 82 e0        	sd	zero, 0x40(sp)
   17660: 02 f8        	sd	zero, 0x30(sp)
   17662: 93 0b 81 0f  	addi	s7, sp, 0xf8
   17666: 4e 7a        	ld	s4, 0xf0(sp)
   17668: 13 7d 4b 08  	andi	s10, s6, 0x84
   1766c: 52 86        	mv	a2, s4
   1766e: 63 03 0d 32  	beqz	s10, 0x17994 <_svfprintf_r+0x482>
   17672: 03 47 f1 0a  	lbu	a4, 0xaf(sp)
   17676: 31 c3        	beqz	a4, 0x176ba <_svfprintf_r+0x1a8>
   17678: ae 55        	lw	a1, 0xe8(sp)
   1767a: 01 47        	li	a4, 0x0
   1767c: 85 46        	li	a3, 0x1
   1767e: 05 0a        	addi	s4, s4, 0x1
   17680: 85 25        	addiw	a1, a1, 0x1
   17682: 13 06 f1 0a  	addi	a2, sp, 0xaf
   17686: 23 34 d9 00  	sd	a3, 0x8(s2)
   1768a: 23 30 c9 00  	sd	a2, 0x0(s2)
   1768e: d2 f9        	sd	s4, 0xf0(sp)
   17690: ae d5        	sw	a1, 0xe8(sp)
   17692: 9d 46        	li	a3, 0x7
   17694: 41 09        	addi	s2, s2, 0x10
   17696: 63 cb b6 1a  	blt	a3, a1, 0x1784c <_svfprintf_r+0x33a>
   1769a: 05 c3        	beqz	a4, 0x176ba <_svfprintf_r+0x1a8>
   1769c: ae 55        	lw	a1, 0xe8(sp)
   1769e: 09 47        	li	a4, 0x2
   176a0: 09 0a        	addi	s4, s4, 0x2
   176a2: 85 25        	addiw	a1, a1, 0x1
   176a4: 14 19        	addi	a3, sp, 0xb0
   176a6: 23 34 e9 00  	sd	a4, 0x8(s2)
   176aa: 23 30 d9 00  	sd	a3, 0x0(s2)
   176ae: d2 f9        	sd	s4, 0xf0(sp)
   176b0: ae d5        	sw	a1, 0xe8(sp)
   176b2: 1d 47        	li	a4, 0x7
   176b4: 41 09        	addi	s2, s2, 0x10
   176b6: e3 4d b7 14  	blt	a4, a1, 0x18010 <_svfprintf_r+0xafe>
   176ba: 13 07 00 08  	li	a4, 0x80
   176be: e3 05 ed 08  	beq	s10, a4, 0x17f48 <_svfprintf_r+0xa36>
   176c2: 3b 03 83 41  	subw	t1, t1, s8
   176c6: 63 43 60 2e  	bgtz	t1, 0x179ac <_svfprintf_r+0x49a>
   176ca: 13 77 0b 10  	andi	a4, s6, 0x100
   176ce: 63 1c 07 36  	bnez	a4, 0x17a46 <_svfprintf_r+0x534>
   176d2: 2e 57        	lw	a4, 0xe8(sp)
   176d4: 62 9a        	add	s4, s4, s8
   176d6: d2 f9        	sd	s4, 0xf0(sp)
   176d8: 05 27        	addiw	a4, a4, 0x1
   176da: 23 30 79 01  	sd	s7, 0x0(s2)
   176de: 23 34 89 01  	sd	s8, 0x8(s2)
   176e2: ba d5        	sw	a4, 0xe8(sp)
   176e4: 9d 47        	li	a5, 0x7
   176e6: 63 cf e7 20  	blt	a5, a4, 0x17904 <_svfprintf_r+0x3f2>
   176ea: 41 09        	addi	s2, s2, 0x10
   176ec: 13 7f 4b 00  	andi	t5, s6, 0x4
   176f0: 63 06 0f 00  	beqz	t5, 0x176fc <_svfprintf_r+0x1ea>
   176f4: 3b 8c bc 41  	subw	s8, s9, s11
   176f8: e3 4a 80 13  	bgtz	s8, 0x1802c <_svfprintf_r+0xb1a>
   176fc: e6 87        	mv	a5, s9
   176fe: 63 d3 bc 01  	bge	s9, s11, 0x17704 <_svfprintf_r+0x1f2>
   17702: ee 87        	mv	a5, s11
   17704: 62 67        	ld	a4, 0x18(sp)
   17706: b9 9f        	addw	a5, a5, a4
   17708: 3e ec        	sd	a5, 0x18(sp)
   1770a: e3 13 0a 0e  	bnez	s4, 0x17ff0 <_svfprintf_r+0xade>
   1770e: 82 77        	ld	a5, 0x20(sp)
   17710: 82 d5        	sw	zero, 0xe8(sp)
   17712: 89 c7        	beqz	a5, 0x1771c <_svfprintf_r+0x20a>
   17714: 82 75        	ld	a1, 0x20(sp)
   17716: 22 65        	ld	a0, 0x8(sp)
   17718: ef b0 7f c8  	jal	0x1339e <_free_r>
   1771c: 4e 89        	mv	s2, s3
   1771e: d6 8b        	mv	s7, s5
   17720: 03 c7 0b 00  	lbu	a4, 0x0(s7)
   17724: e3 1c 07 e6  	bnez	a4, 0x1759c <_svfprintf_r+0x8a>
   17728: ce 77        	ld	a5, 0xf0(sp)
   1772a: 99 c3        	beqz	a5, 0x17730 <_svfprintf_r+0x21e>
   1772c: 6f 10 c0 7c  	j	0x18ef8 <_svfprintf_r+0x19e6>
   17730: c2 67        	ld	a5, 0x10(sp)
   17732: 83 34 81 23  	ld	s1, 0x238(sp)
   17736: 03 39 01 23  	ld	s2, 0x230(sp)
   1773a: 83 d7 07 01  	lhu	a5, 0x10(a5)
   1773e: 83 39 81 22  	ld	s3, 0x228(sp)
   17742: 03 3a 01 22  	ld	s4, 0x220(sp)
   17746: 93 f7 07 04  	andi	a5, a5, 0x40
   1774a: 83 3a 81 21  	ld	s5, 0x218(sp)
   1774e: 03 3b 01 21  	ld	s6, 0x210(sp)
   17752: 83 3b 81 20  	ld	s7, 0x208(sp)
   17756: fe 7c        	ld	s9, 0x1f8(sp)
   17758: 5e 7d        	ld	s10, 0x1f0(sp)
   1775a: be 7d        	ld	s11, 0x1e8(sp)
   1775c: 99 c3        	beqz	a5, 0x17762 <_svfprintf_r+0x250>
   1775e: 6f 10 b0 5f  	j	0x19558 <_svfprintf_r+0x2046>
   17762: 83 30 81 24  	ld	ra, 0x248(sp)
   17766: 03 34 01 24  	ld	s0, 0x240(sp)
   1776a: 62 65        	ld	a0, 0x18(sp)
   1776c: 03 3c 01 20  	ld	s8, 0x200(sp)
   17770: 13 01 01 25  	addi	sp, sp, 0x250
   17774: 82 80        	ret
   17776: 13 6b 0b 01  	ori	s6, s6, 0x10
   1777a: 03 ce 0a 00  	lbu	t3, 0x0(s5)
   1777e: 01 2b        	sext.w	s6, s6
   17780: 95 bd        	j	0x175f4 <_svfprintf_r+0xe2>
   17782: 3b 8a 7a 41  	subw	s4, s5, s7
   17786: e3 16 0a e2  	bnez	s4, 0x175b2 <_svfprintf_r+0xa0>
   1778a: 03 c7 0a 00  	lbu	a4, 0x0(s5)
   1778e: b1 b5        	j	0x175da <_svfprintf_r+0xc8>
   17790: c2 65        	ld	a1, 0x10(sp)
   17792: 22 65        	ld	a0, 0x8(sp)
   17794: 90 11        	addi	a2, sp, 0xe0
   17796: ef 40 40 04  	jal	0x1b7da <__ssprint_r>
   1779a: 59 f9        	bnez	a0, 0x17730 <_svfprintf_r+0x21e>
   1779c: 4e 89        	mv	s2, s3
   1779e: 05 bd        	j	0x175ce <_svfprintf_r+0xbc>
   177a0: 13 77 8b 00  	andi	a4, s6, 0x8
   177a4: 62 83        	mv	t1, s8
   177a6: e3 16 07 3c  	bnez	a4, 0x18372 <_svfprintf_r+0xe60>
   177aa: a2 77        	ld	a5, 0x28(sp)
   177ac: 72 f0        	sd	t3, 0x20(sp)
   177ae: 62 f8        	sd	s8, 0x30(sp)
   177b0: 88 23        	fld	fa0, 0x0(a5)
   177b2: 13 8d 87 00  	addi	s10, a5, 0x8
   177b6: ef 60 90 15  	jal	0x1e10e <__extenddftf2>
   177ba: 42 73        	ld	t1, 0x30(sp)
   177bc: 02 7e        	ld	t3, 0x20(sp)
   177be: 6a f4        	sd	s10, 0x28(sp)
   177c0: 2a 87        	mv	a4, a0
   177c2: 88 09        	addi	a0, sp, 0xd0
   177c4: 1a f8        	sd	t1, 0x30(sp)
   177c6: 72 f0        	sd	t3, 0x20(sp)
   177c8: ba e9        	sd	a4, 0xd0(sp)
   177ca: ae ed        	sd	a1, 0xd8(sp)
   177cc: ef e0 6f a4  	jal	0x15a12 <_ldcheck>
   177d0: 2a dd        	sw	a0, 0xb8(sp)
   177d2: 09 47        	li	a4, 0x2
   177d4: 02 7e        	ld	t3, 0x20(sp)
   177d6: 42 73        	ld	t1, 0x30(sp)
   177d8: 63 14 e5 00  	bne	a0, a4, 0x177e0 <_svfprintf_r+0x2ce>
   177dc: 6f 10 80 12  	j	0x18904 <_svfprintf_r+0x13f2>
   177e0: 85 46        	li	a3, 0x1
   177e2: 63 14 d5 00  	bne	a0, a3, 0x177ea <_svfprintf_r+0x2d8>
   177e6: 6f 10 a0 53  	j	0x18d20 <_svfprintf_r+0x180e>
   177ea: 13 07 10 06  	li	a4, 0x61
   177ee: 63 14 ee 00  	bne	t3, a4, 0x177f6 <_svfprintf_r+0x2e4>
   177f2: 6f 10 c0 28  	j	0x18a7e <_svfprintf_r+0x156c>
   177f6: 13 07 10 04  	li	a4, 0x41
   177fa: 93 07 80 05  	li	a5, 0x58
   177fe: 63 14 ee 00  	bne	t3, a4, 0x17806 <_svfprintf_r+0x2f4>
   17802: 6f 10 00 28  	j	0x18a82 <_svfprintf_r+0x1570>
   17806: 7d 57        	li	a4, -0x1
   17808: 63 14 e3 00  	bne	t1, a4, 0x17810 <_svfprintf_r+0x2fe>
   1780c: 6f 10 a0 74  	j	0x18f56 <_svfprintf_r+0x1a44>
   17810: ce 67        	ld	a5, 0xd0(sp)
   17812: 13 6c 0b 10  	ori	s8, s6, 0x100
   17816: 13 06 70 06  	li	a2, 0x67
   1781a: 6e 6a        	ld	s4, 0xd8(sp)
   1781c: 01 2c        	sext.w	s8, s8
   1781e: be 8d        	mv	s11, a5
   17820: 63 14 ce 00  	bne	t3, a2, 0x17828 <_svfprintf_r+0x316>
   17824: 6f 10 90 41  	j	0x1943c <_svfprintf_r+0x1f2a>
   17828: 13 06 70 04  	li	a2, 0x47
   1782c: 63 14 ce 00  	bne	t3, a2, 0x17834 <_svfprintf_r+0x322>
   17830: 6f 10 90 2e  	j	0x19318 <_svfprintf_r+0x1e06>
   17834: da e0        	sd	s6, 0x40(sp)
   17836: 63 54 0a 00  	bgez	s4, 0x1783e <_svfprintf_r+0x32c>
   1783a: 6f 10 50 48  	j	0x194be <_svfprintf_r+0x1fac>
   1783e: 9b 06 fe fb  	addiw	a3, t3, -0x41
   17842: 62 8b        	mv	s6, s8
   17844: 02 f0        	sd	zero, 0x20(sp)
   17846: 02 e1        	sd	zero, 0x80(sp)
   17848: 6f 10 40 27  	j	0x18abc <_svfprintf_r+0x15aa>
   1784c: c2 65        	ld	a1, 0x10(sp)
   1784e: 22 65        	ld	a0, 0x8(sp)
   17850: 90 11        	addi	a2, sp, 0xe0
   17852: 1a e9        	sd	t1, 0x90(sp)
   17854: 72 e5        	sd	t3, 0x88(sp)
   17856: 3a e1        	sd	a4, 0x80(sp)
   17858: ef 30 30 78  	jal	0x1b7da <__ssprint_r>
   1785c: 63 11 05 7a  	bnez	a0, 0x17ffe <_svfprintf_r+0xaec>
   17860: 4e 7a        	ld	s4, 0xf0(sp)
   17862: 4a 63        	ld	t1, 0x90(sp)
   17864: 2a 6e        	ld	t3, 0x88(sp)
   17866: 0a 67        	ld	a4, 0x80(sp)
   17868: 4e 89        	mv	s2, s3
   1786a: 05 bd        	j	0x1769a <_svfprintf_r+0x188>
   1786c: 2e 5c        	lw	s8, 0xe8(sp)
   1786e: e2 77        	ld	a5, 0x38(sp)
   17870: 85 46        	li	a3, 0x1
   17872: 05 2c        	addiw	s8, s8, 0x1
   17874: 36 9a        	add	s4, s4, a3
   17876: 62 87        	mv	a4, s8
   17878: 93 08 09 01  	addi	a7, s2, 0x10
   1787c: e3 de f6 1e  	bge	a3, a5, 0x18278 <_svfprintf_r+0xd66>
   17880: 85 46        	li	a3, 0x1
   17882: 23 34 d9 00  	sd	a3, 0x8(s2)
   17886: 23 30 79 01  	sd	s7, 0x0(s2)
   1788a: d2 f9        	sd	s4, 0xf0(sp)
   1788c: ba d5        	sw	a4, 0xe8(sp)
   1788e: 9d 46        	li	a3, 0x7
   17890: e3 ca e6 26  	blt	a3, a4, 0x18304 <_svfprintf_r+0xdf2>
   17894: c6 67        	ld	a5, 0x50(sp)
   17896: 66 67        	ld	a4, 0x58(sp)
   17898: 05 2c        	addiw	s8, s8, 0x1
   1789a: 3e 9a        	add	s4, s4, a5
   1789c: 23 b0 e8 00  	sd	a4, 0x0(a7)
   178a0: 23 b4 f8 00  	sd	a5, 0x8(a7)
   178a4: d2 f9        	sd	s4, 0xf0(sp)
   178a6: e2 d5        	sw	s8, 0xe8(sp)
   178a8: 1d 47        	li	a4, 0x7
   178aa: c1 08        	addi	a7, a7, 0x10
   178ac: e3 48 87 27  	blt	a4, s8, 0x1831c <_svfprintf_r+0xe0a>
   178b0: e2 77        	ld	a5, 0x38(sp)
   178b2: 4e 65        	ld	a0, 0xd0(sp)
   178b4: ee 65        	ld	a1, 0xd8(sp)
   178b6: 01 46        	li	a2, 0x0
   178b8: 81 46        	li	a3, 0x0
   178ba: 46 f8        	sd	a7, 0x30(sp)
   178bc: 1b 89 f7 ff  	addiw	s2, a5, -0x1
   178c0: ef 50 80 76  	jal	0x1d028 <__netf2>
   178c4: c2 78        	ld	a7, 0x30(sp)
   178c6: e3 02 05 1e  	beqz	a0, 0x182aa <_svfprintf_r+0xd98>
   178ca: 93 87 1b 00  	addi	a5, s7, 0x1
   178ce: 05 2c        	addiw	s8, s8, 0x1
   178d0: 4a 9a        	add	s4, s4, s2
   178d2: 23 b0 f8 00  	sd	a5, 0x0(a7)
   178d6: e2 d5        	sw	s8, 0xe8(sp)
   178d8: d2 f9        	sd	s4, 0xf0(sp)
   178da: 23 b4 28 01  	sd	s2, 0x8(a7)
   178de: 9d 47        	li	a5, 0x7
   178e0: e3 c9 87 1b  	blt	a5, s8, 0x18292 <_svfprintf_r+0xd80>
   178e4: c1 08        	addi	a7, a7, 0x10
   178e6: 06 77        	ld	a4, 0x60(sp)
   178e8: 9c 01        	addi	a5, sp, 0xc0
   178ea: 05 2c        	addiw	s8, s8, 0x1
   178ec: 3a 9a        	add	s4, s4, a4
   178ee: 23 b0 f8 00  	sd	a5, 0x0(a7)
   178f2: d2 f9        	sd	s4, 0xf0(sp)
   178f4: e2 d5        	sw	s8, 0xe8(sp)
   178f6: 23 b4 e8 00  	sd	a4, 0x8(a7)
   178fa: 9d 47        	li	a5, 0x7
   178fc: 13 89 08 01  	addi	s2, a7, 0x10
   17900: e3 d6 87 df  	bge	a5, s8, 0x176ec <_svfprintf_r+0x1da>
   17904: c2 65        	ld	a1, 0x10(sp)
   17906: 22 65        	ld	a0, 0x8(sp)
   17908: 90 11        	addi	a2, sp, 0xe0
   1790a: ef 30 10 6d  	jal	0x1b7da <__ssprint_r>
   1790e: 63 18 05 6e  	bnez	a0, 0x17ffe <_svfprintf_r+0xaec>
   17912: 4e 7a        	ld	s4, 0xf0(sp)
   17914: 4e 89        	mv	s2, s3
   17916: d9 bb        	j	0x176ec <_svfprintf_r+0x1da>
   17918: 22 77        	ld	a4, 0x28(sp)
   1791a: 05 4c        	li	s8, 0x1
   1791c: a3 07 01 0a  	sb	zero, 0xaf(sp)
   17920: 1c 43        	lw	a5, 0x0(a4)
   17922: 23 0c f1 0e  	sb	a5, 0xf8(sp)
   17926: 93 07 87 00  	addi	a5, a4, 0x8
   1792a: 3e f4        	sd	a5, 0x28(sp)
   1792c: 2d b3        	j	0x17656 <_svfprintf_r+0x144>
   1792e: a2 77        	ld	a5, 0x28(sp)
   17930: a3 07 01 0a  	sb	zero, 0xaf(sp)
   17934: 83 bb 07 00  	ld	s7, 0x0(a5)
   17938: 13 8d 87 00  	addi	s10, a5, 0x8
   1793c: 63 94 0b 00  	bnez	s7, 0x17944 <_svfprintf_r+0x432>
   17940: 6f 10 20 02  	j	0x18962 <_svfprintf_r+0x1450>
   17944: e3 4a 0c 44  	bltz	s8, 0x18598 <_svfprintf_r+0x1086>
   17948: 62 86        	mv	a2, s8
   1794a: 81 45        	li	a1, 0x0
   1794c: 5e 85        	mv	a0, s7
   1794e: 72 f8        	sd	t3, 0x30(sp)
   17950: 62 f4        	sd	s8, 0x28(sp)
   17952: ef e0 5f 91  	jal	0x16266 <memchr>
   17956: 2a f0        	sd	a0, 0x20(sp)
   17958: 03 47 f1 0a  	lbu	a4, 0xaf(sp)
   1795c: 22 73        	ld	t1, 0x28(sp)
   1795e: 42 7e        	ld	t3, 0x30(sp)
   17960: 19 e1        	bnez	a0, 0x17966 <_svfprintf_r+0x454>
   17962: 6f 10 b0 10  	j	0x1926c <_svfprintf_r+0x1d5a>
   17966: 3b 0c 75 41  	subw	s8, a0, s7
   1796a: e2 86        	mv	a3, s8
   1796c: 63 54 0c 00  	bgez	s8, 0x17974 <_svfprintf_r+0x462>
   17970: 6f 10 20 55  	j	0x18ec2 <_svfprintf_r+0x19b0>
   17974: b6 8d        	mv	s11, a3
   17976: 19 c3        	beqz	a4, 0x1797c <_svfprintf_r+0x46a>
   17978: 6f 10 60 4b  	j	0x18e2e <_svfprintf_r+0x191c>
   1797c: 6a f4        	sd	s10, 0x28(sp)
   1797e: 4e 7a        	ld	s4, 0xf0(sp)
   17980: 02 f0        	sd	zero, 0x20(sp)
   17982: 82 e4        	sd	zero, 0x48(sp)
   17984: 82 e0        	sd	zero, 0x40(sp)
   17986: 02 f8        	sd	zero, 0x30(sp)
   17988: 13 7d 4b 08  	andi	s10, s6, 0x84
   1798c: 01 43        	li	t1, 0x0
   1798e: 52 86        	mv	a2, s4
   17990: e3 11 0d ce  	bnez	s10, 0x17672 <_svfprintf_r+0x160>
   17994: 3b 87 bc 41  	subw	a4, s9, s11
   17998: e3 46 e0 04  	bgtz	a4, 0x181e4 <_svfprintf_r+0xcd2>
   1799c: 03 47 f1 0a  	lbu	a4, 0xaf(sp)
   179a0: e3 1c 07 cc  	bnez	a4, 0x17678 <_svfprintf_r+0x166>
   179a4: 3b 03 83 41  	subw	t1, t1, s8
   179a8: e3 51 60 d2  	blez	t1, 0x176ca <_svfprintf_r+0x1b8>
   179ac: 2e 56        	lw	a2, 0xe8(sp)
   179ae: 17 7d 00 00  	auipc	s10, 0x7
   179b2: 13 0d 2d 2d  	addi	s10, s10, 0x2d2
   179b6: 63 dd 64 04  	bge	s1, t1, 0x17a10 <_svfprintf_r+0x4fe>
   179ba: ca 87        	mv	a5, s2
   179bc: 52 87        	mv	a4, s4
   179be: 9d 46        	li	a3, 0x7
   179c0: 6a 8a        	mv	s4, s10
   179c2: 1a 89        	mv	s2, t1
   179c4: 5e 8d        	mv	s10, s7
   179c6: da 8b        	mv	s7, s6
   179c8: 72 8b        	mv	s6, t3
   179ca: 21 a0        	j	0x179d2 <_svfprintf_r+0x4c0>
   179cc: 41 39        	addiw	s2, s2, -0x10
   179ce: 63 da 24 03  	bge	s1, s2, 0x17a02 <_svfprintf_r+0x4f0>
   179d2: 41 07        	addi	a4, a4, 0x10
   179d4: 05 26        	addiw	a2, a2, 0x1
   179d6: 23 b0 47 01  	sd	s4, 0x0(a5)
   179da: 84 e7        	sd	s1, 0x8(a5)
   179dc: ba f9        	sd	a4, 0xf0(sp)
   179de: b2 d5        	sw	a2, 0xe8(sp)
   179e0: c1 07        	addi	a5, a5, 0x10
   179e2: e3 d5 c6 fe  	bge	a3, a2, 0x179cc <_svfprintf_r+0x4ba>
   179e6: c2 65        	ld	a1, 0x10(sp)
   179e8: 22 65        	ld	a0, 0x8(sp)
   179ea: 90 11        	addi	a2, sp, 0xe0
   179ec: ef 30 f0 5e  	jal	0x1b7da <__ssprint_r>
   179f0: 63 17 05 60  	bnez	a0, 0x17ffe <_svfprintf_r+0xaec>
   179f4: 41 39        	addiw	s2, s2, -0x10
   179f6: 4e 77        	ld	a4, 0xf0(sp)
   179f8: 2e 56        	lw	a2, 0xe8(sp)
   179fa: ce 87        	mv	a5, s3
   179fc: 9d 46        	li	a3, 0x7
   179fe: e3 ca 24 fd  	blt	s1, s2, 0x179d2 <_svfprintf_r+0x4c0>
   17a02: 4a 83        	mv	t1, s2
   17a04: 5a 8e        	mv	t3, s6
   17a06: 3e 89        	mv	s2, a5
   17a08: 5e 8b        	mv	s6, s7
   17a0a: ea 8b        	mv	s7, s10
   17a0c: 52 8d        	mv	s10, s4
   17a0e: 3a 8a        	mv	s4, a4
   17a10: 1a 9a        	add	s4, s4, t1
   17a12: 05 26        	addiw	a2, a2, 0x1
   17a14: 23 30 a9 01  	sd	s10, 0x0(s2)
   17a18: 23 34 69 00  	sd	t1, 0x8(s2)
   17a1c: d2 f9        	sd	s4, 0xf0(sp)
   17a1e: b2 d5        	sw	a2, 0xe8(sp)
   17a20: 1d 47        	li	a4, 0x7
   17a22: 41 09        	addi	s2, s2, 0x10
   17a24: e3 53 c7 ca  	bge	a4, a2, 0x176ca <_svfprintf_r+0x1b8>
   17a28: c2 65        	ld	a1, 0x10(sp)
   17a2a: 22 65        	ld	a0, 0x8(sp)
   17a2c: 90 11        	addi	a2, sp, 0xe0
   17a2e: 72 e1        	sd	t3, 0x80(sp)
   17a30: ef 30 b0 5a  	jal	0x1b7da <__ssprint_r>
   17a34: 63 15 05 5c  	bnez	a0, 0x17ffe <_svfprintf_r+0xaec>
   17a38: 13 77 0b 10  	andi	a4, s6, 0x100
   17a3c: 4e 7a        	ld	s4, 0xf0(sp)
   17a3e: 0a 6e        	ld	t3, 0x80(sp)
   17a40: 4e 89        	mv	s2, s3
   17a42: e3 08 07 c8  	beqz	a4, 0x176d2 <_svfprintf_r+0x1c0>
   17a46: 13 07 50 06  	li	a4, 0x65
   17a4a: e3 51 c7 e3  	bge	a4, t3, 0x1786c <_svfprintf_r+0x35a>
   17a4e: 4e 65        	ld	a0, 0xd0(sp)
   17a50: ee 65        	ld	a1, 0xd8(sp)
   17a52: 01 46        	li	a2, 0x0
   17a54: 81 46        	li	a3, 0x0
   17a56: ef 50 20 5d  	jal	0x1d028 <__netf2>
   17a5a: 63 11 05 66  	bnez	a0, 0x180bc <_svfprintf_r+0xbaa>
   17a5e: ae 57        	lw	a5, 0xe8(sp)
   17a60: 05 47        	li	a4, 0x1
   17a62: 05 0a        	addi	s4, s4, 0x1
   17a64: 97 76 00 00  	auipc	a3, 0x7
   17a68: 93 86 46 a7  	addi	a3, a3, -0x58c
   17a6c: 85 27        	addiw	a5, a5, 0x1
   17a6e: 23 34 e9 00  	sd	a4, 0x8(s2)
   17a72: 23 30 d9 00  	sd	a3, 0x0(s2)
   17a76: d2 f9        	sd	s4, 0xf0(sp)
   17a78: be d5        	sw	a5, 0xe8(sp)
   17a7a: 1d 47        	li	a4, 0x7
   17a7c: 41 09        	addi	s2, s2, 0x10
   17a7e: e3 45 f7 62  	blt	a4, a5, 0x188a8 <_svfprintf_r+0x1396>
   17a82: ea 57        	lw	a5, 0xb8(sp)
   17a84: 62 77        	ld	a4, 0x38(sp)
   17a86: e3 d7 e7 0a  	bge	a5, a4, 0x18334 <_svfprintf_r+0xe22>
   17a8a: 46 67        	ld	a4, 0x50(sp)
   17a8c: ae 57        	lw	a5, 0xe8(sp)
   17a8e: e6 66        	ld	a3, 0x58(sp)
   17a90: 3a 9a        	add	s4, s4, a4
   17a92: 85 27        	addiw	a5, a5, 0x1
   17a94: 23 34 e9 00  	sd	a4, 0x8(s2)
   17a98: 23 30 d9 00  	sd	a3, 0x0(s2)
   17a9c: d2 f9        	sd	s4, 0xf0(sp)
   17a9e: be d5        	sw	a5, 0xe8(sp)
   17aa0: 1d 47        	li	a4, 0x7
   17aa2: 41 09        	addi	s2, s2, 0x10
   17aa4: e3 47 f7 20  	blt	a4, a5, 0x184b2 <_svfprintf_r+0xfa0>
   17aa8: e2 77        	ld	a5, 0x38(sp)
   17aaa: 1b 8c f7 ff  	addiw	s8, a5, -0x1
   17aae: e3 5f 80 c3  	blez	s8, 0x176ec <_svfprintf_r+0x1da>
   17ab2: c1 46        	li	a3, 0x10
   17ab4: ae 57        	lw	a5, 0xe8(sp)
   17ab6: 17 7d 00 00  	auipc	s10, 0x7
   17aba: 13 0d ad 1c  	addi	s10, s10, 0x1ca
   17abe: e3 d5 86 61  	bge	a3, s8, 0x188c8 <_svfprintf_r+0x13b6>
   17ac2: 52 87        	mv	a4, s4
   17ac4: 36 83        	mv	t1, a3
   17ac6: 6a 8a        	mv	s4, s10
   17ac8: 9d 4b        	li	s7, 0x7
   17aca: 62 8d        	mv	s10, s8
   17acc: 5a 8c        	mv	s8, s6
   17ace: 56 8b        	mv	s6, s5
   17ad0: c2 6a        	ld	s5, 0x10(sp)
   17ad2: 21 a0        	j	0x17ada <_svfprintf_r+0x5c8>
   17ad4: 41 3d        	addiw	s10, s10, -0x10
   17ad6: e3 54 a3 5f  	bge	t1, s10, 0x188be <_svfprintf_r+0x13ac>
   17ada: 41 07        	addi	a4, a4, 0x10
   17adc: 85 27        	addiw	a5, a5, 0x1
   17ade: 23 30 49 01  	sd	s4, 0x0(s2)
   17ae2: 23 34 d9 00  	sd	a3, 0x8(s2)
   17ae6: ba f9        	sd	a4, 0xf0(sp)
   17ae8: be d5        	sw	a5, 0xe8(sp)
   17aea: 41 09        	addi	s2, s2, 0x10
   17aec: e3 d4 fb fe  	bge	s7, a5, 0x17ad4 <_svfprintf_r+0x5c2>
   17af0: 22 65        	ld	a0, 0x8(sp)
   17af2: 90 11        	addi	a2, sp, 0xe0
   17af4: d6 85        	mv	a1, s5
   17af6: ef 30 50 4e  	jal	0x1b7da <__ssprint_r>
   17afa: 63 12 05 50  	bnez	a0, 0x17ffe <_svfprintf_r+0xaec>
   17afe: 41 43        	li	t1, 0x10
   17b00: 4e 77        	ld	a4, 0xf0(sp)
   17b02: ae 57        	lw	a5, 0xe8(sp)
   17b04: 4e 89        	mv	s2, s3
   17b06: 9a 86        	mv	a3, t1
   17b08: f1 b7        	j	0x17ad4 <_svfprintf_r+0x5c2>
   17b0a: a2 77        	ld	a5, 0x28(sp)
   17b0c: 13 77 0b 02  	andi	a4, s6, 0x20
   17b10: 62 83        	mv	t1, s8
   17b12: a1 07        	addi	a5, a5, 0x8
   17b14: 41 e7        	bnez	a4, 0x17b9c <_svfprintf_r+0x68a>
   17b16: 13 77 0b 01  	andi	a4, s6, 0x10
   17b1a: 19 c3        	beqz	a4, 0x17b20 <_svfprintf_r+0x60e>
   17b1c: 6f 10 c0 7b  	j	0x192d8 <_svfprintf_r+0x1dc6>
   17b20: a2 76        	ld	a3, 0x28(sp)
   17b22: 13 77 0b 04  	andi	a4, s6, 0x40
   17b26: 03 aa 06 00  	lw	s4, 0x0(a3)
   17b2a: e3 02 07 72  	beqz	a4, 0x18a4e <_svfprintf_r+0x153c>
   17b2e: 1b 1a 0a 01  	slliw	s4, s4, 0x10
   17b32: 1b 5a 0a 41  	sraiw	s4, s4, 0x10
   17b36: 3e f4        	sd	a5, 0x28(sp)
   17b38: 52 87        	mv	a4, s4
   17b3a: 63 47 07 06  	bltz	a4, 0x17ba8 <_svfprintf_r+0x696>
   17b3e: 63 48 03 00  	bltz	t1, 0x17b4e <_svfprintf_r+0x63c>
   17b42: 13 7f fb f7  	andi	t5, s6, -0x81
   17b46: 1b 0b 0f 00  	sext.w	s6, t5
   17b4a: e3 09 0a 0e  	beqz	s4, 0x1843c <_svfprintf_r+0xf2a>
   17b4e: a5 4d        	li	s11, 0x9
   17b50: 63 eb 4d 07  	bltu	s11, s4, 0x17bc6 <_svfprintf_r+0x6b4>
   17b54: 9b 07 0a 03  	addiw	a5, s4, 0x30
   17b58: 93 f7 f7 0f  	andi	a5, a5, 0xff
   17b5c: a3 0d f1 14  	sb	a5, 0x15b(sp)
   17b60: 1a 88        	mv	a6, t1
   17b62: 63 43 60 00  	bgtz	t1, 0x17b68 <_svfprintf_r+0x656>
   17b66: 05 48        	li	a6, 0x1
   17b68: 03 47 f1 0a  	lbu	a4, 0xaf(sp)
   17b6c: 9b 0d 08 00  	sext.w	s11, a6
   17b70: 05 4c        	li	s8, 0x1
   17b72: 93 0b b1 15  	addi	s7, sp, 0x15b
   17b76: 63 0d 07 16  	beqz	a4, 0x17cf0 <_svfprintf_r+0x7de>
   17b7a: 85 2d        	addiw	s11, s11, 0x1
   17b7c: 02 f0        	sd	zero, 0x20(sp)
   17b7e: 82 e4        	sd	zero, 0x48(sp)
   17b80: 82 e0        	sd	zero, 0x40(sp)
   17b82: 02 f8        	sd	zero, 0x30(sp)
   17b84: cd b4        	j	0x17666 <_svfprintf_r+0x154>
   17b86: 93 66 0b 01  	ori	a3, s6, 0x10
   17b8a: 13 7f 0b 02  	andi	t5, s6, 0x20
   17b8e: 62 83        	mv	t1, s8
   17b90: 81 26        	sext.w	a3, a3
   17b92: 63 0b 0f 7e  	beqz	t5, 0x18388 <_svfprintf_r+0xe76>
   17b96: a2 77        	ld	a5, 0x28(sp)
   17b98: 36 8b        	mv	s6, a3
   17b9a: a1 07        	addi	a5, a5, 0x8
   17b9c: 22 77        	ld	a4, 0x28(sp)
   17b9e: 3e f4        	sd	a5, 0x28(sp)
   17ba0: 18 63        	ld	a4, 0x0(a4)
   17ba2: 3a 8a        	mv	s4, a4
   17ba4: e3 5d 07 f8  	bgez	a4, 0x17b3e <_svfprintf_r+0x62c>
   17ba8: 93 07 d0 02  	li	a5, 0x2d
   17bac: a3 07 f1 0a  	sb	a5, 0xaf(sp)
   17bb0: 33 0a 40 41  	neg	s4, s4
   17bb4: e3 4d 03 f8  	bltz	t1, 0x17b4e <_svfprintf_r+0x63c>
   17bb8: 13 7f fb f7  	andi	t5, s6, -0x81
   17bbc: a5 4d        	li	s11, 0x9
   17bbe: 1b 0b 0f 00  	sext.w	s6, t5
   17bc2: e3 f9 4d f9  	bgeu	s11, s4, 0x17b54 <_svfprintf_r+0x642>
   17bc6: b7 d7 cc cc  	lui	a5, 0xccccd
   17bca: 93 87 d7 cc  	addi	a5, a5, -0x333
   17bce: 13 9c 07 02  	slli	s8, a5, 0x20
   17bd2: 13 0d c1 15  	addi	s10, sp, 0x15c
   17bd6: c6 76        	ld	a3, 0x70(sp)
   17bd8: 3e 9c        	add	s8, s8, a5
   17bda: 6a 86        	mv	a2, s10
   17bdc: 93 7f 0b 40  	andi	t6, s6, 0x400
   17be0: 81 45        	li	a1, 0x0
   17be2: 13 08 f0 0f  	li	a6, 0xff
   17be6: 09 a8        	j	0x17bf8 <_svfprintf_r+0x6e6>
   17be8: d2 87        	mv	a5, s4
   17bea: 33 3a 8a 03  	mulhu	s4, s4, s8
   17bee: 5e 86        	mv	a2, s7
   17bf0: 13 5a 3a 00  	srli	s4, s4, 0x3
   17bf4: 63 fe fd 02  	bgeu	s11, a5, 0x17c30 <_svfprintf_r+0x71e>
   17bf8: 33 37 8a 03  	mulhu	a4, s4, s8
   17bfc: 85 25        	addiw	a1, a1, 0x1
   17bfe: 93 0b f6 ff  	addi	s7, a2, -0x1
   17c02: 0d 83        	srli	a4, a4, 0x3
   17c04: 93 17 27 00  	slli	a5, a4, 0x2
   17c08: ba 97        	add	a5, a5, a4
   17c0a: 86 07        	slli	a5, a5, 0x1
   17c0c: b3 07 fa 40  	sub	a5, s4, a5
   17c10: 9b 87 07 03  	addiw	a5, a5, 0x30
   17c14: a3 0f f6 fe  	sb	a5, -0x1(a2)
   17c18: e3 88 0f fc  	beqz	t6, 0x17be8 <_svfprintf_r+0x6d6>
   17c1c: 83 c7 06 00  	lbu	a5, 0x0(a3)
   17c20: e3 94 b7 fc  	bne	a5, a1, 0x17be8 <_svfprintf_r+0x6d6>
   17c24: e3 82 07 fd  	beq	a5, a6, 0x17be8 <_svfprintf_r+0x6d6>
   17c28: 63 f4 4d 01  	bgeu	s11, s4, 0x17c30 <_svfprintf_r+0x71e>
   17c2c: 6f 10 80 18  	j	0x18db4 <_svfprintf_r+0x18a2>
   17c30: b6 f8        	sd	a3, 0x70(sp)
   17c32: 2e fc        	sd	a1, 0x38(sp)
   17c34: 3b 0c 7d 41  	subw	s8, s10, s7
   17c38: 1a 88        	mv	a6, t1
   17c3a: 63 53 83 01  	bge	t1, s8, 0x17c40 <_svfprintf_r+0x72e>
   17c3e: 62 88        	mv	a6, s8
   17c40: 03 47 f1 0a  	lbu	a4, 0xaf(sp)
   17c44: 9b 0d 08 00  	sext.w	s11, a6
   17c48: 3d b7        	j	0x17b76 <_svfprintf_r+0x664>
   17c4a: a2 77        	ld	a5, 0x28(sp)
   17c4c: 83 ac 07 00  	lw	s9, 0x0(a5)
   17c50: a1 07        	addi	a5, a5, 0x8
   17c52: 63 d7 0c 6e  	bgez	s9, 0x18340 <_svfprintf_r+0xe2e>
   17c56: bb 0c 90 41  	negw	s9, s9
   17c5a: 3e f4        	sd	a5, 0x28(sp)
   17c5c: 13 6b 4b 00  	ori	s6, s6, 0x4
   17c60: 03 ce 0a 00  	lbu	t3, 0x0(s5)
   17c64: 01 2b        	sext.w	s6, s6
   17c66: 79 b2        	j	0x175f4 <_svfprintf_r+0xe2>
   17c68: a2 77        	ld	a5, 0x28(sp)
   17c6a: 13 68 0b 01  	ori	a6, s6, 0x10
   17c6e: 62 83        	mv	t1, s8
   17c70: 01 28        	sext.w	a6, a6
   17c72: a1 07        	addi	a5, a5, 0x8
   17c74: 22 77        	ld	a4, 0x28(sp)
   17c76: 18 63        	ld	a4, 0x0(a4)
   17c78: 3e f4        	sd	a5, 0x28(sp)
   17c7a: a3 07 01 0a  	sb	zero, 0xaf(sp)
   17c7e: 63 45 03 02  	bltz	t1, 0x17ca8 <_svfprintf_r+0x796>
   17c82: 13 7f f8 b7  	andi	t5, a6, -0x481
   17c86: 1b 0b 0f 00  	sext.w	s6, t5
   17c8a: 1d e3        	bnez	a4, 0x17cb0 <_svfprintf_r+0x79e>
   17c8c: 63 12 03 02  	bnez	t1, 0x17cb0 <_svfprintf_r+0x79e>
   17c90: 93 7d 18 00  	andi	s11, a6, 0x1
   17c94: e3 8d 0d 34  	beqz	s11, 0x187ee <_svfprintf_r+0x12dc>
   17c98: 93 07 00 03  	li	a5, 0x30
   17c9c: a3 0d f1 14  	sb	a5, 0x15b(sp)
   17ca0: 6e 8c        	mv	s8, s11
   17ca2: 93 0b b1 15  	addi	s7, sp, 0x15b
   17ca6: a9 a0        	j	0x17cf0 <_svfprintf_r+0x7de>
   17ca8: 13 78 f8 bf  	andi	a6, a6, -0x401
   17cac: 1b 0b 08 00  	sext.w	s6, a6
   17cb0: 13 0d c1 15  	addi	s10, sp, 0x15c
   17cb4: ea 8b        	mv	s7, s10
   17cb6: 93 76 77 00  	andi	a3, a4, 0x7
   17cba: 5e 86        	mv	a2, s7
   17cbc: 93 86 06 03  	addi	a3, a3, 0x30
   17cc0: 0d 83        	srli	a4, a4, 0x3
   17cc2: a3 8f db fe  	sb	a3, -0x1(s7)
   17cc6: fd 1b        	addi	s7, s7, -0x1
   17cc8: 7d f7        	bnez	a4, 0x17cb6 <_svfprintf_r+0x7a4>
   17cca: 13 77 1b 00  	andi	a4, s6, 0x1
   17cce: 63 0e 07 3c  	beqz	a4, 0x180aa <_svfprintf_r+0xb98>
   17cd2: 13 07 00 03  	li	a4, 0x30
   17cd6: 63 8a e6 3c  	beq	a3, a4, 0x180aa <_svfprintf_r+0xb98>
   17cda: 79 16        	addi	a2, a2, -0x2
   17cdc: 3b 0c cd 40  	subw	s8, s10, a2
   17ce0: a3 8f eb fe  	sb	a4, -0x1(s7)
   17ce4: 1a 88        	mv	a6, t1
   17ce6: 63 44 83 75  	blt	t1, s8, 0x1842e <_svfprintf_r+0xf1c>
   17cea: 9b 0d 08 00  	sext.w	s11, a6
   17cee: b2 8b        	mv	s7, a2
   17cf0: 02 f0        	sd	zero, 0x20(sp)
   17cf2: 82 e4        	sd	zero, 0x48(sp)
   17cf4: 82 e0        	sd	zero, 0x40(sp)
   17cf6: 02 f8        	sd	zero, 0x30(sp)
   17cf8: bd b2        	j	0x17666 <_svfprintf_r+0x154>
   17cfa: 03 ce 0a 00  	lbu	t3, 0x0(s5)
   17cfe: 93 07 80 06  	li	a5, 0x68
   17d02: 63 03 fe 7c  	beq	t3, a5, 0x184c8 <_svfprintf_r+0xfb6>
   17d06: 13 6b 0b 04  	ori	s6, s6, 0x40
   17d0a: 01 2b        	sext.w	s6, s6
   17d0c: e5 b0        	j	0x175f4 <_svfprintf_r+0xe2>
   17d0e: a2 76        	ld	a3, 0x28(sp)
   17d10: 93 77 0b 02  	andi	a5, s6, 0x20
   17d14: 98 62        	ld	a4, 0x0(a3)
   17d16: a1 06        	addi	a3, a3, 0x8
   17d18: 36 f4        	sd	a3, 0x28(sp)
   17d1a: 85 e7        	bnez	a5, 0x17d42 <_svfprintf_r+0x830>
   17d1c: 93 77 0b 01  	andi	a5, s6, 0x10
   17d20: 8d e3        	bnez	a5, 0x17d42 <_svfprintf_r+0x830>
   17d22: 93 77 0b 04  	andi	a5, s6, 0x40
   17d26: 99 c3        	beqz	a5, 0x17d2c <_svfprintf_r+0x81a>
   17d28: 6f 10 80 18  	j	0x18eb0 <_svfprintf_r+0x199e>
   17d2c: 13 7f 0b 20  	andi	t5, s6, 0x200
   17d30: e2 67        	ld	a5, 0x18(sp)
   17d32: 63 14 0f 00  	bnez	t5, 0x17d3a <_svfprintf_r+0x828>
   17d36: 6f 10 60 63  	j	0x1936c <_svfprintf_r+0x1e5a>
   17d3a: 23 00 f7 00  	sb	a5, 0x0(a4)
   17d3e: d6 8b        	mv	s7, s5
   17d40: c5 b2        	j	0x17720 <_svfprintf_r+0x20e>
   17d42: e2 67        	ld	a5, 0x18(sp)
   17d44: d6 8b        	mv	s7, s5
   17d46: 1c e3        	sd	a5, 0x0(a4)
   17d48: e1 ba        	j	0x17720 <_svfprintf_r+0x20e>
   17d4a: 03 ce 0a 00  	lbu	t3, 0x0(s5)
   17d4e: 93 07 c0 06  	li	a5, 0x6c
   17d52: 63 05 fe 78  	beq	t3, a5, 0x184dc <_svfprintf_r+0xfca>
   17d56: 13 6b 0b 01  	ori	s6, s6, 0x10
   17d5a: 01 2b        	sext.w	s6, s6
   17d5c: 61 b8        	j	0x175f4 <_svfprintf_r+0xe2>
   17d5e: 93 77 0b 02  	andi	a5, s6, 0x20
   17d62: 62 83        	mv	t1, s8
   17d64: 63 99 07 5e  	bnez	a5, 0x18356 <_svfprintf_r+0xe44>
   17d68: 93 77 0b 01  	andi	a5, s6, 0x10
   17d6c: 63 95 07 5e  	bnez	a5, 0x18356 <_svfprintf_r+0xe44>
   17d70: a2 76        	ld	a3, 0x28(sp)
   17d72: 93 77 0b 04  	andi	a5, s6, 0x40
   17d76: 03 aa 06 00  	lw	s4, 0x0(a3)
   17d7a: 13 87 86 00  	addi	a4, a3, 0x8
   17d7e: e3 84 07 4e  	beqz	a5, 0x18a66 <_svfprintf_r+0x1554>
   17d82: 42 1a        	slli	s4, s4, 0x30
   17d84: a3 07 01 0a  	sb	zero, 0xaf(sp)
   17d88: 13 5a 0a 03  	srli	s4, s4, 0x30
   17d8c: 63 4c 0c 0c  	bltz	s8, 0x17e64 <_svfprintf_r+0x952>
   17d90: 13 7f fb f7  	andi	t5, s6, -0x81
   17d94: 1b 0b 0f 00  	sext.w	s6, t5
   17d98: 63 16 0a 0c  	bnez	s4, 0x17e64 <_svfprintf_r+0x952>
   17d9c: 3a f4        	sd	a4, 0x28(sp)
   17d9e: e3 0c 03 20  	beqz	t1, 0x187b6 <_svfprintf_r+0x12a4>
   17da2: 01 4a        	li	s4, 0x0
   17da4: 45 bb        	j	0x17b54 <_svfprintf_r+0x642>
   17da6: 13 6b 0b 02  	ori	s6, s6, 0x20
   17daa: 03 ce 0a 00  	lbu	t3, 0x0(s5)
   17dae: 01 2b        	sext.w	s6, s6
   17db0: 91 b0        	j	0x175f4 <_svfprintf_r+0xe2>
   17db2: a2 76        	ld	a3, 0x28(sp)
   17db4: a1 67        	lui	a5, 0x8
   17db6: 93 87 07 83  	addi	a5, a5, -0x7d0
   17dba: 98 62        	ld	a4, 0x0(a3)
   17dbc: 23 18 f1 0a  	sh	a5, 0xb0(sp)
   17dc0: a3 07 01 0a  	sb	zero, 0xaf(sp)
   17dc4: 3a f0        	sd	a4, 0x20(sp)
   17dc6: 62 83        	mv	t1, s8
   17dc8: 93 87 86 00  	addi	a5, a3, 0x8
   17dcc: 63 47 0c 5c  	bltz	s8, 0x1839a <_svfprintf_r+0xe88>
   17dd0: 93 76 fb f7  	andi	a3, s6, -0x81
   17dd4: 81 26        	sext.w	a3, a3
   17dd6: 13 e5 26 00  	ori	a0, a3, 0x2
   17dda: e3 16 07 36  	bnez	a4, 0x18946 <_svfprintf_r+0x1434>
   17dde: 63 04 0c 00  	beqz	s8, 0x17de6 <_svfprintf_r+0x8d4>
   17de2: 6f 10 80 05  	j	0x18e3a <_svfprintf_r+0x1928>
   17de6: 4e 7a        	ld	s4, 0xf0(sp)
   17de8: ae 55        	lw	a1, 0xe8(sp)
   17dea: 13 77 4b 00  	andi	a4, s6, 0x4
   17dee: 3a f8        	sd	a4, 0x30(sp)
   17df0: 52 86        	mv	a2, s4
   17df2: ae 86        	mv	a3, a1
   17df4: e3 04 07 10  	beqz	a4, 0x186fc <_svfprintf_r+0x11ea>
   17df8: 3e f4        	sd	a5, 0x28(sp)
   17dfa: 2a 8b        	mv	s6, a0
   17dfc: 01 4c        	li	s8, 0x0
   17dfe: 82 e4        	sd	zero, 0x48(sp)
   17e00: 82 e0        	sd	zero, 0x40(sp)
   17e02: 02 f8        	sd	zero, 0x30(sp)
   17e04: 89 4d        	li	s11, 0x2
   17e06: 93 0b c1 15  	addi	s7, sp, 0x15c
   17e0a: 13 0e 80 07  	li	t3, 0x78
   17e0e: 11 4d        	li	s10, 0x4
   17e10: 79 b0        	j	0x1769e <_svfprintf_r+0x18c>
   17e12: a2 77        	ld	a5, 0x28(sp)
   17e14: 13 77 0b 02  	andi	a4, s6, 0x20
   17e18: 62 83        	mv	t1, s8
   17e1a: a1 07        	addi	a5, a5, 0x8
   17e1c: 63 1b 07 52  	bnez	a4, 0x18352 <_svfprintf_r+0xe40>
   17e20: 13 77 0b 01  	andi	a4, s6, 0x10
   17e24: 63 17 07 52  	bnez	a4, 0x18352 <_svfprintf_r+0xe40>
   17e28: 22 77        	ld	a4, 0x28(sp)
   17e2a: 93 76 0b 04  	andi	a3, s6, 0x40
   17e2e: 18 43        	lw	a4, 0x0(a4)
   17e30: e3 85 06 40  	beqz	a3, 0x18a3a <_svfprintf_r+0x1528>
   17e34: 42 17        	slli	a4, a4, 0x30
   17e36: 41 93        	srli	a4, a4, 0x30
   17e38: 3e f4        	sd	a5, 0x28(sp)
   17e3a: 5a 88        	mv	a6, s6
   17e3c: 3d bd        	j	0x17c7a <_svfprintf_r+0x768>
   17e3e: a2 76        	ld	a3, 0x28(sp)
   17e40: 93 67 0b 01  	ori	a5, s6, 0x10
   17e44: a3 07 01 0a  	sb	zero, 0xaf(sp)
   17e48: 62 83        	mv	t1, s8
   17e4a: 03 ba 06 00  	ld	s4, 0x0(a3)
   17e4e: 81 27        	sext.w	a5, a5
   17e50: 13 87 86 00  	addi	a4, a3, 0x8
   17e54: 63 4b 03 50  	bltz	t1, 0x1836a <_svfprintf_r+0xe58>
   17e58: 93 f7 f7 f7  	andi	a5, a5, -0x81
   17e5c: 1b 8b 07 00  	sext.w	s6, a5
   17e60: e3 0e 0a f2  	beqz	s4, 0x17d9c <_svfprintf_r+0x88a>
   17e64: 3a f4        	sd	a4, 0x28(sp)
   17e66: e5 b1        	j	0x17b4e <_svfprintf_r+0x63c>
   17e68: 13 6b 8b 00  	ori	s6, s6, 0x8
   17e6c: 03 ce 0a 00  	lbu	t3, 0x0(s5)
   17e70: 01 2b        	sext.w	s6, s6
   17e72: 6f f0 2f f8  	j	0x175f4 <_svfprintf_r+0xe2>
   17e76: 22 6d        	ld	s10, 0x8(sp)
   17e78: 6a 85        	mv	a0, s10
   17e7a: ef d0 1f be  	jal	0x15a5a <_localeconv_r>
   17e7e: 1c 65        	ld	a5, 0x8(a0)
   17e80: 3e 85        	mv	a0, a5
   17e82: be f4        	sd	a5, 0x68(sp)
   17e84: ef f0 0f d7  	jal	0x173f4 <strlen>
   17e88: aa 87        	mv	a5, a0
   17e8a: 6a 85        	mv	a0, s10
   17e8c: be fc        	sd	a5, 0x78(sp)
   17e8e: 3e 8d        	mv	s10, a5
   17e90: ef d0 bf bc  	jal	0x15a5a <_localeconv_r>
   17e94: 1c 69        	ld	a5, 0x10(a0)
   17e96: 03 ce 0a 00  	lbu	t3, 0x0(s5)
   17e9a: be f8        	sd	a5, 0x70(sp)
   17e9c: 63 0c 0d f4  	beqz	s10, 0x175f4 <_svfprintf_r+0xe2>
   17ea0: 63 8a 07 f4  	beqz	a5, 0x175f4 <_svfprintf_r+0xe2>
   17ea4: 83 c7 07 00  	lbu	a5, 0x0(a5)
   17ea8: 63 86 07 f4  	beqz	a5, 0x175f4 <_svfprintf_r+0xe2>
   17eac: 13 6b 0b 40  	ori	s6, s6, 0x400
   17eb0: 01 2b        	sext.w	s6, s6
   17eb2: 6f f0 2f f4  	j	0x175f4 <_svfprintf_r+0xe2>
   17eb6: 13 6b 1b 00  	ori	s6, s6, 0x1
   17eba: 03 ce 0a 00  	lbu	t3, 0x0(s5)
   17ebe: 01 2b        	sext.w	s6, s6
   17ec0: 6f f0 4f f3  	j	0x175f4 <_svfprintf_r+0xe2>
   17ec4: 83 47 f1 0a  	lbu	a5, 0xaf(sp)
   17ec8: 03 ce 0a 00  	lbu	t3, 0x0(s5)
   17ecc: 63 94 07 f2  	bnez	a5, 0x175f4 <_svfprintf_r+0xe2>
   17ed0: 93 07 00 02  	li	a5, 0x20
   17ed4: a3 07 f1 0a  	sb	a5, 0xaf(sp)
   17ed8: 6f f0 cf f1  	j	0x175f4 <_svfprintf_r+0xe2>
   17edc: 13 6b 0b 08  	ori	s6, s6, 0x80
   17ee0: 03 ce 0a 00  	lbu	t3, 0x0(s5)
   17ee4: 01 2b        	sext.w	s6, s6
   17ee6: 6f f0 ef f0  	j	0x175f4 <_svfprintf_r+0xe2>
   17eea: 93 07 b0 02  	li	a5, 0x2b
   17eee: 03 ce 0a 00  	lbu	t3, 0x0(s5)
   17ef2: a3 07 f1 0a  	sb	a5, 0xaf(sp)
   17ef6: 6f f0 ef ef  	j	0x175f4 <_svfprintf_r+0xe2>
   17efa: 03 ce 0a 00  	lbu	t3, 0x0(s5)
   17efe: 93 07 a0 02  	li	a5, 0x2a
   17f02: 13 86 1a 00  	addi	a2, s5, 0x1
   17f06: 63 14 fe 00  	bne	t3, a5, 0x17f0e <_svfprintf_r+0x9fc>
   17f0a: 6f 10 e0 5c  	j	0x194d8 <_svfprintf_r+0x1fc6>
   17f0e: 1b 07 0e fd  	addiw	a4, t3, -0x30
   17f12: a5 45        	li	a1, 0x9
   17f14: 81 46        	li	a3, 0x0
   17f16: b2 8a        	mv	s5, a2
   17f18: 01 4c        	li	s8, 0x0
   17f1a: 63 ee e5 ec  	bltu	a1, a4, 0x175f6 <_svfprintf_r+0xe4>
   17f1e: 9b 97 26 00  	slliw	a5, a3, 0x2
   17f22: 03 4e 06 00  	lbu	t3, 0x0(a2)
   17f26: b5 9f        	addw	a5, a5, a3
   17f28: 9b 97 17 00  	slliw	a5, a5, 0x1
   17f2c: bb 86 e7 00  	addw	a3, a5, a4
   17f30: 1b 07 0e fd  	addiw	a4, t3, -0x30
   17f34: 05 06        	addi	a2, a2, 0x1
   17f36: e3 f4 e5 fe  	bgeu	a1, a4, 0x17f1e <_svfprintf_r+0xa0c>
   17f3a: 36 83        	mv	t1, a3
   17f3c: 63 cb 06 4e  	bltz	a3, 0x18432 <_svfprintf_r+0xf20>
   17f40: 1a 8c        	mv	s8, t1
   17f42: b2 8a        	mv	s5, a2
   17f44: 6f f0 2f eb  	j	0x175f6 <_svfprintf_r+0xe4>
   17f48: bb 86 bc 41  	subw	a3, s9, s11
   17f4c: 63 5b d0 f6  	blez	a3, 0x176c2 <_svfprintf_r+0x1b0>
   17f50: c1 4f        	li	t6, 0x10
   17f52: 2e 56        	lw	a2, 0xe8(sp)
   17f54: 17 7d 00 00  	auipc	s10, 0x7
   17f58: 13 0d cd d2  	addi	s10, s10, -0x2d4
   17f5c: 63 d0 df 06  	bge	t6, a3, 0x17fbc <_svfprintf_r+0xaaa>
   17f60: ca 87        	mv	a5, s2
   17f62: 52 87        	mv	a4, s4
   17f64: fe 83        	mv	t2, t6
   17f66: 6a 8a        	mv	s4, s10
   17f68: 9d 42        	li	t0, 0x7
   17f6a: 5e 8d        	mv	s10, s7
   17f6c: 36 89        	mv	s2, a3
   17f6e: 72 e1        	sd	t3, 0x80(sp)
   17f70: 9a 8b        	mv	s7, t1
   17f72: 21 a0        	j	0x17f7a <_svfprintf_r+0xa68>
   17f74: 41 39        	addiw	s2, s2, -0x10
   17f76: 63 dc 23 03  	bge	t2, s2, 0x17fae <_svfprintf_r+0xa9c>
   17f7a: 41 07        	addi	a4, a4, 0x10
   17f7c: 05 26        	addiw	a2, a2, 0x1
   17f7e: 23 b0 47 01  	sd	s4, 0x0(a5)
   17f82: 23 b4 f7 01  	sd	t6, 0x8(a5)
   17f86: ba f9        	sd	a4, 0xf0(sp)
   17f88: b2 d5        	sw	a2, 0xe8(sp)
   17f8a: c1 07        	addi	a5, a5, 0x10
   17f8c: e3 d4 c2 fe  	bge	t0, a2, 0x17f74 <_svfprintf_r+0xa62>
   17f90: c2 65        	ld	a1, 0x10(sp)
   17f92: 22 65        	ld	a0, 0x8(sp)
   17f94: 90 11        	addi	a2, sp, 0xe0
   17f96: ef 30 50 04  	jal	0x1b7da <__ssprint_r>
   17f9a: 35 e1        	bnez	a0, 0x17ffe <_svfprintf_r+0xaec>
   17f9c: c1 43        	li	t2, 0x10
   17f9e: 41 39        	addiw	s2, s2, -0x10
   17fa0: 4e 77        	ld	a4, 0xf0(sp)
   17fa2: 2e 56        	lw	a2, 0xe8(sp)
   17fa4: ce 87        	mv	a5, s3
   17fa6: 9d 42        	li	t0, 0x7
   17fa8: 9e 8f        	mv	t6, t2
   17faa: e3 c8 23 fd  	blt	t2, s2, 0x17f7a <_svfprintf_r+0xa68>
   17fae: 0a 6e        	ld	t3, 0x80(sp)
   17fb0: ca 86        	mv	a3, s2
   17fb2: 5e 83        	mv	t1, s7
   17fb4: 3e 89        	mv	s2, a5
   17fb6: ea 8b        	mv	s7, s10
   17fb8: 52 8d        	mv	s10, s4
   17fba: 3a 8a        	mv	s4, a4
   17fbc: 36 9a        	add	s4, s4, a3
   17fbe: 05 26        	addiw	a2, a2, 0x1
   17fc0: 23 30 a9 01  	sd	s10, 0x0(s2)
   17fc4: 23 34 d9 00  	sd	a3, 0x8(s2)
   17fc8: d2 f9        	sd	s4, 0xf0(sp)
   17fca: b2 d5        	sw	a2, 0xe8(sp)
   17fcc: 1d 47        	li	a4, 0x7
   17fce: 41 09        	addi	s2, s2, 0x10
   17fd0: 63 59 c7 ee  	bge	a4, a2, 0x176c2 <_svfprintf_r+0x1b0>
   17fd4: c2 65        	ld	a1, 0x10(sp)
   17fd6: 22 65        	ld	a0, 0x8(sp)
   17fd8: 90 11        	addi	a2, sp, 0xe0
   17fda: 1a e5        	sd	t1, 0x88(sp)
   17fdc: 72 e1        	sd	t3, 0x80(sp)
   17fde: ef 30 c0 7f  	jal	0x1b7da <__ssprint_r>
   17fe2: 11 ed        	bnez	a0, 0x17ffe <_svfprintf_r+0xaec>
   17fe4: 4e 7a        	ld	s4, 0xf0(sp)
   17fe6: 0a 6e        	ld	t3, 0x80(sp)
   17fe8: 2a 63        	ld	t1, 0x88(sp)
   17fea: 4e 89        	mv	s2, s3
   17fec: 6f f0 6f ed  	j	0x176c2 <_svfprintf_r+0x1b0>
   17ff0: c2 65        	ld	a1, 0x10(sp)
   17ff2: 22 65        	ld	a0, 0x8(sp)
   17ff4: 90 11        	addi	a2, sp, 0xe0
   17ff6: ef 30 40 7e  	jal	0x1b7da <__ssprint_r>
   17ffa: 63 0a 05 f0  	beqz	a0, 0x1770e <_svfprintf_r+0x1fc>
   17ffe: 82 72        	ld	t0, 0x20(sp)
   18000: 63 88 02 f2  	beqz	t0, 0x17730 <_svfprintf_r+0x21e>
   18004: 22 65        	ld	a0, 0x8(sp)
   18006: 96 85        	mv	a1, t0
   18008: ef b0 6f b9  	jal	0x1339e <_free_r>
   1800c: 6f f0 4f f2  	j	0x17730 <_svfprintf_r+0x21e>
   18010: c2 65        	ld	a1, 0x10(sp)
   18012: 22 65        	ld	a0, 0x8(sp)
   18014: 90 11        	addi	a2, sp, 0xe0
   18016: 1a e5        	sd	t1, 0x88(sp)
   18018: 72 e1        	sd	t3, 0x80(sp)
   1801a: ef 30 00 7c  	jal	0x1b7da <__ssprint_r>
   1801e: 65 f1        	bnez	a0, 0x17ffe <_svfprintf_r+0xaec>
   18020: 4e 7a        	ld	s4, 0xf0(sp)
   18022: 2a 63        	ld	t1, 0x88(sp)
   18024: 0a 6e        	ld	t3, 0x80(sp)
   18026: 4e 89        	mv	s2, s3
   18028: 6f f0 2f e9  	j	0x176ba <_svfprintf_r+0x1a8>
   1802c: 41 47        	li	a4, 0x10
   1802e: ae 57        	lw	a5, 0xe8(sp)
   18030: 97 76 00 00  	auipc	a3, 0x7
   18034: 93 86 06 c6  	addi	a3, a3, -0x3a0
   18038: 63 55 87 05  	bge	a4, s8, 0x18082 <_svfprintf_r+0xb70>
   1803c: 52 86        	mv	a2, s4
   1803e: 22 6d        	ld	s10, 0x8(sp)
   18040: ba 8b        	mv	s7, a4
   18042: 1d 4b        	li	s6, 0x7
   18044: 36 8a        	mv	s4, a3
   18046: 21 a0        	j	0x1804e <_svfprintf_r+0xb3c>
   18048: 41 3c        	addiw	s8, s8, -0x10
   1804a: 63 da 8b 03  	bge	s7, s8, 0x1807e <_svfprintf_r+0xb6c>
   1804e: 41 06        	addi	a2, a2, 0x10
   18050: 85 27        	addiw	a5, a5, 0x1
   18052: 23 30 49 01  	sd	s4, 0x0(s2)
   18056: 23 34 e9 00  	sd	a4, 0x8(s2)
   1805a: b2 f9        	sd	a2, 0xf0(sp)
   1805c: be d5        	sw	a5, 0xe8(sp)
   1805e: 41 09        	addi	s2, s2, 0x10
   18060: e3 54 fb fe  	bge	s6, a5, 0x18048 <_svfprintf_r+0xb36>
   18064: c2 65        	ld	a1, 0x10(sp)
   18066: 90 11        	addi	a2, sp, 0xe0
   18068: 6a 85        	mv	a0, s10
   1806a: ef 30 00 77  	jal	0x1b7da <__ssprint_r>
   1806e: 41 f9        	bnez	a0, 0x17ffe <_svfprintf_r+0xaec>
   18070: 41 3c        	addiw	s8, s8, -0x10
   18072: 4e 76        	ld	a2, 0xf0(sp)
   18074: ae 57        	lw	a5, 0xe8(sp)
   18076: 4e 89        	mv	s2, s3
   18078: 41 47        	li	a4, 0x10
   1807a: e3 ca 8b fd  	blt	s7, s8, 0x1804e <_svfprintf_r+0xb3c>
   1807e: d2 86        	mv	a3, s4
   18080: 32 8a        	mv	s4, a2
   18082: 62 9a        	add	s4, s4, s8
   18084: 85 27        	addiw	a5, a5, 0x1
   18086: d2 f9        	sd	s4, 0xf0(sp)
   18088: be d5        	sw	a5, 0xe8(sp)
   1808a: 23 30 d9 00  	sd	a3, 0x0(s2)
   1808e: 23 34 89 01  	sd	s8, 0x8(s2)
   18092: 1d 47        	li	a4, 0x7
   18094: 63 54 f7 e6  	bge	a4, a5, 0x176fc <_svfprintf_r+0x1ea>
   18098: c2 65        	ld	a1, 0x10(sp)
   1809a: 22 65        	ld	a0, 0x8(sp)
   1809c: 90 11        	addi	a2, sp, 0xe0
   1809e: ef 30 c0 73  	jal	0x1b7da <__ssprint_r>
   180a2: 31 fd        	bnez	a0, 0x17ffe <_svfprintf_r+0xaec>
   180a4: 4e 7a        	ld	s4, 0xf0(sp)
   180a6: 6f f0 6f e5  	j	0x176fc <_svfprintf_r+0x1ea>
   180aa: 3b 0c 7d 41  	subw	s8, s10, s7
   180ae: 1a 88        	mv	a6, t1
   180b0: 63 53 83 01  	bge	t1, s8, 0x180b6 <_svfprintf_r+0xba4>
   180b4: 62 88        	mv	a6, s8
   180b6: 9b 0d 08 00  	sext.w	s11, a6
   180ba: 1d b9        	j	0x17cf0 <_svfprintf_r+0x7de>
   180bc: 6a 56        	lw	a2, 0xb8(sp)
   180be: 63 5d c0 72  	blez	a2, 0x187f8 <_svfprintf_r+0x12e6>
   180c2: c2 77        	ld	a5, 0x30(sp)
   180c4: e2 76        	ld	a3, 0x38(sp)
   180c6: 3e 87        	mv	a4, a5
   180c8: 63 cd f6 34  	blt	a3, a5, 0x18422 <_svfprintf_r+0xf10>
   180cc: 1b 0c 07 00  	sext.w	s8, a4
   180d0: 63 5f 80 01  	blez	s8, 0x180ee <_svfprintf_r+0xbdc>
   180d4: ae 56        	lw	a3, 0xe8(sp)
   180d6: 62 9a        	add	s4, s4, s8
   180d8: 23 30 79 01  	sd	s7, 0x0(s2)
   180dc: 85 26        	addiw	a3, a3, 0x1
   180de: 23 34 89 01  	sd	s8, 0x8(s2)
   180e2: d2 f9        	sd	s4, 0xf0(sp)
   180e4: b6 d5        	sw	a3, 0xe8(sp)
   180e6: 1d 46        	li	a2, 0x7
   180e8: 41 09        	addi	s2, s2, 0x10
   180ea: e3 47 d6 52  	blt	a2, a3, 0x18e18 <_svfprintf_r+0x1906>
   180ee: e2 86        	mv	a3, s8
   180f0: 63 44 0c 3e  	bltz	s8, 0x184d8 <_svfprintf_r+0xfc6>
   180f4: c2 77        	ld	a5, 0x30(sp)
   180f6: 3b 8c d7 40  	subw	s8, a5, a3
   180fa: 63 41 80 45  	bgtz	s8, 0x1853c <_svfprintf_r+0x102a>
   180fe: c2 77        	ld	a5, 0x30(sp)
   18100: 13 77 0b 40  	andi	a4, s6, 0x400
   18104: 33 8d fb 00  	add	s10, s7, a5
   18108: 63 1b 07 4a  	bnez	a4, 0x185be <_svfprintf_r+0x10ac>
   1810c: 6a 5c        	lw	s8, 0xb8(sp)
   1810e: e2 77        	ld	a5, 0x38(sp)
   18110: 63 46 fc 00  	blt	s8, a5, 0x1811c <_svfprintf_r+0xc0a>
   18114: 13 77 1b 00  	andi	a4, s6, 0x1
   18118: e3 06 07 54  	beqz	a4, 0x18e64 <_svfprintf_r+0x1952>
   1811c: 2e 57        	lw	a4, 0xe8(sp)
   1811e: c6 67        	ld	a5, 0x50(sp)
   18120: e6 66        	ld	a3, 0x58(sp)
   18122: 05 27        	addiw	a4, a4, 0x1
   18124: 3e 9a        	add	s4, s4, a5
   18126: 23 30 d9 00  	sd	a3, 0x0(s2)
   1812a: 23 34 f9 00  	sd	a5, 0x8(s2)
   1812e: d2 f9        	sd	s4, 0xf0(sp)
   18130: ba d5        	sw	a4, 0xe8(sp)
   18132: 9d 46        	li	a3, 0x7
   18134: 41 09        	addi	s2, s2, 0x10
   18136: 63 d4 e6 00  	bge	a3, a4, 0x1813e <_svfprintf_r+0xc2c>
   1813a: 6f 10 40 0f  	j	0x1922e <_svfprintf_r+0x1d1c>
   1813e: 62 77        	ld	a4, 0x38(sp)
   18140: b3 87 eb 00  	add	a5, s7, a4
   18144: b3 87 a7 41  	sub	a5, a5, s10
   18148: bb 06 87 41  	subw	a3, a4, s8
   1814c: 1b 87 07 00  	sext.w	a4, a5
   18150: 63 d3 e6 00  	bge	a3, a4, 0x18156 <_svfprintf_r+0xc44>
   18154: b6 87        	mv	a5, a3
   18156: 1b 8c 07 00  	sext.w	s8, a5
   1815a: 63 51 80 03  	blez	s8, 0x1817c <_svfprintf_r+0xc6a>
   1815e: 2e 57        	lw	a4, 0xe8(sp)
   18160: 62 9a        	add	s4, s4, s8
   18162: 23 30 a9 01  	sd	s10, 0x0(s2)
   18166: 05 27        	addiw	a4, a4, 0x1
   18168: 23 34 89 01  	sd	s8, 0x8(s2)
   1816c: d2 f9        	sd	s4, 0xf0(sp)
   1816e: ba d5        	sw	a4, 0xe8(sp)
   18170: 9d 47        	li	a5, 0x7
   18172: 41 09        	addi	s2, s2, 0x10
   18174: 63 d4 e7 00  	bge	a5, a4, 0x1817c <_svfprintf_r+0xc6a>
   18178: 6f 10 c0 10  	j	0x19284 <_svfprintf_r+0x1d72>
   1817c: 62 87        	mv	a4, s8
   1817e: 63 53 0c 00  	bgez	s8, 0x18184 <_svfprintf_r+0xc72>
   18182: 01 47        	li	a4, 0x0
   18184: 3b 8c e6 40  	subw	s8, a3, a4
   18188: 63 52 80 d7  	blez	s8, 0x176ec <_svfprintf_r+0x1da>
   1818c: c1 46        	li	a3, 0x10
   1818e: ae 57        	lw	a5, 0xe8(sp)
   18190: 17 7d 00 00  	auipc	s10, 0x7
   18194: 13 0d 0d af  	addi	s10, s10, -0x510
   18198: 63 d8 86 73  	bge	a3, s8, 0x188c8 <_svfprintf_r+0x13b6>
   1819c: 52 87        	mv	a4, s4
   1819e: 36 83        	mv	t1, a3
   181a0: 6a 8a        	mv	s4, s10
   181a2: 9d 4b        	li	s7, 0x7
   181a4: 62 8d        	mv	s10, s8
   181a6: 5a 8c        	mv	s8, s6
   181a8: 56 8b        	mv	s6, s5
   181aa: c2 6a        	ld	s5, 0x10(sp)
   181ac: 21 a0        	j	0x181b4 <_svfprintf_r+0xca2>
   181ae: 41 3d        	addiw	s10, s10, -0x10
   181b0: 63 57 a3 71  	bge	t1, s10, 0x188be <_svfprintf_r+0x13ac>
   181b4: 41 07        	addi	a4, a4, 0x10
   181b6: 85 27        	addiw	a5, a5, 0x1
   181b8: 23 30 49 01  	sd	s4, 0x0(s2)
   181bc: 23 34 d9 00  	sd	a3, 0x8(s2)
   181c0: ba f9        	sd	a4, 0xf0(sp)
   181c2: be d5        	sw	a5, 0xe8(sp)
   181c4: 41 09        	addi	s2, s2, 0x10
   181c6: e3 d4 fb fe  	bge	s7, a5, 0x181ae <_svfprintf_r+0xc9c>
   181ca: 22 65        	ld	a0, 0x8(sp)
   181cc: 90 11        	addi	a2, sp, 0xe0
   181ce: d6 85        	mv	a1, s5
   181d0: ef 30 a0 60  	jal	0x1b7da <__ssprint_r>
   181d4: e3 15 05 e2  	bnez	a0, 0x17ffe <_svfprintf_r+0xaec>
   181d8: 41 43        	li	t1, 0x10
   181da: 4e 77        	ld	a4, 0xf0(sp)
   181dc: ae 57        	lw	a5, 0xe8(sp)
   181de: 4e 89        	mv	s2, s3
   181e0: 9a 86        	mv	a3, t1
   181e2: f1 b7        	j	0x181ae <_svfprintf_r+0xc9c>
   181e4: ae 56        	lw	a3, 0xe8(sp)
   181e6: 41 4a        	li	s4, 0x10
   181e8: b6 85        	mv	a1, a3
   181ea: 97 76 00 00  	auipc	a3, 0x7
   181ee: 93 86 66 aa  	addi	a3, a3, -0x55a
   181f2: 63 5e ea 04  	bge	s4, a4, 0x1824e <_svfprintf_r+0xd3c>
   181f6: 56 e1        	sd	s5, 0x80(sp)
   181f8: ca 87        	mv	a5, s2
   181fa: d2 83        	mv	t2, s4
   181fc: 9d 42        	li	t0, 0x7
   181fe: 3a 89        	mv	s2, a4
   18200: 72 e5        	sd	t3, 0x88(sp)
   18202: 1a e9        	sd	t1, 0x90(sp)
   18204: b6 8a        	mv	s5, a3
   18206: 21 a0        	j	0x1820e <_svfprintf_r+0xcfc>
   18208: 41 39        	addiw	s2, s2, -0x10
   1820a: 63 dc 23 03  	bge	t2, s2, 0x18242 <_svfprintf_r+0xd30>
   1820e: 41 06        	addi	a2, a2, 0x10
   18210: 85 25        	addiw	a1, a1, 0x1
   18212: 23 b0 57 01  	sd	s5, 0x0(a5)
   18216: 23 b4 47 01  	sd	s4, 0x8(a5)
   1821a: b2 f9        	sd	a2, 0xf0(sp)
   1821c: ae d5        	sw	a1, 0xe8(sp)
   1821e: c1 07        	addi	a5, a5, 0x10
   18220: e3 d4 b2 fe  	bge	t0, a1, 0x18208 <_svfprintf_r+0xcf6>
   18224: c2 65        	ld	a1, 0x10(sp)
   18226: 22 65        	ld	a0, 0x8(sp)
   18228: 90 11        	addi	a2, sp, 0xe0
   1822a: ef 30 00 5b  	jal	0x1b7da <__ssprint_r>
   1822e: e3 18 05 dc  	bnez	a0, 0x17ffe <_svfprintf_r+0xaec>
   18232: c1 43        	li	t2, 0x10
   18234: 41 39        	addiw	s2, s2, -0x10
   18236: 4e 76        	ld	a2, 0xf0(sp)
   18238: ae 55        	lw	a1, 0xe8(sp)
   1823a: ce 87        	mv	a5, s3
   1823c: 9d 42        	li	t0, 0x7
   1823e: e3 c8 23 fd  	blt	t2, s2, 0x1820e <_svfprintf_r+0xcfc>
   18242: d6 86        	mv	a3, s5
   18244: 2a 6e        	ld	t3, 0x88(sp)
   18246: 4a 63        	ld	t1, 0x90(sp)
   18248: 8a 6a        	ld	s5, 0x80(sp)
   1824a: 4a 87        	mv	a4, s2
   1824c: 3e 89        	mv	s2, a5
   1824e: 33 0a c7 00  	add	s4, a4, a2
   18252: 85 25        	addiw	a1, a1, 0x1
   18254: 23 34 e9 00  	sd	a4, 0x8(s2)
   18258: d2 f9        	sd	s4, 0xf0(sp)
   1825a: ae d5        	sw	a1, 0xe8(sp)
   1825c: 23 30 d9 00  	sd	a3, 0x0(s2)
   18260: 1d 47        	li	a4, 0x7
   18262: 63 40 b7 56  	blt	a4, a1, 0x187c2 <_svfprintf_r+0x12b0>
   18266: 03 47 f1 0a  	lbu	a4, 0xaf(sp)
   1826a: 41 09        	addi	s2, s2, 0x10
   1826c: 79 ef        	bnez	a4, 0x1834a <_svfprintf_r+0xe38>
   1826e: 63 0a 0d c4  	beqz	s10, 0x176c2 <_svfprintf_r+0x1b0>
   18272: 01 4d        	li	s10, 0x0
   18274: 6f f0 af c2  	j	0x1769e <_svfprintf_r+0x18c>
   18278: 33 76 db 00  	and	a2, s6, a3
   1827c: 63 12 06 e0  	bnez	a2, 0x17880 <_svfprintf_r+0x36e>
   18280: 23 30 79 01  	sd	s7, 0x0(s2)
   18284: 23 34 d9 00  	sd	a3, 0x8(s2)
   18288: d2 f9        	sd	s4, 0xf0(sp)
   1828a: e2 d5        	sw	s8, 0xe8(sp)
   1828c: 9d 47        	li	a5, 0x7
   1828e: 63 dc 87 e5  	bge	a5, s8, 0x178e6 <_svfprintf_r+0x3d4>
   18292: c2 65        	ld	a1, 0x10(sp)
   18294: 22 65        	ld	a0, 0x8(sp)
   18296: 90 11        	addi	a2, sp, 0xe0
   18298: ef 30 20 54  	jal	0x1b7da <__ssprint_r>
   1829c: e3 11 05 d6  	bnez	a0, 0x17ffe <_svfprintf_r+0xaec>
   182a0: 4e 7a        	ld	s4, 0xf0(sp)
   182a2: 2e 5c        	lw	s8, 0xe8(sp)
   182a4: ce 88        	mv	a7, s3
   182a6: 6f f0 0f e4  	j	0x178e6 <_svfprintf_r+0x3d4>
   182aa: 62 77        	ld	a4, 0x38(sp)
   182ac: 85 47        	li	a5, 0x1
   182ae: 63 dc e7 e2  	bge	a5, a4, 0x178e6 <_svfprintf_r+0x3d4>
   182b2: c5 47        	li	a5, 0x11
   182b4: 17 7d 00 00  	auipc	s10, 0x7
   182b8: 13 0d cd 9c  	addi	s10, s10, -0x634
   182bc: 63 da e7 6c  	bge	a5, a4, 0x18990 <_svfprintf_r+0x147e>
   182c0: ea 86        	mv	a3, s10
   182c2: 52 87        	mv	a4, s4
   182c4: 4a 8d        	mv	s10, s2
   182c6: 42 6a        	ld	s4, 0x10(sp)
   182c8: c1 47        	li	a5, 0x10
   182ca: 9d 4b        	li	s7, 0x7
   182cc: 36 89        	mv	s2, a3
   182ce: 21 a0        	j	0x182d6 <_svfprintf_r+0xdc4>
   182d0: 41 3d        	addiw	s10, s10, -0x10
   182d2: 63 db a7 6b  	bge	a5, s10, 0x18988 <_svfprintf_r+0x1476>
   182d6: 41 07        	addi	a4, a4, 0x10
   182d8: 05 2c        	addiw	s8, s8, 0x1
   182da: 23 b0 28 01  	sd	s2, 0x0(a7)
   182de: 23 b4 f8 00  	sd	a5, 0x8(a7)
   182e2: ba f9        	sd	a4, 0xf0(sp)
   182e4: e2 d5        	sw	s8, 0xe8(sp)
   182e6: c1 08        	addi	a7, a7, 0x10
   182e8: e3 d4 8b ff  	bge	s7, s8, 0x182d0 <_svfprintf_r+0xdbe>
   182ec: 22 65        	ld	a0, 0x8(sp)
   182ee: 90 11        	addi	a2, sp, 0xe0
   182f0: d2 85        	mv	a1, s4
   182f2: ef 30 80 4e  	jal	0x1b7da <__ssprint_r>
   182f6: e3 14 05 d0  	bnez	a0, 0x17ffe <_svfprintf_r+0xaec>
   182fa: 4e 77        	ld	a4, 0xf0(sp)
   182fc: 2e 5c        	lw	s8, 0xe8(sp)
   182fe: ce 88        	mv	a7, s3
   18300: c1 47        	li	a5, 0x10
   18302: f9 b7        	j	0x182d0 <_svfprintf_r+0xdbe>
   18304: c2 65        	ld	a1, 0x10(sp)
   18306: 22 65        	ld	a0, 0x8(sp)
   18308: 90 11        	addi	a2, sp, 0xe0
   1830a: ef 30 00 4d  	jal	0x1b7da <__ssprint_r>
   1830e: e3 18 05 ce  	bnez	a0, 0x17ffe <_svfprintf_r+0xaec>
   18312: 4e 7a        	ld	s4, 0xf0(sp)
   18314: 2e 5c        	lw	s8, 0xe8(sp)
   18316: ce 88        	mv	a7, s3
   18318: 6f f0 cf d7  	j	0x17894 <_svfprintf_r+0x382>
   1831c: c2 65        	ld	a1, 0x10(sp)
   1831e: 22 65        	ld	a0, 0x8(sp)
   18320: 90 11        	addi	a2, sp, 0xe0
   18322: ef 30 80 4b  	jal	0x1b7da <__ssprint_r>
   18326: e3 1c 05 cc  	bnez	a0, 0x17ffe <_svfprintf_r+0xaec>
   1832a: 4e 7a        	ld	s4, 0xf0(sp)
   1832c: 2e 5c        	lw	s8, 0xe8(sp)
   1832e: ce 88        	mv	a7, s3
   18330: 6f f0 0f d8  	j	0x178b0 <_svfprintf_r+0x39e>
   18334: 93 77 1b 00  	andi	a5, s6, 0x1
   18338: 63 8a 07 ba  	beqz	a5, 0x176ec <_svfprintf_r+0x1da>
   1833c: 6f f0 ef f4  	j	0x17a8a <_svfprintf_r+0x578>
   18340: 03 ce 0a 00  	lbu	t3, 0x0(s5)
   18344: 3e f4        	sd	a5, 0x28(sp)
   18346: 6f f0 ef aa  	j	0x175f4 <_svfprintf_r+0xe2>
   1834a: 6a 87        	mv	a4, s10
   1834c: 01 4d        	li	s10, 0x0
   1834e: 6f f0 ef b2  	j	0x1767c <_svfprintf_r+0x16a>
   18352: 5a 88        	mv	a6, s6
   18354: 05 b2        	j	0x17c74 <_svfprintf_r+0x762>
   18356: a2 76        	ld	a3, 0x28(sp)
   18358: a3 07 01 0a  	sb	zero, 0xaf(sp)
   1835c: da 87        	mv	a5, s6
   1835e: 03 ba 06 00  	ld	s4, 0x0(a3)
   18362: 13 87 86 00  	addi	a4, a3, 0x8
   18366: e3 59 03 ae  	bgez	t1, 0x17e58 <_svfprintf_r+0x946>
   1836a: 3a f4        	sd	a4, 0x28(sp)
   1836c: 3e 8b        	mv	s6, a5
   1836e: 6f f0 0f fe  	j	0x17b4e <_svfprintf_r+0x63c>
   18372: a2 77        	ld	a5, 0x28(sp)
   18374: 93 86 f7 00  	addi	a3, a5, 0xf
   18378: c1 9a        	andi	a3, a3, -0x10
   1837a: 93 87 06 01  	addi	a5, a3, 0x10
   1837e: 98 62        	ld	a4, 0x0(a3)
   18380: 8c 66        	ld	a1, 0x8(a3)
   18382: 3e f4        	sd	a5, 0x28(sp)
   18384: 6f f0 ef c3  	j	0x177c2 <_svfprintf_r+0x2b0>
   18388: a2 77        	ld	a5, 0x28(sp)
   1838a: a1 07        	addi	a5, a5, 0x8
   1838c: 22 77        	ld	a4, 0x28(sp)
   1838e: 36 8b        	mv	s6, a3
   18390: 3e f4        	sd	a5, 0x28(sp)
   18392: 18 63        	ld	a4, 0x0(a4)
   18394: 3a 8a        	mv	s4, a4
   18396: 6f f0 4f fa  	j	0x17b3a <_svfprintf_r+0x628>
   1839a: 02 76        	ld	a2, 0x20(sp)
   1839c: 97 65 00 00  	auipc	a1, 0x6
   183a0: 93 85 45 10  	addi	a1, a1, 0x104
   183a4: 13 6f 2b 00  	ori	t5, s6, 0x2
   183a8: 13 77 f6 00  	andi	a4, a2, 0xf
   183ac: 2e 97        	add	a4, a4, a1
   183ae: 83 46 07 00  	lbu	a3, 0x0(a4)
   183b2: 3e f4        	sd	a5, 0x28(sp)
   183b4: 13 57 46 00  	srli	a4, a2, 0x4
   183b8: a3 0d d1 14  	sb	a3, 0x15b(sp)
   183bc: 1b 0b 0f 00  	sext.w	s6, t5
   183c0: 09 46        	li	a2, 0x2
   183c2: 13 0e 80 07  	li	t3, 0x78
   183c6: 19 e3        	bnez	a4, 0x183cc <_svfprintf_r+0xeba>
   183c8: 6f 10 00 1b  	j	0x19578 <_svfprintf_r+0x2066>
   183cc: 93 0b b1 15  	addi	s7, sp, 0x15b
   183d0: 93 77 f7 00  	andi	a5, a4, 0xf
   183d4: ae 97        	add	a5, a5, a1
   183d6: 83 c7 07 00  	lbu	a5, 0x0(a5)
   183da: 11 83        	srli	a4, a4, 0x4
   183dc: fd 1b        	addi	s7, s7, -0x1
   183de: 23 80 fb 00  	sb	a5, 0x0(s7)
   183e2: 7d f7        	bnez	a4, 0x183d0 <_svfprintf_r+0xebe>
   183e4: 93 08 c1 15  	addi	a7, sp, 0x15c
   183e8: 3b 8c 78 41  	subw	s8, a7, s7
   183ec: 1a 88        	mv	a6, t1
   183ee: 63 53 83 01  	bge	t1, s8, 0x183f4 <_svfprintf_r+0xee2>
   183f2: 62 88        	mv	a6, s8
   183f4: 9b 0d 08 00  	sext.w	s11, a6
   183f8: 02 f0        	sd	zero, 0x20(sp)
   183fa: 82 e4        	sd	zero, 0x48(sp)
   183fc: 82 e0        	sd	zero, 0x40(sp)
   183fe: 02 f8        	sd	zero, 0x30(sp)
   18400: 01 45        	li	a0, 0x0
   18402: 63 02 06 a6  	beqz	a2, 0x17666 <_svfprintf_r+0x154>
   18406: 4e 7a        	ld	s4, 0xf0(sp)
   18408: ae 55        	lw	a1, 0xe8(sp)
   1840a: 13 7d 4b 08  	andi	s10, s6, 0x84
   1840e: 89 2d        	addiw	s11, s11, 0x2
   18410: 52 86        	mv	a2, s4
   18412: ae 86        	mv	a3, a1
   18414: 63 0f 0d 2e  	beqz	s10, 0x18712 <_svfprintf_r+0x1200>
   18418: 09 47        	li	a4, 0x2
   1841a: 63 11 05 a6  	bnez	a0, 0x1767c <_svfprintf_r+0x16a>
   1841e: 6f f0 0f a8  	j	0x1769e <_svfprintf_r+0x18c>
   18422: 36 87        	mv	a4, a3
   18424: 1b 0c 07 00  	sext.w	s8, a4
   18428: e3 46 80 cb  	bgtz	s8, 0x180d4 <_svfprintf_r+0xbc2>
   1842c: c9 b1        	j	0x180ee <_svfprintf_r+0xbdc>
   1842e: 62 88        	mv	a6, s8
   18430: 6d b8        	j	0x17cea <_svfprintf_r+0x7d8>
   18432: 7d 53        	li	t1, -0x1
   18434: 1a 8c        	mv	s8, t1
   18436: b2 8a        	mv	s5, a2
   18438: 6f f0 ef 9b  	j	0x175f6 <_svfprintf_r+0xe4>
   1843c: e3 1a 03 1c  	bnez	t1, 0x18e10 <_svfprintf_r+0x18fe>
   18440: 03 47 f1 0a  	lbu	a4, 0xaf(sp)
   18444: 81 4d        	li	s11, 0x0
   18446: 01 4c        	li	s8, 0x0
   18448: 93 0b c1 15  	addi	s7, sp, 0x15c
   1844c: 6f f0 af f2  	j	0x17b76 <_svfprintf_r+0x664>
   18450: 62 83        	mv	t1, s8
   18452: 97 65 00 00  	auipc	a1, 0x6
   18456: 93 85 65 06  	addi	a1, a1, 0x66
   1845a: a2 76        	ld	a3, 0x28(sp)
   1845c: 13 77 0b 02  	andi	a4, s6, 0x20
   18460: 93 87 86 00  	addi	a5, a3, 0x8
   18464: 63 04 07 30  	beqz	a4, 0x1876c <_svfprintf_r+0x125a>
   18468: 98 62        	ld	a4, 0x0(a3)
   1846a: 93 76 1b 00  	andi	a3, s6, 0x1
   1846e: 63 8f 06 2a  	beqz	a3, 0x1872c <_svfprintf_r+0x121a>
   18472: 63 09 07 40  	beqz	a4, 0x18884 <_svfprintf_r+0x1372>
   18476: 93 06 00 03  	li	a3, 0x30
   1847a: a3 08 c1 0b  	sb	t3, 0xb1(sp)
   1847e: a3 07 01 0a  	sb	zero, 0xaf(sp)
   18482: 23 08 d1 0a  	sb	a3, 0xb0(sp)
   18486: 63 46 03 30  	bltz	t1, 0x18792 <_svfprintf_r+0x1280>
   1848a: 13 7f fb b7  	andi	t5, s6, -0x481
   1848e: 01 2f        	sext.w	t5, t5
   18490: 13 6b 2f 00  	ori	s6, t5, 0x2
   18494: 93 76 f7 00  	andi	a3, a4, 0xf
   18498: ae 96        	add	a3, a3, a1
   1849a: 83 c6 06 00  	lbu	a3, 0x0(a3)
   1849e: 13 76 2b 00  	andi	a2, s6, 0x2
   184a2: 3e f4        	sd	a5, 0x28(sp)
   184a4: a3 0d d1 14  	sb	a3, 0x15b(sp)
   184a8: 11 83        	srli	a4, a4, 0x4
   184aa: 0d f3        	bnez	a4, 0x183cc <_svfprintf_r+0xeba>
   184ac: 93 0b b1 15  	addi	s7, sp, 0x15b
   184b0: 15 bf        	j	0x183e4 <_svfprintf_r+0xed2>
   184b2: c2 65        	ld	a1, 0x10(sp)
   184b4: 22 65        	ld	a0, 0x8(sp)
   184b6: 90 11        	addi	a2, sp, 0xe0
   184b8: ef 30 20 32  	jal	0x1b7da <__ssprint_r>
   184bc: e3 11 05 b4  	bnez	a0, 0x17ffe <_svfprintf_r+0xaec>
   184c0: 4e 7a        	ld	s4, 0xf0(sp)
   184c2: 4e 89        	mv	s2, s3
   184c4: 6f f0 4f de  	j	0x17aa8 <_svfprintf_r+0x596>
   184c8: 13 6b 0b 20  	ori	s6, s6, 0x200
   184cc: 03 ce 1a 00  	lbu	t3, 0x1(s5)
   184d0: 01 2b        	sext.w	s6, s6
   184d2: 85 0a        	addi	s5, s5, 0x1
   184d4: 6f f0 0f 92  	j	0x175f4 <_svfprintf_r+0xe2>
   184d8: 81 46        	li	a3, 0x0
   184da: 29 b9        	j	0x180f4 <_svfprintf_r+0xbe2>
   184dc: 13 6b 0b 02  	ori	s6, s6, 0x20
   184e0: 03 ce 1a 00  	lbu	t3, 0x1(s5)
   184e4: 01 2b        	sext.w	s6, s6
   184e6: 85 0a        	addi	s5, s5, 0x1
   184e8: 6f f0 cf 90  	j	0x175f4 <_svfprintf_r+0xe2>
   184ec: 62 83        	mv	t1, s8
   184ee: 97 65 00 00  	auipc	a1, 0x6
   184f2: 93 85 25 fb  	addi	a1, a1, -0x4e
   184f6: 95 b7        	j	0x1845a <_svfprintf_r+0xf48>
   184f8: 22 65        	ld	a0, 0x8(sp)
   184fa: 93 05 00 04  	li	a1, 0x40
   184fe: ef d0 af f1  	jal	0x15c18 <_malloc_r>
   18502: c2 67        	ld	a5, 0x10(sp)
   18504: 88 e3        	sd	a0, 0x0(a5)
   18506: 88 ef        	sd	a0, 0x18(a5)
   18508: 19 e1        	bnez	a0, 0x1850e <_svfprintf_r+0xffc>
   1850a: 6f 10 80 04  	j	0x19552 <_svfprintf_r+0x2040>
   1850e: c2 67        	ld	a5, 0x10(sp)
   18510: 23 3c 91 22  	sd	s1, 0x238(sp)
   18514: 23 38 21 23  	sd	s2, 0x230(sp)
   18518: 23 34 31 23  	sd	s3, 0x228(sp)
   1851c: 23 30 41 23  	sd	s4, 0x220(sp)
   18520: 23 3c 51 21  	sd	s5, 0x218(sp)
   18524: 23 38 61 21  	sd	s6, 0x210(sp)
   18528: 23 34 71 21  	sd	s7, 0x208(sp)
   1852c: e6 ff        	sd	s9, 0x1f8(sp)
   1852e: ea fb        	sd	s10, 0x1f0(sp)
   18530: ee f7        	sd	s11, 0x1e8(sp)
   18532: 13 07 00 04  	li	a4, 0x40
   18536: 98 d3        	sw	a4, 0x20(a5)
   18538: 6f f0 cf 83  	j	0x17574 <_svfprintf_r+0x62>
   1853c: c1 48        	li	a7, 0x10
   1853e: 2e 56        	lw	a2, 0xe8(sp)
   18540: 17 6d 00 00  	auipc	s10, 0x6
   18544: 13 0d 0d 74  	addi	s10, s10, 0x740
   18548: e3 d1 88 03  	bge	a7, s8, 0x18d6a <_svfprintf_r+0x1858>
   1854c: d2 87        	mv	a5, s4
   1854e: 46 8e        	mv	t3, a7
   18550: 6a 8a        	mv	s4, s10
   18552: 1d 43        	li	t1, 0x7
   18554: 62 8d        	mv	s10, s8
   18556: 5e 8c        	mv	s8, s7
   18558: da 8b        	mv	s7, s6
   1855a: 56 8b        	mv	s6, s5
   1855c: c2 6a        	ld	s5, 0x10(sp)
   1855e: 21 a0        	j	0x18566 <_svfprintf_r+0x1054>
   18560: 41 3d        	addiw	s10, s10, -0x10
   18562: 63 5e ae 7f  	bge	t3, s10, 0x18d5e <_svfprintf_r+0x184c>
   18566: c1 07        	addi	a5, a5, 0x10
   18568: 05 26        	addiw	a2, a2, 0x1
   1856a: 23 30 49 01  	sd	s4, 0x0(s2)
   1856e: 23 34 19 01  	sd	a7, 0x8(s2)
   18572: be f9        	sd	a5, 0xf0(sp)
   18574: b2 d5        	sw	a2, 0xe8(sp)
   18576: 41 09        	addi	s2, s2, 0x10
   18578: e3 54 c3 fe  	bge	t1, a2, 0x18560 <_svfprintf_r+0x104e>
   1857c: 22 65        	ld	a0, 0x8(sp)
   1857e: 90 11        	addi	a2, sp, 0xe0
   18580: d6 85        	mv	a1, s5
   18582: ef 30 80 25  	jal	0x1b7da <__ssprint_r>
   18586: e3 1c 05 a6  	bnez	a0, 0x17ffe <_svfprintf_r+0xaec>
   1858a: 41 4e        	li	t3, 0x10
   1858c: ce 77        	ld	a5, 0xf0(sp)
   1858e: 2e 56        	lw	a2, 0xe8(sp)
   18590: 4e 89        	mv	s2, s3
   18592: 1d 43        	li	t1, 0x7
   18594: f2 88        	mv	a7, t3
   18596: e9 b7        	j	0x18560 <_svfprintf_r+0x104e>
   18598: 5e 85        	mv	a0, s7
   1859a: 72 f0        	sd	t3, 0x20(sp)
   1859c: ef e0 9f e5  	jal	0x173f4 <strlen>
   185a0: 1b 0c 05 00  	sext.w	s8, a0
   185a4: 02 7e        	ld	t3, 0x20(sp)
   185a6: 62 87        	mv	a4, s8
   185a8: e3 4a 0c 10  	bltz	s8, 0x18ebc <_svfprintf_r+0x19aa>
   185ac: 83 46 f1 0a  	lbu	a3, 0xaf(sp)
   185b0: ba 8d        	mv	s11, a4
   185b2: 63 85 06 bc  	beqz	a3, 0x1797c <_svfprintf_r+0x46a>
   185b6: 9b 0d 17 00  	addiw	s11, a4, 0x1
   185ba: 6f f0 2f bc  	j	0x1797c <_svfprintf_r+0x46a>
   185be: e2 77        	ld	a5, 0x38(sp)
   185c0: 56 e1        	sd	s5, 0x80(sp)
   185c2: 66 e5        	sd	s9, 0x88(sp)
   185c4: de 97        	add	a5, a5, s7
   185c6: 3e f8        	sd	a5, 0x30(sp)
   185c8: ca 87        	mv	a5, s2
   185ca: 06 69        	ld	s2, 0x40(sp)
   185cc: 6e ed        	sd	s11, 0x98(sp)
   185ce: 52 86        	mv	a2, s4
   185d0: 5a e9        	sd	s6, 0x90(sp)
   185d2: 26 6a        	ld	s4, 0x48(sp)
   185d4: de e4        	sd	s7, 0x48(sp)
   185d6: c6 7d        	ld	s11, 0x70(sp)
   185d8: ea 8b        	mv	s7, s10
   185da: a2 6a        	ld	s5, 0x8(sp)
   185dc: c2 6c        	ld	s9, 0x10(sp)
   185de: 66 7d        	ld	s10, 0x78(sp)
   185e0: 9d 46        	li	a3, 0x7
   185e2: 41 47        	li	a4, 0x10
   185e4: 17 6c 00 00  	auipc	s8, 0x6
   185e8: 13 0c cc 69  	addi	s8, s8, 0x69c
   185ec: 63 5a 20 07  	blez	s2, 0x18660 <_svfprintf_r+0x114e>
   185f0: 63 53 40 11  	blez	s4, 0x186f6 <_svfprintf_r+0x11e4>
   185f4: 7d 3a        	addiw	s4, s4, -0x1
   185f6: ae 55        	lw	a1, 0xe8(sp)
   185f8: 26 75        	ld	a0, 0x68(sp)
   185fa: 6a 96        	add	a2, a2, s10
   185fc: 85 25        	addiw	a1, a1, 0x1
   185fe: 88 e3        	sd	a0, 0x0(a5)
   18600: 23 b4 a7 01  	sd	s10, 0x8(a5)
   18604: b2 f9        	sd	a2, 0xf0(sp)
   18606: ae d5        	sw	a1, 0xe8(sp)
   18608: c1 07        	addi	a5, a5, 0x10
   1860a: 63 c8 b6 16  	blt	a3, a1, 0x1877a <_svfprintf_r+0x1268>
   1860e: 42 75        	ld	a0, 0x30(sp)
   18610: 83 c5 0d 00  	lbu	a1, 0x0(s11)
   18614: b3 08 75 41  	sub	a7, a0, s7
   18618: 1b 85 08 00  	sext.w	a0, a7
   1861c: 2e 88        	mv	a6, a1
   1861e: 63 d3 a5 00  	bge	a1, a0, 0x18624 <_svfprintf_r+0x1112>
   18622: ae 88        	mv	a7, a1
   18624: 1b 8b 08 00  	sext.w	s6, a7
   18628: 63 51 60 03  	blez	s6, 0x1864a <_svfprintf_r+0x1138>
   1862c: ae 55        	lw	a1, 0xe8(sp)
   1862e: 5a 96        	add	a2, a2, s6
   18630: b2 f9        	sd	a2, 0xf0(sp)
   18632: 85 25        	addiw	a1, a1, 0x1
   18634: 23 b0 77 01  	sd	s7, 0x0(a5)
   18638: 23 b4 67 01  	sd	s6, 0x8(a5)
   1863c: ae d5        	sw	a1, 0xe8(sp)
   1863e: 63 c4 b6 2a  	blt	a3, a1, 0x188e6 <_svfprintf_r+0x13d4>
   18642: 83 c5 0d 00  	lbu	a1, 0x0(s11)
   18646: c1 07        	addi	a5, a5, 0x10
   18648: 2e 88        	mv	a6, a1
   1864a: 5a 85        	mv	a0, s6
   1864c: 63 53 0b 00  	bgez	s6, 0x18652 <_svfprintf_r+0x1140>
   18650: 01 45        	li	a0, 0x0
   18652: 3b 0b a8 40  	subw	s6, a6, a0
   18656: 63 47 60 03  	bgtz	s6, 0x18684 <_svfprintf_r+0x1172>
   1865a: ae 9b        	add	s7, s7, a1
   1865c: e3 4a 20 f9  	bgtz	s2, 0x185f0 <_svfprintf_r+0x10de>
   18660: e3 4a 40 f9  	bgtz	s4, 0x185f4 <_svfprintf_r+0x10e2>
   18664: 5e 8d        	mv	s10, s7
   18666: 3e 89        	mv	s2, a5
   18668: a6 6b        	ld	s7, 0x48(sp)
   1866a: e2 77        	ld	a5, 0x38(sp)
   1866c: ee f8        	sd	s11, 0x70(sp)
   1866e: 8a 6a        	ld	s5, 0x80(sp)
   18670: 33 87 fb 00  	add	a4, s7, a5
   18674: aa 6c        	ld	s9, 0x88(sp)
   18676: 4a 6b        	ld	s6, 0x90(sp)
   18678: ea 6d        	ld	s11, 0x98(sp)
   1867a: 32 8a        	mv	s4, a2
   1867c: e3 78 a7 a9  	bgeu	a4, s10, 0x1810c <_svfprintf_r+0xbfa>
   18680: 3a 8d        	mv	s10, a4
   18682: 69 b4        	j	0x1810c <_svfprintf_r+0xbfa>
   18684: ae 55        	lw	a1, 0xe8(sp)
   18686: 97 68 00 00  	auipc	a7, 0x6
   1868a: 93 88 a8 5f  	addi	a7, a7, 0x5fa
   1868e: 63 55 67 05  	bge	a4, s6, 0x186d8 <_svfprintf_r+0x11c6>
   18692: ca e0        	sd	s2, 0x40(sp)
   18694: 5a 89        	mv	s2, s6
   18696: 46 8b        	mv	s6, a7
   18698: 21 a0        	j	0x186a0 <_svfprintf_r+0x118e>
   1869a: 41 39        	addiw	s2, s2, -0x10
   1869c: 63 5b 27 03  	bge	a4, s2, 0x186d2 <_svfprintf_r+0x11c0>
   186a0: 41 06        	addi	a2, a2, 0x10
   186a2: 85 25        	addiw	a1, a1, 0x1
   186a4: 23 b0 87 01  	sd	s8, 0x0(a5)
   186a8: 98 e7        	sd	a4, 0x8(a5)
   186aa: b2 f9        	sd	a2, 0xf0(sp)
   186ac: ae d5        	sw	a1, 0xe8(sp)
   186ae: c1 07        	addi	a5, a5, 0x10
   186b0: e3 d5 b6 fe  	bge	a3, a1, 0x1869a <_svfprintf_r+0x1188>
   186b4: 90 11        	addi	a2, sp, 0xe0
   186b6: e6 85        	mv	a1, s9
   186b8: 56 85        	mv	a0, s5
   186ba: ef 30 00 12  	jal	0x1b7da <__ssprint_r>
   186be: e3 10 05 94  	bnez	a0, 0x17ffe <_svfprintf_r+0xaec>
   186c2: 41 47        	li	a4, 0x10
   186c4: 41 39        	addiw	s2, s2, -0x10
   186c6: 4e 76        	ld	a2, 0xf0(sp)
   186c8: ae 55        	lw	a1, 0xe8(sp)
   186ca: ce 87        	mv	a5, s3
   186cc: 9d 46        	li	a3, 0x7
   186ce: e3 49 27 fd  	blt	a4, s2, 0x186a0 <_svfprintf_r+0x118e>
   186d2: da 88        	mv	a7, s6
   186d4: 4a 8b        	mv	s6, s2
   186d6: 06 69        	ld	s2, 0x40(sp)
   186d8: 5a 96        	add	a2, a2, s6
   186da: 85 25        	addiw	a1, a1, 0x1
   186dc: b2 f9        	sd	a2, 0xf0(sp)
   186de: ae d5        	sw	a1, 0xe8(sp)
   186e0: 23 b0 17 01  	sd	a7, 0x0(a5)
   186e4: 23 b4 67 01  	sd	s6, 0x8(a5)
   186e8: e3 c8 b6 20  	blt	a3, a1, 0x190f8 <_svfprintf_r+0x1be6>
   186ec: 83 c5 0d 00  	lbu	a1, 0x0(s11)
   186f0: c1 07        	addi	a5, a5, 0x10
   186f2: ae 9b        	add	s7, s7, a1
   186f4: a5 b7        	j	0x1865c <_svfprintf_r+0x114a>
   186f6: fd 1d        	addi	s11, s11, -0x1
   186f8: 7d 39        	addiw	s2, s2, -0x1
   186fa: f5 bd        	j	0x185f6 <_svfprintf_r+0x10e4>
   186fc: 2a 8b        	mv	s6, a0
   186fe: 3e f4        	sd	a5, 0x28(sp)
   18700: 01 4c        	li	s8, 0x0
   18702: 82 e4        	sd	zero, 0x48(sp)
   18704: 82 e0        	sd	zero, 0x40(sp)
   18706: 13 0e 80 07  	li	t3, 0x78
   1870a: 93 0b c1 15  	addi	s7, sp, 0x15c
   1870e: 01 45        	li	a0, 0x0
   18710: 89 4d        	li	s11, 0x2
   18712: 3b 87 bc 41  	subw	a4, s9, s11
   18716: 63 49 e0 00  	bgtz	a4, 0x18728 <_svfprintf_r+0x1216>
   1871a: 01 4d        	li	s10, 0x0
   1871c: 19 e1        	bnez	a0, 0x18722 <_svfprintf_r+0x1210>
   1871e: 6f e0 1f f8  	j	0x1769e <_svfprintf_r+0x18c>
   18722: 09 47        	li	a4, 0x2
   18724: 6f e0 9f f5  	j	0x1767c <_svfprintf_r+0x16a>
   18728: 09 4d        	li	s10, 0x2
   1872a: 75 bc        	j	0x181e6 <_svfprintf_r+0xcd4>
   1872c: a3 07 01 0a  	sb	zero, 0xaf(sp)
   18730: 63 45 03 06  	bltz	t1, 0x1879a <_svfprintf_r+0x1288>
   18734: 13 7f fb b7  	andi	t5, s6, -0x481
   18738: 1b 0b 0f 00  	sext.w	s6, t5
   1873c: e3 1c 07 d4  	bnez	a4, 0x18494 <_svfprintf_r+0xf82>
   18740: 63 0a 03 06  	beqz	t1, 0x187b4 <_svfprintf_r+0x12a2>
   18744: 03 c7 05 00  	lbu	a4, 0x0(a1)
   18748: 1a 88        	mv	a6, t1
   1874a: a3 0d e1 14  	sb	a4, 0x15b(sp)
   1874e: 63 43 60 00  	bgtz	t1, 0x18754 <_svfprintf_r+0x1242>
   18752: 05 48        	li	a6, 0x1
   18754: 9b 0d 08 00  	sext.w	s11, a6
   18758: 3e f4        	sd	a5, 0x28(sp)
   1875a: 02 f0        	sd	zero, 0x20(sp)
   1875c: 05 4c        	li	s8, 0x1
   1875e: 82 e4        	sd	zero, 0x48(sp)
   18760: 82 e0        	sd	zero, 0x40(sp)
   18762: 02 f8        	sd	zero, 0x30(sp)
   18764: 93 0b b1 15  	addi	s7, sp, 0x15b
   18768: 6f e0 ff ef  	j	0x17666 <_svfprintf_r+0x154>
   1876c: 13 77 0b 01  	andi	a4, s6, 0x10
   18770: 63 03 07 12  	beqz	a4, 0x18896 <_svfprintf_r+0x1384>
   18774: 22 77        	ld	a4, 0x28(sp)
   18776: 18 63        	ld	a4, 0x0(a4)
   18778: cd b9        	j	0x1846a <_svfprintf_r+0xf58>
   1877a: 90 11        	addi	a2, sp, 0xe0
   1877c: e6 85        	mv	a1, s9
   1877e: 56 85        	mv	a0, s5
   18780: ef 30 a0 05  	jal	0x1b7da <__ssprint_r>
   18784: e3 1d 05 86  	bnez	a0, 0x17ffe <_svfprintf_r+0xaec>
   18788: 4e 76        	ld	a2, 0xf0(sp)
   1878a: ce 87        	mv	a5, s3
   1878c: 41 47        	li	a4, 0x10
   1878e: 9d 46        	li	a3, 0x7
   18790: bd bd        	j	0x1860e <_svfprintf_r+0x10fc>
   18792: 13 6f 2b 00  	ori	t5, s6, 0x2
   18796: 1b 0b 0f 00  	sext.w	s6, t5
   1879a: 93 76 f7 00  	andi	a3, a4, 0xf
   1879e: ae 96        	add	a3, a3, a1
   187a0: 13 75 fb bf  	andi	a0, s6, -0x401
   187a4: 13 76 2b 00  	andi	a2, s6, 0x2
   187a8: 83 c6 06 00  	lbu	a3, 0x0(a3)
   187ac: 3e f4        	sd	a5, 0x28(sp)
   187ae: 1b 0b 05 00  	sext.w	s6, a0
   187b2: cd b9        	j	0x184a4 <_svfprintf_r+0xf92>
   187b4: 3e f4        	sd	a5, 0x28(sp)
   187b6: 01 4c        	li	s8, 0x0
   187b8: 81 4d        	li	s11, 0x0
   187ba: 93 0b c1 15  	addi	s7, sp, 0x15c
   187be: 6f f0 2f d3  	j	0x17cf0 <_svfprintf_r+0x7de>
   187c2: c2 65        	ld	a1, 0x10(sp)
   187c4: 22 65        	ld	a0, 0x8(sp)
   187c6: 90 11        	addi	a2, sp, 0xe0
   187c8: 1a e5        	sd	t1, 0x88(sp)
   187ca: 72 e1        	sd	t3, 0x80(sp)
   187cc: ef 30 e0 00  	jal	0x1b7da <__ssprint_r>
   187d0: e3 17 05 82  	bnez	a0, 0x17ffe <_svfprintf_r+0xaec>
   187d4: 03 47 f1 0a  	lbu	a4, 0xaf(sp)
   187d8: 4e 7a        	ld	s4, 0xf0(sp)
   187da: 0a 6e        	ld	t3, 0x80(sp)
   187dc: 2a 63        	ld	t1, 0x88(sp)
   187de: 63 07 07 1c  	beqz	a4, 0x189ac <_svfprintf_r+0x149a>
   187e2: 6a 87        	mv	a4, s10
   187e4: ae 55        	lw	a1, 0xe8(sp)
   187e6: 01 4d        	li	s10, 0x0
   187e8: 4e 89        	mv	s2, s3
   187ea: 6f e0 3f e9  	j	0x1767c <_svfprintf_r+0x16a>
   187ee: 01 4c        	li	s8, 0x0
   187f0: 93 0b c1 15  	addi	s7, sp, 0x15c
   187f4: 6f f0 cf cf  	j	0x17cf0 <_svfprintf_r+0x7de>
   187f8: 2e 57        	lw	a4, 0xe8(sp)
   187fa: 85 46        	li	a3, 0x1
   187fc: 05 0a        	addi	s4, s4, 0x1
   187fe: 97 65 00 00  	auipc	a1, 0x6
   18802: 93 85 a5 cd  	addi	a1, a1, -0x326
   18806: 05 27        	addiw	a4, a4, 0x1
   18808: 23 34 d9 00  	sd	a3, 0x8(s2)
   1880c: 23 30 b9 00  	sd	a1, 0x0(s2)
   18810: d2 f9        	sd	s4, 0xf0(sp)
   18812: ba d5        	sw	a4, 0xe8(sp)
   18814: 9d 46        	li	a3, 0x7
   18816: 41 09        	addi	s2, s2, 0x10
   18818: 63 cb e6 04  	blt	a3, a4, 0x1886e <_svfprintf_r+0x135c>
   1881c: 63 1f 06 18  	bnez	a2, 0x189ba <_svfprintf_r+0x14a8>
   18820: e2 77        	ld	a5, 0x38(sp)
   18822: 13 77 1b 00  	andi	a4, s6, 0x1
   18826: 5d 8f        	or	a4, a4, a5
   18828: 01 27        	sext.w	a4, a4
   1882a: 19 e3        	bnez	a4, 0x18830 <_svfprintf_r+0x131e>
   1882c: 6f e0 1f ec  	j	0x176ec <_svfprintf_r+0x1da>
   18830: ae 56        	lw	a3, 0xe8(sp)
   18832: c6 67        	ld	a5, 0x50(sp)
   18834: 66 67        	ld	a4, 0x58(sp)
   18836: 85 26        	addiw	a3, a3, 0x1
   18838: 3e 9a        	add	s4, s4, a5
   1883a: 23 30 e9 00  	sd	a4, 0x0(s2)
   1883e: d2 f9        	sd	s4, 0xf0(sp)
   18840: 23 34 f9 00  	sd	a5, 0x8(s2)
   18844: b6 d5        	sw	a3, 0xe8(sp)
   18846: 1d 47        	li	a4, 0x7
   18848: 63 4f d7 6a  	blt	a4, a3, 0x18f06 <_svfprintf_r+0x19f4>
   1884c: 41 09        	addi	s2, s2, 0x10
   1884e: e2 77        	ld	a5, 0x38(sp)
   18850: 85 26        	addiw	a3, a3, 0x1
   18852: b6 d5        	sw	a3, 0xe8(sp)
   18854: 3e 9a        	add	s4, s4, a5
   18856: 23 34 f9 00  	sd	a5, 0x8(s2)
   1885a: d2 f9        	sd	s4, 0xf0(sp)
   1885c: 23 30 79 01  	sd	s7, 0x0(s2)
   18860: 9d 47        	li	a5, 0x7
   18862: 63 c4 d7 00  	blt	a5, a3, 0x1886a <_svfprintf_r+0x1358>
   18866: 6f e0 5f e8  	j	0x176ea <_svfprintf_r+0x1d8>
   1886a: 6f f0 af 89  	j	0x17904 <_svfprintf_r+0x3f2>
   1886e: c2 65        	ld	a1, 0x10(sp)
   18870: 22 65        	ld	a0, 0x8(sp)
   18872: 90 11        	addi	a2, sp, 0xe0
   18874: ef 20 70 76  	jal	0x1b7da <__ssprint_r>
   18878: 63 13 05 f8  	bnez	a0, 0x17ffe <_svfprintf_r+0xaec>
   1887c: 6a 56        	lw	a2, 0xb8(sp)
   1887e: 4e 7a        	ld	s4, 0xf0(sp)
   18880: 4e 89        	mv	s2, s3
   18882: 69 bf        	j	0x1881c <_svfprintf_r+0x130a>
   18884: a3 07 01 0a  	sb	zero, 0xaf(sp)
   18888: 63 48 03 50  	bltz	t1, 0x18d98 <_svfprintf_r+0x1886>
   1888c: 13 7f fb b7  	andi	t5, s6, -0x481
   18890: 1b 0b 0f 00  	sext.w	s6, t5
   18894: 75 b5        	j	0x18740 <_svfprintf_r+0x122e>
   18896: 22 77        	ld	a4, 0x28(sp)
   18898: 93 76 0b 04  	andi	a3, s6, 0x40
   1889c: 18 43        	lw	a4, 0x0(a4)
   1889e: 63 87 06 18  	beqz	a3, 0x18a2c <_svfprintf_r+0x151a>
   188a2: 42 17        	slli	a4, a4, 0x30
   188a4: 41 93        	srli	a4, a4, 0x30
   188a6: d1 b6        	j	0x1846a <_svfprintf_r+0xf58>
   188a8: c2 65        	ld	a1, 0x10(sp)
   188aa: 22 65        	ld	a0, 0x8(sp)
   188ac: 90 11        	addi	a2, sp, 0xe0
   188ae: ef 20 d0 72  	jal	0x1b7da <__ssprint_r>
   188b2: 63 16 05 f4  	bnez	a0, 0x17ffe <_svfprintf_r+0xaec>
   188b6: 4e 7a        	ld	s4, 0xf0(sp)
   188b8: 4e 89        	mv	s2, s3
   188ba: 6f f0 8f 9c  	j	0x17a82 <_svfprintf_r+0x570>
   188be: da 8a        	mv	s5, s6
   188c0: 62 8b        	mv	s6, s8
   188c2: 6a 8c        	mv	s8, s10
   188c4: 52 8d        	mv	s10, s4
   188c6: 3a 8a        	mv	s4, a4
   188c8: 62 9a        	add	s4, s4, s8
   188ca: 85 27        	addiw	a5, a5, 0x1
   188cc: d2 f9        	sd	s4, 0xf0(sp)
   188ce: be d5        	sw	a5, 0xe8(sp)
   188d0: 23 30 a9 01  	sd	s10, 0x0(s2)
   188d4: 23 34 89 01  	sd	s8, 0x8(s2)
   188d8: 1d 47        	li	a4, 0x7
   188da: 63 44 f7 00  	blt	a4, a5, 0x188e2 <_svfprintf_r+0x13d0>
   188de: 6f e0 df e0  	j	0x176ea <_svfprintf_r+0x1d8>
   188e2: 6f f0 2f 82  	j	0x17904 <_svfprintf_r+0x3f2>
   188e6: 90 11        	addi	a2, sp, 0xe0
   188e8: e6 85        	mv	a1, s9
   188ea: 56 85        	mv	a0, s5
   188ec: ef 20 f0 6e  	jal	0x1b7da <__ssprint_r>
   188f0: 63 17 05 f0  	bnez	a0, 0x17ffe <_svfprintf_r+0xaec>
   188f4: 83 c5 0d 00  	lbu	a1, 0x0(s11)
   188f8: 4e 76        	ld	a2, 0xf0(sp)
   188fa: ce 87        	mv	a5, s3
   188fc: 2e 88        	mv	a6, a1
   188fe: 41 47        	li	a4, 0x10
   18900: 9d 46        	li	a3, 0x7
   18902: a1 b3        	j	0x1864a <_svfprintf_r+0x1138>
   18904: 4e 65        	ld	a0, 0xd0(sp)
   18906: ee 65        	ld	a1, 0xd8(sp)
   18908: 13 7f fb f7  	andi	t5, s6, -0x81
   1890c: 01 46        	li	a2, 0x0
   1890e: 81 46        	li	a3, 0x0
   18910: 1b 0b 0f 00  	sext.w	s6, t5
   18914: ef 40 70 05  	jal	0x1d16a <__lttf2>
   18918: 02 7e        	ld	t3, 0x20(sp)
   1891a: e3 4a 05 06  	bltz	a0, 0x1918e <_svfprintf_r+0x1c7c>
   1891e: 93 06 70 04  	li	a3, 0x47
   18922: 03 47 f1 0a  	lbu	a4, 0xaf(sp)
   18926: 97 6b 00 00  	auipc	s7, 0x6
   1892a: 93 8b ab b5  	addi	s7, s7, -0x4a6
   1892e: 63 d6 c6 01  	bge	a3, t3, 0x1893a <_svfprintf_r+0x1428>
   18932: 97 6b 00 00  	auipc	s7, 0x6
   18936: 93 8b 6b b5  	addi	s7, s7, -0x4aa
   1893a: 63 19 07 6e  	bnez	a4, 0x1902c <_svfprintf_r+0x1b1a>
   1893e: 0d 4c        	li	s8, 0x3
   18940: e2 8d        	mv	s11, s8
   18942: 6f f0 cf 83  	j	0x1797e <_svfprintf_r+0x46c>
   18946: 13 76 f7 00  	andi	a2, a4, 0xf
   1894a: 97 65 00 00  	auipc	a1, 0x6
   1894e: 93 85 65 b5  	addi	a1, a1, -0x4aa
   18952: 2e 96        	add	a2, a2, a1
   18954: 83 46 06 00  	lbu	a3, 0x0(a2)
   18958: 2a 8b        	mv	s6, a0
   1895a: 09 46        	li	a2, 0x2
   1895c: 13 0e 80 07  	li	t3, 0x78
   18960: 89 b6        	j	0x184a2 <_svfprintf_r+0xf90>
   18962: 99 47        	li	a5, 0x6
   18964: 62 88        	mv	a6, s8
   18966: 63 e8 87 4d  	bltu	a5, s8, 0x18e36 <_svfprintf_r+0x1924>
   1896a: 9b 0d 08 00  	sext.w	s11, a6
   1896e: 6a f4        	sd	s10, 0x28(sp)
   18970: 6e 8c        	mv	s8, s11
   18972: 02 f0        	sd	zero, 0x20(sp)
   18974: 01 43        	li	t1, 0x0
   18976: 82 e4        	sd	zero, 0x48(sp)
   18978: 82 e0        	sd	zero, 0x40(sp)
   1897a: 02 f8        	sd	zero, 0x30(sp)
   1897c: 97 6b 00 00  	auipc	s7, 0x6
   18980: 93 8b 4b b5  	addi	s7, s7, -0x4ac
   18984: 6f e0 3f ce  	j	0x17666 <_svfprintf_r+0x154>
   18988: ca 87        	mv	a5, s2
   1898a: 3a 8a        	mv	s4, a4
   1898c: 6a 89        	mv	s2, s10
   1898e: 3e 8d        	mv	s10, a5
   18990: 4a 9a        	add	s4, s4, s2
   18992: 05 2c        	addiw	s8, s8, 0x1
   18994: d2 f9        	sd	s4, 0xf0(sp)
   18996: e2 d5        	sw	s8, 0xe8(sp)
   18998: 23 b0 a8 01  	sd	s10, 0x0(a7)
   1899c: 23 b4 28 01  	sd	s2, 0x8(a7)
   189a0: 9d 47        	li	a5, 0x7
   189a2: 63 c4 87 01  	blt	a5, s8, 0x189aa <_svfprintf_r+0x1498>
   189a6: 6f e0 ff f3  	j	0x178e4 <_svfprintf_r+0x3d2>
   189aa: e5 b0        	j	0x18292 <_svfprintf_r+0xd80>
   189ac: 63 09 0d 4a  	beqz	s10, 0x18e5e <_svfprintf_r+0x194c>
   189b0: ae 55        	lw	a1, 0xe8(sp)
   189b2: 01 4d        	li	s10, 0x0
   189b4: 4e 89        	mv	s2, s3
   189b6: 6f e0 9f ce  	j	0x1769e <_svfprintf_r+0x18c>
   189ba: ae 56        	lw	a3, 0xe8(sp)
   189bc: c6 67        	ld	a5, 0x50(sp)
   189be: 66 67        	ld	a4, 0x58(sp)
   189c0: 85 26        	addiw	a3, a3, 0x1
   189c2: 3e 9a        	add	s4, s4, a5
   189c4: 23 30 e9 00  	sd	a4, 0x0(s2)
   189c8: 23 34 f9 00  	sd	a5, 0x8(s2)
   189cc: d2 f9        	sd	s4, 0xf0(sp)
   189ce: b6 d5        	sw	a3, 0xe8(sp)
   189d0: 1d 47        	li	a4, 0x7
   189d2: 41 09        	addi	s2, s2, 0x10
   189d4: 63 49 d7 52  	blt	a4, a3, 0x18f06 <_svfprintf_r+0x19f4>
   189d8: e3 5b 06 e6  	bgez	a2, 0x1884e <_svfprintf_r+0x133c>
   189dc: 41 57        	li	a4, -0x10
   189de: 3b 0c c0 40  	negw	s8, a2
   189e2: 17 6d 00 00  	auipc	s10, 0x6
   189e6: 13 0d ed 29  	addi	s10, s10, 0x29e
   189ea: c1 48        	li	a7, 0x10
   189ec: 1d 43        	li	t1, 0x7
   189ee: 63 47 e6 00  	blt	a2, a4, 0x189fc <_svfprintf_r+0x14ea>
   189f2: 6f 00 d0 0e  	j	0x192de <_svfprintf_r+0x1dcc>
   189f6: 41 3c        	addiw	s8, s8, -0x10
   189f8: e3 d3 88 0f  	bge	a7, s8, 0x192de <_svfprintf_r+0x1dcc>
   189fc: 41 0a        	addi	s4, s4, 0x10
   189fe: 85 26        	addiw	a3, a3, 0x1
   18a00: 23 30 a9 01  	sd	s10, 0x0(s2)
   18a04: 23 34 19 01  	sd	a7, 0x8(s2)
   18a08: d2 f9        	sd	s4, 0xf0(sp)
   18a0a: b6 d5        	sw	a3, 0xe8(sp)
   18a0c: 41 09        	addi	s2, s2, 0x10
   18a0e: e3 54 d3 fe  	bge	t1, a3, 0x189f6 <_svfprintf_r+0x14e4>
   18a12: c2 65        	ld	a1, 0x10(sp)
   18a14: 22 65        	ld	a0, 0x8(sp)
   18a16: 90 11        	addi	a2, sp, 0xe0
   18a18: ef 20 30 5c  	jal	0x1b7da <__ssprint_r>
   18a1c: 63 11 05 de  	bnez	a0, 0x17ffe <_svfprintf_r+0xaec>
   18a20: 4e 7a        	ld	s4, 0xf0(sp)
   18a22: ae 56        	lw	a3, 0xe8(sp)
   18a24: 4e 89        	mv	s2, s3
   18a26: 1d 43        	li	t1, 0x7
   18a28: c1 48        	li	a7, 0x10
   18a2a: f1 b7        	j	0x189f6 <_svfprintf_r+0x14e4>
   18a2c: 93 76 0b 20  	andi	a3, s6, 0x200
   18a30: 63 8c 06 46  	beqz	a3, 0x18ea8 <_svfprintf_r+0x1996>
   18a34: 13 77 f7 0f  	andi	a4, a4, 0xff
   18a38: 0d bc        	j	0x1846a <_svfprintf_r+0xf58>
   18a3a: 93 76 0b 20  	andi	a3, s6, 0x200
   18a3e: 63 8b 06 44  	beqz	a3, 0x18e94 <_svfprintf_r+0x1982>
   18a42: 13 77 f7 0f  	andi	a4, a4, 0xff
   18a46: 3e f4        	sd	a5, 0x28(sp)
   18a48: 5a 88        	mv	a6, s6
   18a4a: 6f f0 0f a3  	j	0x17c7a <_svfprintf_r+0x768>
   18a4e: 13 77 0b 20  	andi	a4, s6, 0x200
   18a52: 63 07 07 44  	beqz	a4, 0x18ea0 <_svfprintf_r+0x198e>
   18a56: 1b 1a 8a 01  	slliw	s4, s4, 0x18
   18a5a: 1b 5a 8a 41  	sraiw	s4, s4, 0x18
   18a5e: 3e f4        	sd	a5, 0x28(sp)
   18a60: 52 87        	mv	a4, s4
   18a62: 6f f0 8f 8d  	j	0x17b3a <_svfprintf_r+0x628>
   18a66: 93 77 0b 20  	andi	a5, s6, 0x200
   18a6a: a3 07 01 0a  	sb	zero, 0xaf(sp)
   18a6e: 63 8a 07 40  	beqz	a5, 0x18e82 <_svfprintf_r+0x1970>
   18a72: 13 7a fa 0f  	andi	s4, s4, 0xff
   18a76: 63 5d 0c b0  	bgez	s8, 0x17d90 <_svfprintf_r+0x87e>
   18a7a: 6f f0 af be  	j	0x17e64 <_svfprintf_r+0x952>
   18a7e: 93 07 80 07  	li	a5, 0x78
   18a82: a3 08 f1 0a  	sb	a5, 0xb1(sp)
   18a86: 93 67 2b 00  	ori	a5, s6, 0x2
   18a8a: 13 07 00 03  	li	a4, 0x30
   18a8e: 81 27        	sext.w	a5, a5
   18a90: 23 08 e1 0a  	sb	a4, 0xb0(sp)
   18a94: be e0        	sd	a5, 0x40(sp)
   18a96: 13 07 30 06  	li	a4, 0x63
   18a9a: 63 44 67 48  	blt	a4, t1, 0x18f22 <_svfprintf_r+0x1a10>
   18a9e: ce 67        	ld	a5, 0xd0(sp)
   18aa0: 6e 6a        	ld	s4, 0xd8(sp)
   18aa2: 13 6f 2b 10  	ori	t5, s6, 0x102
   18aa6: 1b 0b 0f 00  	sext.w	s6, t5
   18aaa: be 8d        	mv	s11, a5
   18aac: 63 47 0a 66  	bltz	s4, 0x1911a <_svfprintf_r+0x1c08>
   18ab0: 9b 06 fe fb  	addiw	a3, t3, -0x41
   18ab4: 02 f0        	sd	zero, 0x20(sp)
   18ab6: 93 0b 81 0f  	addi	s7, sp, 0xf8
   18aba: 02 e1        	sd	zero, 0x80(sp)
   18abc: 13 06 00 02  	li	a2, 0x20
   18ac0: 13 17 06 02  	slli	a4, a2, 0x20
   18ac4: 05 4c        	li	s8, 0x1
   18ac6: 32 97        	add	a4, a4, a2
   18ac8: b3 16 dc 00  	sll	a3, s8, a3
   18acc: 75 8f        	and	a4, a4, a3
   18ace: 63 1e 07 56  	bnez	a4, 0x1904a <_svfprintf_r+0x1b38>
   18ad2: 41 46        	li	a2, 0x10
   18ad4: 13 17 06 02  	slli	a4, a2, 0x20
   18ad8: 32 97        	add	a4, a4, a2
   18ada: 75 8f        	and	a4, a4, a3
   18adc: e3 19 07 02  	bnez	a4, 0x1930e <_svfprintf_r+0x1dfc>
   18ae0: 13 17 0c 02  	slli	a4, s8, 0x20
   18ae4: 62 97        	add	a4, a4, s8
   18ae6: 75 8f        	and	a4, a4, a3
   18ae8: e3 06 07 04  	beqz	a4, 0x19334 <_svfprintf_r+0x1e22>
   18aec: d2 85        	mv	a1, s4
   18aee: 6e 85        	mv	a0, s11
   18af0: 1a fc        	sd	t1, 0x38(sp)
   18af2: 72 f8        	sd	t3, 0x30(sp)
   18af4: ef 50 e0 6d  	jal	0x1e1d2 <__trunctfdf2>
   18af8: 28 19        	addi	a0, sp, 0xb8
   18afa: ef e0 cf e4  	jal	0x17146 <frexp>
   18afe: ef 50 00 61  	jal	0x1e10e <__extenddftf2>
   18b02: 17 67 00 00  	auipc	a4, 0x6
   18b06: 13 07 e7 c4  	addi	a4, a4, -0x3b2
   18b0a: 10 63        	ld	a2, 0x0(a4)
   18b0c: 14 67        	ld	a3, 0x8(a4)
   18b0e: ef 40 a0 6f  	jal	0x1d208 <__multf3>
   18b12: 01 46        	li	a2, 0x0
   18b14: 81 46        	li	a3, 0x0
   18b16: 2a 8d        	mv	s10, a0
   18b18: 2e 8a        	mv	s4, a1
   18b1a: ef 40 e0 50  	jal	0x1d028 <__netf2>
   18b1e: 42 7e        	ld	t3, 0x30(sp)
   18b20: 62 73        	ld	t1, 0x38(sp)
   18b22: 11 e1        	bnez	a0, 0x18b26 <_svfprintf_r+0x1614>
   18b24: 62 dd        	sw	s8, 0xb8(sp)
   18b26: 13 07 10 06  	li	a4, 0x61
   18b2a: 17 6c 00 00  	auipc	s8, 0x6
   18b2e: 13 0c ec 98  	addi	s8, s8, -0x672
   18b32: 63 16 ee 00  	bne	t3, a4, 0x18b3e <_svfprintf_r+0x162c>
   18b36: 17 6c 00 00  	auipc	s8, 0x6
   18b3a: 13 0c ac 96  	addi	s8, s8, -0x696
   18b3e: 97 66 00 00  	auipc	a3, 0x6
   18b42: 93 86 26 c2  	addi	a3, a3, -0x3de
   18b46: 9c 62        	ld	a5, 0x0(a3)
   18b48: 13 17 03 02  	slli	a4, t1, 0x20
   18b4c: 01 93        	srli	a4, a4, 0x20
   18b4e: 3e f8        	sd	a5, 0x30(sp)
   18b50: 9c 66        	ld	a5, 0x8(a3)
   18b52: 05 07        	addi	a4, a4, 0x1
   18b54: d6 e4        	sd	s5, 0x48(sp)
   18b56: 3e fc        	sd	a5, 0x38(sp)
   18b58: b3 87 eb 00  	add	a5, s7, a4
   18b5c: ca f0        	sd	s2, 0x60(sp)
   18b5e: de 8a        	mv	s5, s7
   18b60: de 8d        	mv	s11, s7
   18b62: 3e 89        	mv	s2, a5
   18b64: 72 e5        	sd	t3, 0x88(sp)
   18b66: 9a 8b        	mv	s7, t1
   18b68: 39 a0        	j	0x18b76 <_svfprintf_r+0x1664>
   18b6a: 01 46        	li	a2, 0x0
   18b6c: 81 46        	li	a3, 0x0
   18b6e: ef 40 a0 4b  	jal	0x1d028 <__netf2>
   18b72: e3 00 05 10  	beqz	a0, 0x19472 <_svfprintf_r+0x1f60>
   18b76: 42 76        	ld	a2, 0x30(sp)
   18b78: e2 76        	ld	a3, 0x38(sp)
   18b7a: 6a 85        	mv	a0, s10
   18b7c: d2 85        	mv	a1, s4
   18b7e: ef 40 a0 68  	jal	0x1d208 <__multf3>
   18b82: 2e 8a        	mv	s4, a1
   18b84: 2a 8d        	mv	s10, a0
   18b86: ef 50 a0 4a  	jal	0x1e030 <__fixtfsi>
   18b8a: 1b 0b 05 00  	sext.w	s6, a0
   18b8e: 5a 85        	mv	a0, s6
   18b90: ef 50 c0 52  	jal	0x1e0bc <__floatsitf>
   18b94: ae 86        	mv	a3, a1
   18b96: 2a 86        	mv	a2, a0
   18b98: d2 85        	mv	a1, s4
   18b9a: 6a 85        	mv	a0, s10
   18b9c: ef 40 90 46  	jal	0x1d804 <__subtf3>
   18ba0: b3 07 6c 01  	add	a5, s8, s6
   18ba4: 83 c6 07 00  	lbu	a3, 0x0(a5)
   18ba8: d6 87        	mv	a5, s5
   18baa: 85 0a        	addi	s5, s5, 0x1
   18bac: a3 8f da fe  	sb	a3, -0x1(s5)
   18bb0: 2a 8d        	mv	s10, a0
   18bb2: 2e 8a        	mv	s4, a1
   18bb4: e3 1b 59 fb  	bne	s2, s5, 0x18b6a <_svfprintf_r+0x1658>
   18bb8: 97 66 00 00  	auipc	a3, 0x6
   18bbc: 93 86 86 bb  	addi	a3, a3, -0x448
   18bc0: 2a 6e        	ld	t3, 0x88(sp)
   18bc2: 90 62        	ld	a2, 0x0(a3)
   18bc4: 94 66        	ld	a3, 0x8(a3)
   18bc6: 72 fc        	sd	t3, 0x38(sp)
   18bc8: 3e f8        	sd	a5, 0x30(sp)
   18bca: 06 79        	ld	s2, 0x60(sp)
   18bcc: ee 8b        	mv	s7, s11
   18bce: b2 f0        	sd	a2, 0x60(sp)
   18bd0: da 8d        	mv	s11, s6
   18bd2: 56 8b        	mv	s6, s5
   18bd4: a6 6a        	ld	s5, 0x48(sp)
   18bd6: b6 e4        	sd	a3, 0x48(sp)
   18bd8: ef 40 40 4f  	jal	0x1d0cc <__gttf2>
   18bdc: c2 77        	ld	a5, 0x30(sp)
   18bde: 62 7e        	ld	t3, 0x38(sp)
   18be0: 63 40 a0 02  	bgtz	a0, 0x18c00 <_svfprintf_r+0x16ee>
   18be4: 06 76        	ld	a2, 0x60(sp)
   18be6: a6 66        	ld	a3, 0x48(sp)
   18be8: 6a 85        	mv	a0, s10
   18bea: d2 85        	mv	a1, s4
   18bec: 72 f8        	sd	t3, 0x30(sp)
   18bee: 3e fc        	sd	a5, 0x38(sp)
   18bf0: ef 40 80 43  	jal	0x1d028 <__netf2>
   18bf4: 42 7e        	ld	t3, 0x30(sp)
   18bf6: 31 e1        	bnez	a0, 0x18c3a <_svfprintf_r+0x1728>
   18bf8: 13 f7 1d 00  	andi	a4, s11, 0x1
   18bfc: e2 77        	ld	a5, 0x38(sp)
   18bfe: 15 cf        	beqz	a4, 0x18c3a <_svfprintf_r+0x1728>
   18c00: be e5        	sd	a5, 0xc8(sp)
   18c02: 83 46 fb ff  	lbu	a3, -0x1(s6)
   18c06: 03 46 fc 00  	lbu	a2, 0xf(s8)
   18c0a: 5a 87        	mv	a4, s6
   18c0c: 63 9e c6 00  	bne	a3, a2, 0x18c28 <_svfprintf_r+0x1716>
   18c10: 93 05 00 03  	li	a1, 0x30
   18c14: a3 0f b7 fe  	sb	a1, -0x1(a4)
   18c18: 2e 67        	ld	a4, 0xc8(sp)
   18c1a: 93 07 f7 ff  	addi	a5, a4, -0x1
   18c1e: be e5        	sd	a5, 0xc8(sp)
   18c20: 83 46 f7 ff  	lbu	a3, -0x1(a4)
   18c24: e3 88 c6 fe  	beq	a3, a2, 0x18c14 <_svfprintf_r+0x1702>
   18c28: 13 06 90 03  	li	a2, 0x39
   18c2c: e3 8e c6 08  	beq	a3, a2, 0x194c8 <_svfprintf_r+0x1fb6>
   18c30: 85 26        	addiw	a3, a3, 0x1
   18c32: 93 f6 f6 0f  	andi	a3, a3, 0xff
   18c36: a3 0f d7 fe  	sb	a3, -0x1(a4)
   18c3a: ea 57        	lw	a5, 0xb8(sp)
   18c3c: 3b 07 7b 41  	subw	a4, s6, s7
   18c40: 3a fc        	sd	a4, 0x38(sp)
   18c42: 9b 86 f7 ff  	addiw	a3, a5, -0x1
   18c46: 3e f8        	sd	a5, 0x30(sp)
   18c48: 13 06 10 06  	li	a2, 0x61
   18c4c: 36 dd        	sw	a3, 0xb8(sp)
   18c4e: 36 87        	mv	a4, a3
   18c50: e3 0e ce 04  	beq	t3, a2, 0x194ac <_svfprintf_r+0x1f9a>
   18c54: 93 05 10 04  	li	a1, 0x41
   18c58: 13 06 00 05  	li	a2, 0x50
   18c5c: 63 1c be 46  	bne	t3, a1, 0x190d4 <_svfprintf_r+0x1bc2>
   18c60: 23 00 c1 0c  	sb	a2, 0xc0(sp)
   18c64: 63 cd 06 38  	bltz	a3, 0x18ffe <_svfprintf_r+0x1aec>
   18c68: 13 06 b0 02  	li	a2, 0x2b
   18c6c: a3 00 c1 0c  	sb	a2, 0xc1(sp)
   18c70: 25 46        	li	a2, 0x9
   18c72: 63 50 d6 3a  	bge	a2, a3, 0x19012 <_svfprintf_r+0x1b00>
   18c76: 37 d5 0c 00  	lui	a0, 0xcd
   18c7a: 13 05 d5 cc  	addi	a0, a0, -0x333
   18c7e: 32 05        	slli	a0, a0, 0xc
   18c80: 93 08 f1 0c  	addi	a7, sp, 0xcf
   18c84: 13 05 d5 cc  	addi	a0, a0, -0x333
   18c88: c6 85        	mv	a1, a7
   18c8a: 13 03 30 06  	li	t1, 0x63
   18c8e: 93 17 07 02  	slli	a5, a4, 0x20
   18c92: 81 93        	srli	a5, a5, 0x20
   18c94: b3 87 a7 02  	mul	a5, a5, a0
   18c98: 3a 88        	mv	a6, a4
   18c9a: 2e 86        	mv	a2, a1
   18c9c: fd 15        	addi	a1, a1, -0x1
   18c9e: 8d 93        	srli	a5, a5, 0x23
   18ca0: 9b 96 27 00  	slliw	a3, a5, 0x2
   18ca4: bd 9e        	addw	a3, a3, a5
   18ca6: 9b 96 16 00  	slliw	a3, a3, 0x1
   18caa: 15 9f        	subw	a4, a4, a3
   18cac: 1b 07 07 03  	addiw	a4, a4, 0x30
   18cb0: a3 0f e6 fe  	sb	a4, -0x1(a2)
   18cb4: 3e 87        	mv	a4, a5
   18cb6: e3 4c 03 fd  	blt	t1, a6, 0x18c8e <_svfprintf_r+0x177c>
   18cba: 1b 87 07 03  	addiw	a4, a5, 0x30
   18cbe: a3 8f e5 fe  	sb	a4, -0x1(a1)
   18cc2: 13 07 e6 ff  	addi	a4, a2, -0x2
   18cc6: e3 75 17 01  	bgeu	a4, a7, 0x194d0 <_svfprintf_r+0x1fbe>
   18cca: 93 05 21 0c  	addi	a1, sp, 0xc2
   18cce: ae 86        	mv	a3, a1
   18cd0: 83 47 07 00  	lbu	a5, 0x0(a4)
   18cd4: 05 07        	addi	a4, a4, 0x1
   18cd6: 85 06        	addi	a3, a3, 0x1
   18cd8: a3 8f f6 fe  	sb	a5, -0x1(a3)
   18cdc: e3 1a 17 ff  	bne	a4, a7, 0x18cd0 <_svfprintf_r+0x17be>
   18ce0: 2e 97        	add	a4, a4, a1
   18ce2: 09 07        	addi	a4, a4, 0x2
   18ce4: 11 8f        	sub	a4, a4, a2
   18ce6: 94 01        	addi	a3, sp, 0xc0
   18ce8: bb 07 d7 40  	subw	a5, a4, a3
   18cec: be f0        	sd	a5, 0x60(sp)
   18cee: e2 77        	ld	a5, 0x38(sp)
   18cf0: 06 77        	ld	a4, 0x60(sp)
   18cf2: 85 46        	li	a3, 0x1
   18cf4: 3d 9f        	addw	a4, a4, a5
   18cf6: 3a 8c        	mv	s8, a4
   18cf8: 63 d5 f6 66  	bge	a3, a5, 0x19362 <_svfprintf_r+0x1e50>
   18cfc: c6 67        	ld	a5, 0x50(sp)
   18cfe: 3b 8c e7 00  	addw	s8, a5, a4
   18d02: 86 67        	ld	a5, 0x40(sp)
   18d04: 62 88        	mv	a6, s8
   18d06: 13 ff f7 bf  	andi	t5, a5, -0x401
   18d0a: 01 2f        	sext.w	t5, t5
   18d0c: 13 6b 0f 10  	ori	s6, t5, 0x100
   18d10: 63 53 0c 00  	bgez	s8, 0x18d16 <_svfprintf_r+0x1804>
   18d14: 01 48        	li	a6, 0x0
   18d16: c2 8d        	mv	s11, a6
   18d18: 82 e4        	sd	zero, 0x48(sp)
   18d1a: 82 e0        	sd	zero, 0x40(sp)
   18d1c: 02 f8        	sd	zero, 0x30(sp)
   18d1e: e1 a4        	j	0x18fe6 <_svfprintf_r+0x1ad4>
   18d20: ee 67        	ld	a5, 0xd8(sp)
   18d22: 13 7f fb f7  	andi	t5, s6, -0x81
   18d26: 1b 0b 0f 00  	sext.w	s6, t5
   18d2a: 13 d7 f7 03  	srli	a4, a5, 0x3f
   18d2e: 3a f8        	sd	a4, 0x30(sp)
   18d30: 63 dc 07 18  	bgez	a5, 0x18ec8 <_svfprintf_r+0x19b6>
   18d34: 93 07 d0 02  	li	a5, 0x2d
   18d38: a3 07 f1 0a  	sb	a5, 0xaf(sp)
   18d3c: 02 f0        	sd	zero, 0x20(sp)
   18d3e: 93 07 70 04  	li	a5, 0x47
   18d42: 82 e4        	sd	zero, 0x48(sp)
   18d44: 82 e0        	sd	zero, 0x40(sp)
   18d46: 02 f8        	sd	zero, 0x30(sp)
   18d48: 0d 4c        	li	s8, 0x3
   18d4a: 01 43        	li	t1, 0x0
   18d4c: 63 d2 c7 6d  	bge	a5, t3, 0x19410 <_svfprintf_r+0x1efe>
   18d50: 97 5b 00 00  	auipc	s7, 0x5
   18d54: 93 8b 8b 74  	addi	s7, s7, 0x748
   18d58: 91 4d        	li	s11, 0x4
   18d5a: 6f e0 df 90  	j	0x17666 <_svfprintf_r+0x154>
   18d5e: da 8a        	mv	s5, s6
   18d60: 5e 8b        	mv	s6, s7
   18d62: e2 8b        	mv	s7, s8
   18d64: 6a 8c        	mv	s8, s10
   18d66: 52 8d        	mv	s10, s4
   18d68: 3e 8a        	mv	s4, a5
   18d6a: 62 9a        	add	s4, s4, s8
   18d6c: 05 26        	addiw	a2, a2, 0x1
   18d6e: 23 30 a9 01  	sd	s10, 0x0(s2)
   18d72: 23 34 89 01  	sd	s8, 0x8(s2)
   18d76: d2 f9        	sd	s4, 0xf0(sp)
   18d78: b2 d5        	sw	a2, 0xe8(sp)
   18d7a: 1d 47        	li	a4, 0x7
   18d7c: 41 09        	addi	s2, s2, 0x10
   18d7e: 63 50 c7 b8  	bge	a4, a2, 0x180fe <_svfprintf_r+0xbec>
   18d82: c2 65        	ld	a1, 0x10(sp)
   18d84: 22 65        	ld	a0, 0x8(sp)
   18d86: 90 11        	addi	a2, sp, 0xe0
   18d88: ef 20 30 25  	jal	0x1b7da <__ssprint_r>
   18d8c: 63 19 05 a6  	bnez	a0, 0x17ffe <_svfprintf_r+0xaec>
   18d90: 4e 7a        	ld	s4, 0xf0(sp)
   18d92: 4e 89        	mv	s2, s3
   18d94: 6f f0 af b6  	j	0x180fe <_svfprintf_r+0xbec>
   18d98: 03 c7 05 00  	lbu	a4, 0x0(a1)
   18d9c: 13 7f fb bf  	andi	t5, s6, -0x401
   18da0: 1b 0b 0f 00  	sext.w	s6, t5
   18da4: a3 0d e1 14  	sb	a4, 0x15b(sp)
   18da8: 3e f4        	sd	a5, 0x28(sp)
   18daa: 01 46        	li	a2, 0x0
   18dac: 93 0b b1 15  	addi	s7, sp, 0x15b
   18db0: 6f f0 4f e3  	j	0x183e4 <_svfprintf_r+0xed2>
   18db4: 33 3a 8a 03  	mulhu	s4, s4, s8
   18db8: 66 76        	ld	a2, 0x78(sp)
   18dba: a6 75        	ld	a1, 0x68(sp)
   18dbc: fe e4        	sd	t6, 0x48(sp)
   18dbe: b3 88 cb 40  	sub	a7, s7, a2
   18dc2: 46 85        	mv	a0, a7
   18dc4: 9a e0        	sd	t1, 0x40(sp)
   18dc6: 72 fc        	sd	t3, 0x38(sp)
   18dc8: 36 f8        	sd	a3, 0x30(sp)
   18dca: 46 f0        	sd	a7, 0x20(sp)
   18dcc: 13 5a 3a 00  	srli	s4, s4, 0x3
   18dd0: ef e0 ef eb  	jal	0x1748e <strncpy>
   18dd4: 33 37 8a 03  	mulhu	a4, s4, s8
   18dd8: c2 76        	ld	a3, 0x30(sp)
   18dda: 82 78        	ld	a7, 0x20(sp)
   18ddc: 62 7e        	ld	t3, 0x38(sp)
   18dde: 83 c7 16 00  	lbu	a5, 0x1(a3)
   18de2: 06 63        	ld	t1, 0x40(sp)
   18de4: a6 6f        	ld	t6, 0x48(sp)
   18de6: b3 37 f0 00  	snez	a5, a5
   18dea: be 96        	add	a3, a3, a5
   18dec: 93 8b f8 ff  	addi	s7, a7, -0x1
   18df0: 0d 83        	srli	a4, a4, 0x3
   18df2: 93 17 27 00  	slli	a5, a4, 0x2
   18df6: ba 97        	add	a5, a5, a4
   18df8: 86 07        	slli	a5, a5, 0x1
   18dfa: b3 07 fa 40  	sub	a5, s4, a5
   18dfe: 9b 87 07 03  	addiw	a5, a5, 0x30
   18e02: 85 45        	li	a1, 0x1
   18e04: a3 8f f8 fe  	sb	a5, -0x1(a7)
   18e08: 13 08 f0 0f  	li	a6, 0xff
   18e0c: 6f e0 1f e1  	j	0x17c1c <_svfprintf_r+0x70a>
   18e10: 93 07 00 03  	li	a5, 0x30
   18e14: 6f e0 9f d4  	j	0x17b5c <_svfprintf_r+0x64a>
   18e18: c2 65        	ld	a1, 0x10(sp)
   18e1a: 22 65        	ld	a0, 0x8(sp)
   18e1c: 90 11        	addi	a2, sp, 0xe0
   18e1e: ef 20 d0 1b  	jal	0x1b7da <__ssprint_r>
   18e22: 63 1e 05 9c  	bnez	a0, 0x17ffe <_svfprintf_r+0xaec>
   18e26: 4e 7a        	ld	s4, 0xf0(sp)
   18e28: 4e 89        	mv	s2, s3
   18e2a: 6f f0 4f ac  	j	0x180ee <_svfprintf_r+0xbdc>
   18e2e: 9b 8d 16 00  	addiw	s11, a3, 0x1
   18e32: 6f e0 bf b4  	j	0x1797c <_svfprintf_r+0x46a>
   18e36: 3e 88        	mv	a6, a5
   18e38: 0d be        	j	0x1896a <_svfprintf_r+0x1458>
   18e3a: 13 07 00 03  	li	a4, 0x30
   18e3e: 2a 8b        	mv	s6, a0
   18e40: e2 8d        	mv	s11, s8
   18e42: 3e f4        	sd	a5, 0x28(sp)
   18e44: a3 0d e1 14  	sb	a4, 0x15b(sp)
   18e48: 82 e0        	sd	zero, 0x40(sp)
   18e4a: 82 e4        	sd	zero, 0x48(sp)
   18e4c: 05 4c        	li	s8, 0x1
   18e4e: 02 f8        	sd	zero, 0x30(sp)
   18e50: 93 0b b1 15  	addi	s7, sp, 0x15b
   18e54: 13 0e 80 07  	li	t3, 0x78
   18e58: 01 45        	li	a0, 0x0
   18e5a: 6f f0 cf da  	j	0x18406 <_svfprintf_r+0xef4>
   18e5e: 4e 89        	mv	s2, s3
   18e60: 6f e0 3f 86  	j	0x176c2 <_svfprintf_r+0x1b0>
   18e64: 3e 87        	mv	a4, a5
   18e66: de 97        	add	a5, a5, s7
   18e68: b3 87 a7 41  	sub	a5, a5, s10
   18e6c: bb 06 87 41  	subw	a3, a4, s8
   18e70: 1b 87 07 00  	sext.w	a4, a5
   18e74: 63 d3 e6 00  	bge	a3, a4, 0x18e7a <_svfprintf_r+0x1968>
   18e78: b6 87        	mv	a5, a3
   18e7a: 1b 8c 07 00  	sext.w	s8, a5
   18e7e: 6f f0 ef af  	j	0x1817c <_svfprintf_r+0xc6a>
   18e82: 02 1a        	slli	s4, s4, 0x20
   18e84: 13 5a 0a 02  	srli	s4, s4, 0x20
   18e88: 63 44 0c 00  	bltz	s8, 0x18e90 <_svfprintf_r+0x197e>
   18e8c: 6f e0 5f f0  	j	0x17d90 <_svfprintf_r+0x87e>
   18e90: 6f e0 5f fd  	j	0x17e64 <_svfprintf_r+0x952>
   18e94: 02 17        	slli	a4, a4, 0x20
   18e96: 01 93        	srli	a4, a4, 0x20
   18e98: 3e f4        	sd	a5, 0x28(sp)
   18e9a: 5a 88        	mv	a6, s6
   18e9c: 6f e0 ff dd  	j	0x17c7a <_svfprintf_r+0x768>
   18ea0: 3e f4        	sd	a5, 0x28(sp)
   18ea2: 52 87        	mv	a4, s4
   18ea4: 6f e0 7f c9  	j	0x17b3a <_svfprintf_r+0x628>
   18ea8: 02 17        	slli	a4, a4, 0x20
   18eaa: 01 93        	srli	a4, a4, 0x20
   18eac: 6f f0 ef db  	j	0x1846a <_svfprintf_r+0xf58>
   18eb0: e2 67        	ld	a5, 0x18(sp)
   18eb2: d6 8b        	mv	s7, s5
   18eb4: 23 10 f7 00  	sh	a5, 0x0(a4)
   18eb8: 6f e0 9f 86  	j	0x17720 <_svfprintf_r+0x20e>
   18ebc: 01 47        	li	a4, 0x0
   18ebe: 6f f0 ef ee  	j	0x185ac <_svfprintf_r+0x109a>
   18ec2: 81 46        	li	a3, 0x0
   18ec4: 6f e0 1f ab  	j	0x17974 <_svfprintf_r+0x462>
   18ec8: 93 06 70 04  	li	a3, 0x47
   18ecc: 03 47 f1 0a  	lbu	a4, 0xaf(sp)
   18ed0: 97 5b 00 00  	auipc	s7, 0x5
   18ed4: 93 8b 0b 5c  	addi	s7, s7, 0x5c0
   18ed8: 63 d6 c6 01  	bge	a3, t3, 0x18ee4 <_svfprintf_r+0x19d2>
   18edc: 97 5b 00 00  	auipc	s7, 0x5
   18ee0: 93 8b cb 5b  	addi	s7, s7, 0x5bc
   18ee4: 63 1f 07 64  	bnez	a4, 0x19542 <_svfprintf_r+0x2030>
   18ee8: 0d 4c        	li	s8, 0x3
   18eea: e2 8d        	mv	s11, s8
   18eec: 01 43        	li	t1, 0x0
   18eee: 82 e4        	sd	zero, 0x48(sp)
   18ef0: 82 e0        	sd	zero, 0x40(sp)
   18ef2: 02 f0        	sd	zero, 0x20(sp)
   18ef4: 6f e0 2f f7  	j	0x17666 <_svfprintf_r+0x154>
   18ef8: 22 65        	ld	a0, 0x8(sp)
   18efa: c2 65        	ld	a1, 0x10(sp)
   18efc: 90 11        	addi	a2, sp, 0xe0
   18efe: ef 20 d0 0d  	jal	0x1b7da <__ssprint_r>
   18f02: 6f e0 ff 82  	j	0x17730 <_svfprintf_r+0x21e>
   18f06: c2 65        	ld	a1, 0x10(sp)
   18f08: 22 65        	ld	a0, 0x8(sp)
   18f0a: 90 11        	addi	a2, sp, 0xe0
   18f0c: ef 20 f0 0c  	jal	0x1b7da <__ssprint_r>
   18f10: 63 17 05 8e  	bnez	a0, 0x17ffe <_svfprintf_r+0xaec>
   18f14: 6a 56        	lw	a2, 0xb8(sp)
   18f16: 4e 7a        	ld	s4, 0xf0(sp)
   18f18: ae 56        	lw	a3, 0xe8(sp)
   18f1a: 4e 89        	mv	s2, s3
   18f1c: e3 59 06 92  	bgez	a2, 0x1884e <_svfprintf_r+0x133c>
   18f20: 75 bc        	j	0x189dc <_svfprintf_r+0x14ca>
   18f22: 22 65        	ld	a0, 0x8(sp)
   18f24: 9b 05 13 00  	addiw	a1, t1, 0x1
   18f28: 72 fc        	sd	t3, 0x38(sp)
   18f2a: 1a f8        	sd	t1, 0x30(sp)
   18f2c: ef c0 df ce  	jal	0x15c18 <_malloc_r>
   18f30: 2a f0        	sd	a0, 0x20(sp)
   18f32: 42 73        	ld	t1, 0x30(sp)
   18f34: 62 7e        	ld	t3, 0x38(sp)
   18f36: 63 05 05 62  	beqz	a0, 0x19560 <_svfprintf_r+0x204e>
   18f3a: ce 67        	ld	a5, 0xd0(sp)
   18f3c: 6e 6a        	ld	s4, 0xd8(sp)
   18f3e: 13 6f 2b 10  	ori	t5, s6, 0x102
   18f42: 1b 0b 0f 00  	sext.w	s6, t5
   18f46: be 8d        	mv	s11, a5
   18f48: 63 4e 0a 56  	bltz	s4, 0x194c4 <_svfprintf_r+0x1fb2>
   18f4c: 82 7b        	ld	s7, 0x20(sp)
   18f4e: 9b 06 fe fb  	addiw	a3, t3, -0x41
   18f52: 02 e1        	sd	zero, 0x80(sp)
   18f54: a5 b6        	j	0x18abc <_svfprintf_r+0x15aa>
   18f56: ce 67        	ld	a5, 0xd0(sp)
   18f58: 6e 6a        	ld	s4, 0xd8(sp)
   18f5a: 13 67 0b 10  	ori	a4, s6, 0x100
   18f5e: 01 27        	sext.w	a4, a4
   18f60: da e0        	sd	s6, 0x40(sp)
   18f62: 02 f0        	sd	zero, 0x20(sp)
   18f64: be 8d        	mv	s11, a5
   18f66: 3a 8b        	mv	s6, a4
   18f68: 19 43        	li	t1, 0x6
   18f6a: 63 4b 0a 1a  	bltz	s4, 0x19120 <_svfprintf_r+0x1c0e>
   18f6e: 02 e1        	sd	zero, 0x80(sp)
   18f70: 9b 06 fe fb  	addiw	a3, t3, -0x41
   18f74: 13 07 60 02  	li	a4, 0x26
   18f78: e3 92 e6 b4  	bne	a3, a4, 0x18abc <_svfprintf_r+0x15aa>
   18f7c: 22 65        	ld	a0, 0x8(sp)
   18f7e: 1a 87        	mv	a4, t1
   18f80: 93 08 81 0c  	addi	a7, sp, 0xc8
   18f84: 13 08 c1 0b  	addi	a6, sp, 0xbc
   18f88: 3c 19        	addi	a5, sp, 0xb8
   18f8a: 89 46        	li	a3, 0x2
   18f8c: ee 85        	mv	a1, s11
   18f8e: 52 86        	mv	a2, s4
   18f90: 72 fc        	sd	t3, 0x38(sp)
   18f92: 1a f8        	sd	t1, 0x30(sp)
   18f94: ef b0 9f b1  	jal	0x14aac <_ldtoa_r>
   18f98: 42 73        	ld	t1, 0x30(sp)
   18f9a: 62 7e        	ld	t3, 0x38(sp)
   18f9c: aa 8b        	mv	s7, a0
   18f9e: 86 67        	ld	a5, 0x40(sp)
   18fa0: 13 f7 17 00  	andi	a4, a5, 0x1
   18fa4: 63 10 07 30  	bnez	a4, 0x192a4 <_svfprintf_r+0x1d92>
   18fa8: ae 67        	ld	a5, 0xc8(sp)
   18faa: ea 56        	lw	a3, 0xb8(sp)
   18fac: 75 57        	li	a4, -0x3
   18fae: bb 87 77 41  	subw	a5, a5, s7
   18fb2: 36 f8        	sd	a3, 0x30(sp)
   18fb4: 3e fc        	sd	a5, 0x38(sp)
   18fb6: 63 c9 e6 28  	blt	a3, a4, 0x19248 <_svfprintf_r+0x1d36>
   18fba: 63 4b d3 18  	blt	t1, a3, 0x19150 <_svfprintf_r+0x1c3e>
   18fbe: 63 c8 f6 2e  	blt	a3, a5, 0x192ae <_svfprintf_r+0x1d9c>
   18fc2: 42 7c        	ld	s8, 0x30(sp)
   18fc4: 86 67        	ld	a5, 0x40(sp)
   18fc6: 13 f7 07 40  	andi	a4, a5, 0x400
   18fca: 01 c7        	beqz	a4, 0x18fd2 <_svfprintf_r+0x1ac0>
   18fcc: c2 77        	ld	a5, 0x30(sp)
   18fce: 63 42 f0 3e  	bgtz	a5, 0x193b2 <_svfprintf_r+0x1ea0>
   18fd2: 62 88        	mv	a6, s8
   18fd4: 63 53 0c 00  	bgez	s8, 0x18fda <_svfprintf_r+0x1ac8>
   18fd8: 01 48        	li	a6, 0x0
   18fda: 9b 0d 08 00  	sext.w	s11, a6
   18fde: 13 0e 70 06  	li	t3, 0x67
   18fe2: 82 e4        	sd	zero, 0x48(sp)
   18fe4: 82 e0        	sd	zero, 0x40(sp)
   18fe6: 8a 67        	ld	a5, 0x80(sp)
   18fe8: 13 76 2b 00  	andi	a2, s6, 0x2
   18fec: a9 cb        	beqz	a5, 0x1903e <_svfprintf_r+0x1b2c>
   18fee: 13 05 d0 02  	li	a0, 0x2d
   18ff2: a3 07 a1 0a  	sb	a0, 0xaf(sp)
   18ff6: 85 2d        	addiw	s11, s11, 0x1
   18ff8: 01 43        	li	t1, 0x0
   18ffa: 6f f0 8f c0  	j	0x18402 <_svfprintf_r+0xef0>
   18ffe: c2 77        	ld	a5, 0x30(sp)
   19000: 93 06 d0 02  	li	a3, 0x2d
   19004: 05 47        	li	a4, 0x1
   19006: a3 00 d1 0c  	sb	a3, 0xc1(sp)
   1900a: 1d 9f        	subw	a4, a4, a5
   1900c: a5 46        	li	a3, 0x9
   1900e: e3 c4 e6 c6  	blt	a3, a4, 0x18c76 <_svfprintf_r+0x1764>
   19012: 93 06 21 0c  	addi	a3, sp, 0xc2
   19016: 9c 13        	addi	a5, sp, 0x1e0
   19018: 33 86 f6 40  	sub	a2, a3, a5
   1901c: 1b 07 07 03  	addiw	a4, a4, 0x30
   19020: 9b 07 16 12  	addiw	a5, a2, 0x121
   19024: 23 80 e6 00  	sb	a4, 0x0(a3)
   19028: be f0        	sd	a5, 0x60(sp)
   1902a: d1 b1        	j	0x18cee <_svfprintf_r+0x17dc>
   1902c: 02 f0        	sd	zero, 0x20(sp)
   1902e: 0d 4c        	li	s8, 0x3
   19030: 01 43        	li	t1, 0x0
   19032: 82 e4        	sd	zero, 0x48(sp)
   19034: 82 e0        	sd	zero, 0x40(sp)
   19036: 02 f8        	sd	zero, 0x30(sp)
   19038: 91 4d        	li	s11, 0x4
   1903a: 6f e0 cf e2  	j	0x17666 <_svfprintf_r+0x154>
   1903e: 03 45 f1 0a  	lbu	a0, 0xaf(sp)
   19042: 55 f9        	bnez	a0, 0x18ff6 <_svfprintf_r+0x1ae4>
   19044: 01 43        	li	t1, 0x0
   19046: 6f f0 cf bb  	j	0x18402 <_svfprintf_r+0xef0>
   1904a: 1a fc        	sd	t1, 0x38(sp)
   1904c: 8d 46        	li	a3, 0x3
   1904e: 62 77        	ld	a4, 0x38(sp)
   19050: 22 65        	ld	a0, 0x8(sp)
   19052: 93 08 81 0c  	addi	a7, sp, 0xc8
   19056: 13 08 c1 0b  	addi	a6, sp, 0xbc
   1905a: 3c 19        	addi	a5, sp, 0xb8
   1905c: ee 85        	mv	a1, s11
   1905e: 52 86        	mv	a2, s4
   19060: 9a e4        	sd	t1, 0x48(sp)
   19062: 72 f8        	sd	t3, 0x30(sp)
   19064: ef b0 9f a4  	jal	0x14aac <_ldtoa_r>
   19068: 42 7e        	ld	t3, 0x30(sp)
   1906a: 26 63        	ld	t1, 0x48(sp)
   1906c: aa 8b        	mv	s7, a0
   1906e: e2 77        	ld	a5, 0x38(sp)
   19070: 13 7c fe fd  	andi	s8, t3, -0x21
   19074: 93 06 60 04  	li	a3, 0x46
   19078: 33 8d fb 00  	add	s10, s7, a5
   1907c: 63 0e dc 12  	beq	s8, a3, 0x191b8 <_svfprintf_r+0x1ca6>
   19080: 6e 85        	mv	a0, s11
   19082: d2 85        	mv	a1, s4
   19084: 01 46        	li	a2, 0x0
   19086: 81 46        	li	a3, 0x0
   19088: 9a e4        	sd	t1, 0x48(sp)
   1908a: 72 f8        	sd	t3, 0x30(sp)
   1908c: ef 30 d0 79  	jal	0x1d028 <__netf2>
   19090: 42 7e        	ld	t3, 0x30(sp)
   19092: 26 63        	ld	t1, 0x48(sp)
   19094: 63 05 05 38  	beqz	a0, 0x1941e <_svfprintf_r+0x1f0c>
   19098: ae 67        	ld	a5, 0xc8(sp)
   1909a: 63 fa a7 49  	bgeu	a5, s10, 0x1952e <_svfprintf_r+0x201c>
   1909e: 13 06 00 03  	li	a2, 0x30
   190a2: 13 87 17 00  	addi	a4, a5, 0x1
   190a6: ba e5        	sd	a4, 0xc8(sp)
   190a8: 23 80 c7 00  	sb	a2, 0x0(a5)
   190ac: ae 67        	ld	a5, 0xc8(sp)
   190ae: e3 ea a7 ff  	bltu	a5, s10, 0x190a2 <_svfprintf_r+0x1b90>
   190b2: bb 87 77 41  	subw	a5, a5, s7
   190b6: 3e fc        	sd	a5, 0x38(sp)
   190b8: ea 57        	lw	a5, 0xb8(sp)
   190ba: 13 07 70 04  	li	a4, 0x47
   190be: 3e f8        	sd	a5, 0x30(sp)
   190c0: 63 01 ec 08  	beq	s8, a4, 0x19142 <_svfprintf_r+0x1c30>
   190c4: 13 07 60 04  	li	a4, 0x46
   190c8: 63 07 ec 12  	beq	s8, a4, 0x191f6 <_svfprintf_r+0x1ce4>
   190cc: c2 77        	ld	a5, 0x30(sp)
   190ce: 1b 87 f7 ff  	addiw	a4, a5, -0x1
   190d2: 3a dd        	sw	a4, 0xb8(sp)
   190d4: 23 00 c1 0d  	sb	t3, 0xc0(sp)
   190d8: 63 4f 07 16  	bltz	a4, 0x19256 <_svfprintf_r+0x1d44>
   190dc: 93 06 b0 02  	li	a3, 0x2b
   190e0: a3 00 d1 0c  	sb	a3, 0xc1(sp)
   190e4: a5 46        	li	a3, 0x9
   190e6: e3 c8 e6 b8  	blt	a3, a4, 0x18c76 <_svfprintf_r+0x1764>
   190ea: 93 06 00 03  	li	a3, 0x30
   190ee: 23 01 d1 0c  	sb	a3, 0xc2(sp)
   190f2: 93 06 31 0c  	addi	a3, sp, 0xc3
   190f6: 05 b7        	j	0x19016 <_svfprintf_r+0x1b04>
   190f8: 90 11        	addi	a2, sp, 0xe0
   190fa: e6 85        	mv	a1, s9
   190fc: 56 85        	mv	a0, s5
   190fe: ef 20 c0 6d  	jal	0x1b7da <__ssprint_r>
   19102: 19 c1        	beqz	a0, 0x19108 <_svfprintf_r+0x1bf6>
   19104: 6f e0 bf ef  	j	0x17ffe <_svfprintf_r+0xaec>
   19108: 83 c5 0d 00  	lbu	a1, 0x0(s11)
   1910c: 4e 76        	ld	a2, 0xf0(sp)
   1910e: ce 87        	mv	a5, s3
   19110: 41 47        	li	a4, 0x10
   19112: 9d 46        	li	a3, 0x7
   19114: ae 9b        	add	s7, s7, a1
   19116: 6f f0 6f d4  	j	0x1865c <_svfprintf_r+0x114a>
   1911a: 02 f0        	sd	zero, 0x20(sp)
   1911c: 93 0b 81 0f  	addi	s7, sp, 0xf8
   19120: 7d 57        	li	a4, -0x1
   19122: 7e 17        	slli	a4, a4, 0x3f
   19124: 93 07 d0 02  	li	a5, 0x2d
   19128: 33 4a ea 00  	xor	s4, s4, a4
   1912c: 3e e1        	sd	a5, 0x80(sp)
   1912e: 89 b5        	j	0x18f70 <_svfprintf_r+0x1a5e>
   19130: ea 57        	lw	a5, 0xb8(sp)
   19132: 3e f8        	sd	a5, 0x30(sp)
   19134: bb 07 7d 41  	subw	a5, s10, s7
   19138: 93 06 70 04  	li	a3, 0x47
   1913c: 3e fc        	sd	a5, 0x38(sp)
   1913e: 63 1c dc 0a  	bne	s8, a3, 0x191f6 <_svfprintf_r+0x1ce4>
   19142: c2 77        	ld	a5, 0x30(sp)
   19144: 75 57        	li	a4, -0x3
   19146: 63 c1 e7 10  	blt	a5, a4, 0x19248 <_svfprintf_r+0x1d36>
   1914a: c2 77        	ld	a5, 0x30(sp)
   1914c: 63 52 f3 02  	bge	t1, a5, 0x19170 <_svfprintf_r+0x1c5e>
   19150: c2 77        	ld	a5, 0x30(sp)
   19152: 79 3e        	addiw	t3, t3, -0x2
   19154: 23 00 c1 0d  	sb	t3, 0xc0(sp)
   19158: 1b 87 f7 ff  	addiw	a4, a5, -0x1
   1915c: 3a dd        	sw	a4, 0xb8(sp)
   1915e: e3 5f 07 f6  	bgez	a4, 0x190dc <_svfprintf_r+0x1bca>
   19162: 05 47        	li	a4, 0x1
   19164: 93 06 d0 02  	li	a3, 0x2d
   19168: 1d 9f        	subw	a4, a4, a5
   1916a: a3 00 d1 0c  	sb	a3, 0xc1(sp)
   1916e: b5 bf        	j	0x190ea <_svfprintf_r+0x1bd8>
   19170: e2 77        	ld	a5, 0x38(sp)
   19172: 42 77        	ld	a4, 0x30(sp)
   19174: 63 4d f7 12  	blt	a4, a5, 0x192ae <_svfprintf_r+0x1d9c>
   19178: 86 67        	ld	a5, 0x40(sp)
   1917a: 13 f7 17 00  	andi	a4, a5, 0x1
   1917e: c2 77        	ld	a5, 0x30(sp)
   19180: 3e 8c        	mv	s8, a5
   19182: e3 01 07 e4  	beqz	a4, 0x18fc4 <_svfprintf_r+0x1ab2>
   19186: 46 67        	ld	a4, 0x50(sp)
   19188: 3b 0c f7 00  	addw	s8, a4, a5
   1918c: 25 bd        	j	0x18fc4 <_svfprintf_r+0x1ab2>
   1918e: 93 07 d0 02  	li	a5, 0x2d
   19192: a3 07 f1 0a  	sb	a5, 0xaf(sp)
   19196: 02 f0        	sd	zero, 0x20(sp)
   19198: 93 07 70 04  	li	a5, 0x47
   1919c: 82 e4        	sd	zero, 0x48(sp)
   1919e: 82 e0        	sd	zero, 0x40(sp)
   191a0: 02 f8        	sd	zero, 0x30(sp)
   191a2: 0d 4c        	li	s8, 0x3
   191a4: 01 43        	li	t1, 0x0
   191a6: 63 d7 c7 1d  	bge	a5, t3, 0x19374 <_svfprintf_r+0x1e62>
   191aa: 97 5b 00 00  	auipc	s7, 0x5
   191ae: 93 8b eb 2d  	addi	s7, s7, 0x2de
   191b2: 91 4d        	li	s11, 0x4
   191b4: 6f e0 2f cb  	j	0x17666 <_svfprintf_r+0x154>
   191b8: 03 c6 0b 00  	lbu	a2, 0x0(s7)
   191bc: 93 06 00 03  	li	a3, 0x30
   191c0: 63 09 d6 1c  	beq	a2, a3, 0x19392 <_svfprintf_r+0x1e80>
   191c4: ea 56        	lw	a3, 0xb8(sp)
   191c6: 36 9d        	add	s10, s10, a3
   191c8: 6e 85        	mv	a0, s11
   191ca: d2 85        	mv	a1, s4
   191cc: 01 46        	li	a2, 0x0
   191ce: 81 46        	li	a3, 0x0
   191d0: 1a fc        	sd	t1, 0x38(sp)
   191d2: 72 f8        	sd	t3, 0x30(sp)
   191d4: ef 30 50 65  	jal	0x1d028 <__netf2>
   191d8: 42 7e        	ld	t3, 0x30(sp)
   191da: 62 73        	ld	t1, 0x38(sp)
   191dc: 31 d9        	beqz	a0, 0x19130 <_svfprintf_r+0x1c1e>
   191de: ae 67        	ld	a5, 0xc8(sp)
   191e0: e3 ef a7 eb  	bltu	a5, s10, 0x1909e <_svfprintf_r+0x1b8c>
   191e4: bb 87 77 41  	subw	a5, a5, s7
   191e8: 3e fc        	sd	a5, 0x38(sp)
   191ea: ea 57        	lw	a5, 0xb8(sp)
   191ec: 13 07 70 04  	li	a4, 0x47
   191f0: 3e f8        	sd	a5, 0x30(sp)
   191f2: e3 08 ec f4  	beq	s8, a4, 0x19142 <_svfprintf_r+0x1c30>
   191f6: 86 67        	ld	a5, 0x40(sp)
   191f8: 13 f7 17 00  	andi	a4, a5, 0x1
   191fc: c2 77        	ld	a5, 0x30(sp)
   191fe: 33 67 e3 00  	or	a4, t1, a4
   19202: 63 59 f0 2e  	blez	a5, 0x194f4 <_svfprintf_r+0x1fe2>
   19206: 63 13 07 22  	bnez	a4, 0x1942c <_svfprintf_r+0x1f1a>
   1920a: 42 7c        	ld	s8, 0x30(sp)
   1920c: 13 0e 60 06  	li	t3, 0x66
   19210: 86 67        	ld	a5, 0x40(sp)
   19212: 13 f7 07 40  	andi	a4, a5, 0x400
   19216: 63 10 07 1a  	bnez	a4, 0x193b6 <_svfprintf_r+0x1ea4>
   1921a: 62 88        	mv	a6, s8
   1921c: 63 45 0c 00  	bltz	s8, 0x19226 <_svfprintf_r+0x1d14>
   19220: 9b 0d 08 00  	sext.w	s11, a6
   19224: 7d bb        	j	0x18fe2 <_svfprintf_r+0x1ad0>
   19226: 01 48        	li	a6, 0x0
   19228: 9b 0d 08 00  	sext.w	s11, a6
   1922c: 5d bb        	j	0x18fe2 <_svfprintf_r+0x1ad0>
   1922e: c2 65        	ld	a1, 0x10(sp)
   19230: 22 65        	ld	a0, 0x8(sp)
   19232: 90 11        	addi	a2, sp, 0xe0
   19234: ef 20 60 5a  	jal	0x1b7da <__ssprint_r>
   19238: 19 c1        	beqz	a0, 0x1923e <_svfprintf_r+0x1d2c>
   1923a: 6f e0 5f dc  	j	0x17ffe <_svfprintf_r+0xaec>
   1923e: 6a 5c        	lw	s8, 0xb8(sp)
   19240: 4e 7a        	ld	s4, 0xf0(sp)
   19242: 4e 89        	mv	s2, s3
   19244: 6f e0 bf ef  	j	0x1813e <_svfprintf_r+0xc2c>
   19248: c2 77        	ld	a5, 0x30(sp)
   1924a: 79 3e        	addiw	t3, t3, -0x2
   1924c: 23 00 c1 0d  	sb	t3, 0xc0(sp)
   19250: 1b 87 f7 ff  	addiw	a4, a5, -0x1
   19254: 3a dd        	sw	a4, 0xb8(sp)
   19256: c2 77        	ld	a5, 0x30(sp)
   19258: 93 06 d0 02  	li	a3, 0x2d
   1925c: 05 47        	li	a4, 0x1
   1925e: a3 00 d1 0c  	sb	a3, 0xc1(sp)
   19262: 1d 9f        	subw	a4, a4, a5
   19264: a5 46        	li	a3, 0x9
   19266: e3 c8 e6 a0  	blt	a3, a4, 0x18c76 <_svfprintf_r+0x1764>
   1926a: 41 b5        	j	0x190ea <_svfprintf_r+0x1bd8>
   1926c: 6a f4        	sd	s10, 0x28(sp)
   1926e: 63 0a 07 10  	beqz	a4, 0x19382 <_svfprintf_r+0x1e70>
   19272: 9b 0d 13 00  	addiw	s11, t1, 0x1
   19276: 1a 8c        	mv	s8, t1
   19278: 82 e4        	sd	zero, 0x48(sp)
   1927a: 01 43        	li	t1, 0x0
   1927c: 82 e0        	sd	zero, 0x40(sp)
   1927e: 02 f8        	sd	zero, 0x30(sp)
   19280: 6f e0 6f be  	j	0x17666 <_svfprintf_r+0x154>
   19284: c2 65        	ld	a1, 0x10(sp)
   19286: 22 65        	ld	a0, 0x8(sp)
   19288: 90 11        	addi	a2, sp, 0xe0
   1928a: ef 20 00 55  	jal	0x1b7da <__ssprint_r>
   1928e: 19 c1        	beqz	a0, 0x19294 <_svfprintf_r+0x1d82>
   19290: 6f e0 ff d6  	j	0x17ffe <_svfprintf_r+0xaec>
   19294: ea 56        	lw	a3, 0xb8(sp)
   19296: e2 77        	ld	a5, 0x38(sp)
   19298: 4e 7a        	ld	s4, 0xf0(sp)
   1929a: 4e 89        	mv	s2, s3
   1929c: bb 86 d7 40  	subw	a3, a5, a3
   192a0: 6f e0 df ed  	j	0x1817c <_svfprintf_r+0xc6a>
   192a4: 33 8d 6b 00  	add	s10, s7, t1
   192a8: 13 0c 70 04  	li	s8, 0x47
   192ac: 31 bf        	j	0x191c8 <_svfprintf_r+0x1cb6>
   192ae: c6 67        	ld	a5, 0x50(sp)
   192b0: 62 77        	ld	a4, 0x38(sp)
   192b2: 13 0e 70 06  	li	t3, 0x67
   192b6: 3b 8c e7 00  	addw	s8, a5, a4
   192ba: c2 77        	ld	a5, 0x30(sp)
   192bc: e3 4a f0 f4  	bgtz	a5, 0x19210 <_svfprintf_r+0x1cfe>
   192c0: bb 08 fc 40  	subw	a7, s8, a5
   192c4: 1b 8c 18 00  	addiw	s8, a7, 0x1
   192c8: 62 88        	mv	a6, s8
   192ca: 63 53 0c 00  	bgez	s8, 0x192d0 <_svfprintf_r+0x1dbe>
   192ce: 01 48        	li	a6, 0x0
   192d0: c2 8d        	mv	s11, a6
   192d2: 13 0e 70 06  	li	t3, 0x67
   192d6: 31 b3        	j	0x18fe2 <_svfprintf_r+0x1ad0>
   192d8: da 86        	mv	a3, s6
   192da: 6f f0 2f 8b  	j	0x1838c <_svfprintf_r+0xe7a>
   192de: 62 9a        	add	s4, s4, s8
   192e0: 85 26        	addiw	a3, a3, 0x1
   192e2: d2 f9        	sd	s4, 0xf0(sp)
   192e4: b6 d5        	sw	a3, 0xe8(sp)
   192e6: 23 30 a9 01  	sd	s10, 0x0(s2)
   192ea: 23 34 89 01  	sd	s8, 0x8(s2)
   192ee: 1d 47        	li	a4, 0x7
   192f0: 63 5e d7 d4  	bge	a4, a3, 0x1884c <_svfprintf_r+0x133a>
   192f4: c2 65        	ld	a1, 0x10(sp)
   192f6: 22 65        	ld	a0, 0x8(sp)
   192f8: 90 11        	addi	a2, sp, 0xe0
   192fa: ef 20 00 4e  	jal	0x1b7da <__ssprint_r>
   192fe: 19 c1        	beqz	a0, 0x19304 <_svfprintf_r+0x1df2>
   19300: 6f e0 ff cf  	j	0x17ffe <_svfprintf_r+0xaec>
   19304: 4e 7a        	ld	s4, 0xf0(sp)
   19306: ae 56        	lw	a3, 0xe8(sp)
   19308: 4e 89        	mv	s2, s3
   1930a: 6f f0 4f d4  	j	0x1884e <_svfprintf_r+0x133c>
   1930e: 9b 07 13 00  	addiw	a5, t1, 0x1
   19312: 3e fc        	sd	a5, 0x38(sp)
   19314: 89 46        	li	a3, 0x2
   19316: 25 bb        	j	0x1904e <_svfprintf_r+0x1b3c>
   19318: 63 13 03 00  	bnez	t1, 0x1931e <_svfprintf_r+0x1e0c>
   1931c: 36 83        	mv	t1, a3
   1931e: 63 54 0a 12  	bgez	s4, 0x19446 <_svfprintf_r+0x1f34>
   19322: 7e 17        	slli	a4, a4, 0x3f
   19324: 93 07 d0 02  	li	a5, 0x2d
   19328: da e0        	sd	s6, 0x40(sp)
   1932a: 33 4a ea 00  	xor	s4, s4, a4
   1932e: 02 f0        	sd	zero, 0x20(sp)
   19330: 62 8b        	mv	s6, s8
   19332: 3e e1        	sd	a5, 0x80(sp)
   19334: 22 65        	ld	a0, 0x8(sp)
   19336: 1a 87        	mv	a4, t1
   19338: 93 08 81 0c  	addi	a7, sp, 0xc8
   1933c: 13 08 c1 0b  	addi	a6, sp, 0xbc
   19340: 3c 19        	addi	a5, sp, 0xb8
   19342: 89 46        	li	a3, 0x2
   19344: ee 85        	mv	a1, s11
   19346: 52 86        	mv	a2, s4
   19348: 72 fc        	sd	t3, 0x38(sp)
   1934a: 1a f8        	sd	t1, 0x30(sp)
   1934c: ef b0 0f f6  	jal	0x14aac <_ldtoa_r>
   19350: 62 7e        	ld	t3, 0x38(sp)
   19352: 13 07 70 04  	li	a4, 0x47
   19356: 42 73        	ld	t1, 0x30(sp)
   19358: aa 8b        	mv	s7, a0
   1935a: e3 02 ee c4  	beq	t3, a4, 0x18f9e <_svfprintf_r+0x1a8c>
   1935e: 1a fc        	sd	t1, 0x38(sp)
   19360: 39 b3        	j	0x1906e <_svfprintf_r+0x1b5c>
   19362: 86 67        	ld	a5, 0x40(sp)
   19364: fd 8e        	and	a3, a3, a5
   19366: e3 8e 06 98  	beqz	a3, 0x18d02 <_svfprintf_r+0x17f0>
   1936a: 49 ba        	j	0x18cfc <_svfprintf_r+0x17ea>
   1936c: 1c c3        	sw	a5, 0x0(a4)
   1936e: d6 8b        	mv	s7, s5
   19370: 6f e0 0f bb  	j	0x17720 <_svfprintf_r+0x20e>
   19374: 97 5b 00 00  	auipc	s7, 0x5
   19378: 93 8b cb 10  	addi	s7, s7, 0x10c
   1937c: 91 4d        	li	s11, 0x4
   1937e: 6f e0 8f ae  	j	0x17666 <_svfprintf_r+0x154>
   19382: 1a 8c        	mv	s8, t1
   19384: 9a 8d        	mv	s11, t1
   19386: 82 e4        	sd	zero, 0x48(sp)
   19388: 01 43        	li	t1, 0x0
   1938a: 82 e0        	sd	zero, 0x40(sp)
   1938c: 02 f8        	sd	zero, 0x30(sp)
   1938e: 6f e0 8f ad  	j	0x17666 <_svfprintf_r+0x154>
   19392: 01 46        	li	a2, 0x0
   19394: 81 46        	li	a3, 0x0
   19396: 6e 85        	mv	a0, s11
   19398: d2 85        	mv	a1, s4
   1939a: 9a e4        	sd	t1, 0x48(sp)
   1939c: 72 f8        	sd	t3, 0x30(sp)
   1939e: ef 30 b0 48  	jal	0x1d028 <__netf2>
   193a2: 42 7e        	ld	t3, 0x30(sp)
   193a4: 26 63        	ld	t1, 0x48(sp)
   193a6: 63 17 05 10  	bnez	a0, 0x194b4 <_svfprintf_r+0x1fa2>
   193aa: ea 57        	lw	a5, 0xb8(sp)
   193ac: 3e f8        	sd	a5, 0x30(sp)
   193ae: 3e 9d        	add	s10, s10, a5
   193b0: 51 b3        	j	0x19134 <_svfprintf_r+0x1c22>
   193b2: 13 0e 70 06  	li	t3, 0x67
   193b6: 46 76        	ld	a2, 0x70(sp)
   193b8: 93 06 f0 0f  	li	a3, 0xff
   193bc: 03 47 06 00  	lbu	a4, 0x0(a2)
   193c0: 63 09 d7 1a  	beq	a4, a3, 0x19572 <_svfprintf_r+0x2060>
   193c4: c2 77        	ld	a5, 0x30(sp)
   193c6: 01 48        	li	a6, 0x0
   193c8: 01 45        	li	a0, 0x0
   193ca: ba 85        	mv	a1, a4
   193cc: 63 5a f7 00  	bge	a4, a5, 0x193e0 <_svfprintf_r+0x1ece>
   193d0: 03 47 16 00  	lbu	a4, 0x1(a2)
   193d4: 8d 9f        	subw	a5, a5, a1
   193d6: 0d cb        	beqz	a4, 0x19408 <_svfprintf_r+0x1ef6>
   193d8: 05 25        	addiw	a0, a0, 0x1
   193da: 05 06        	addi	a2, a2, 0x1
   193dc: e3 17 d7 fe  	bne	a4, a3, 0x193ca <_svfprintf_r+0x1eb8>
   193e0: b2 f8        	sd	a2, 0x70(sp)
   193e2: 3e f8        	sd	a5, 0x30(sp)
   193e4: aa e0        	sd	a0, 0x40(sp)
   193e6: c2 e4        	sd	a6, 0x48(sp)
   193e8: a6 67        	ld	a5, 0x48(sp)
   193ea: 06 67        	ld	a4, 0x40(sp)
   193ec: 3d 9f        	addw	a4, a4, a5
   193ee: e6 77        	ld	a5, 0x78(sp)
   193f0: 3b 07 f7 02  	mulw	a4, a4, a5
   193f4: 3b 0c 87 01  	addw	s8, a4, s8
   193f8: 62 88        	mv	a6, s8
   193fa: 63 44 0c 00  	bltz	s8, 0x19402 <_svfprintf_r+0x1ef0>
   193fe: c2 8d        	mv	s11, a6
   19400: dd b6        	j	0x18fe6 <_svfprintf_r+0x1ad4>
   19402: 01 48        	li	a6, 0x0
   19404: c2 8d        	mv	s11, a6
   19406: c5 b6        	j	0x18fe6 <_svfprintf_r+0x1ad4>
   19408: 03 47 06 00  	lbu	a4, 0x0(a2)
   1940c: 05 28        	addiw	a6, a6, 0x1
   1940e: f9 b7        	j	0x193dc <_svfprintf_r+0x1eca>
   19410: 97 5b 00 00  	auipc	s7, 0x5
   19414: 93 8b 0b 08  	addi	s7, s7, 0x80
   19418: 91 4d        	li	s11, 0x4
   1941a: 6f e0 cf a4  	j	0x17666 <_svfprintf_r+0x154>
   1941e: ea 57        	lw	a5, 0xb8(sp)
   19420: 13 07 70 04  	li	a4, 0x47
   19424: 3e f8        	sd	a5, 0x30(sp)
   19426: e3 13 ec ca  	bne	s8, a4, 0x190cc <_svfprintf_r+0x1bba>
   1942a: 21 bb        	j	0x19142 <_svfprintf_r+0x1c30>
   1942c: bb 08 f3 00  	addw	a7, t1, a5
   19430: c6 67        	ld	a5, 0x50(sp)
   19432: 13 0e 60 06  	li	t3, 0x66
   19436: 3b 8c f8 00  	addw	s8, a7, a5
   1943a: d9 bb        	j	0x19210 <_svfprintf_r+0x1cfe>
   1943c: 63 13 03 00  	bnez	t1, 0x19442 <_svfprintf_r+0x1f30>
   19440: 36 83        	mv	t1, a3
   19442: 63 4c 0a 0c  	bltz	s4, 0x1951a <_svfprintf_r+0x2008>
   19446: 22 65        	ld	a0, 0x8(sp)
   19448: 1a 87        	mv	a4, t1
   1944a: 93 08 81 0c  	addi	a7, sp, 0xc8
   1944e: 13 08 c1 0b  	addi	a6, sp, 0xbc
   19452: 3c 19        	addi	a5, sp, 0xb8
   19454: 89 46        	li	a3, 0x2
   19456: ee 85        	mv	a1, s11
   19458: 52 86        	mv	a2, s4
   1945a: 72 fc        	sd	t3, 0x38(sp)
   1945c: 1a f8        	sd	t1, 0x30(sp)
   1945e: ef b0 ef e4  	jal	0x14aac <_ldtoa_r>
   19462: 42 73        	ld	t1, 0x30(sp)
   19464: da e0        	sd	s6, 0x40(sp)
   19466: 62 7e        	ld	t3, 0x38(sp)
   19468: aa 8b        	mv	s7, a0
   1946a: 62 8b        	mv	s6, s8
   1946c: 02 e1        	sd	zero, 0x80(sp)
   1946e: 02 f0        	sd	zero, 0x20(sp)
   19470: 3d b6        	j	0x18f9e <_svfprintf_r+0x1a8c>
   19472: 5e 83        	mv	t1, s7
   19474: 56 8b        	mv	s6, s5
   19476: bb 86 6d 00  	addw	a3, s11, t1
   1947a: bb 86 66 41  	subw	a3, a3, s6
   1947e: 06 79        	ld	s2, 0x60(sp)
   19480: a6 6a        	ld	s5, 0x48(sp)
   19482: 2a 6e        	ld	t3, 0x88(sp)
   19484: ee 8b        	mv	s7, s11
   19486: 63 ca 06 fa  	bltz	a3, 0x18c3a <_svfprintf_r+0x1728>
   1948a: 13 86 16 00  	addi	a2, a3, 0x1
   1948e: 5a 96        	add	a2, a2, s6
   19490: 5a 87        	mv	a4, s6
   19492: 93 05 00 03  	li	a1, 0x30
   19496: 05 07        	addi	a4, a4, 0x1
   19498: a3 0f b7 fe  	sb	a1, -0x1(a4)
   1949c: e3 1d c7 fe  	bne	a4, a2, 0x19496 <_svfprintf_r+0x1f84>
   194a0: 93 07 1b 00  	addi	a5, s6, 0x1
   194a4: 33 8b d7 00  	add	s6, a5, a3
   194a8: 6f f0 2f f9  	j	0x18c3a <_svfprintf_r+0x1728>
   194ac: 13 06 00 07  	li	a2, 0x70
   194b0: 6f f0 0f fb  	j	0x18c60 <_svfprintf_r+0x174e>
   194b4: e2 77        	ld	a5, 0x38(sp)
   194b6: 85 46        	li	a3, 0x1
   194b8: 9d 9e        	subw	a3, a3, a5
   194ba: 36 dd        	sw	a3, 0xb8(sp)
   194bc: 29 b3        	j	0x191c6 <_svfprintf_r+0x1cb4>
   194be: 02 f0        	sd	zero, 0x20(sp)
   194c0: 62 8b        	mv	s6, s8
   194c2: b9 b9        	j	0x19120 <_svfprintf_r+0x1c0e>
   194c4: 82 7b        	ld	s7, 0x20(sp)
   194c6: a9 b9        	j	0x19120 <_svfprintf_r+0x1c0e>
   194c8: 83 46 ac 00  	lbu	a3, 0xa(s8)
   194cc: 6f f0 af f6  	j	0x18c36 <_svfprintf_r+0x1724>
   194d0: 89 47        	li	a5, 0x2
   194d2: be f0        	sd	a5, 0x60(sp)
   194d4: 6f f0 bf 81  	j	0x18cee <_svfprintf_r+0x17dc>
   194d8: 22 77        	ld	a4, 0x28(sp)
   194da: 1c 43        	lw	a5, 0x0(a4)
   194dc: 21 07        	addi	a4, a4, 0x8
   194de: 3e 83        	mv	t1, a5
   194e0: 63 d3 07 00  	bgez	a5, 0x194e6 <_svfprintf_r+0x1fd4>
   194e4: 7d 53        	li	t1, -0x1
   194e6: 03 ce 1a 00  	lbu	t3, 0x1(s5)
   194ea: 1a 8c        	mv	s8, t1
   194ec: 3a f4        	sd	a4, 0x28(sp)
   194ee: b2 8a        	mv	s5, a2
   194f0: 6f e0 4f 90  	j	0x175f4 <_svfprintf_r+0xe2>
   194f4: 11 e7        	bnez	a4, 0x19500 <_svfprintf_r+0x1fee>
   194f6: 85 4d        	li	s11, 0x1
   194f8: 6e 8c        	mv	s8, s11
   194fa: 13 0e 60 06  	li	t3, 0x66
   194fe: d5 b4        	j	0x18fe2 <_svfprintf_r+0x1ad0>
   19500: c6 67        	ld	a5, 0x50(sp)
   19502: 9b 88 17 00  	addiw	a7, a5, 0x1
   19506: 3b 8c 68 00  	addw	s8, a7, t1
   1950a: 62 88        	mv	a6, s8
   1950c: 63 53 0c 00  	bgez	s8, 0x19512 <_svfprintf_r+0x2000>
   19510: 01 48        	li	a6, 0x0
   19512: c2 8d        	mv	s11, a6
   19514: 13 0e 60 06  	li	t3, 0x66
   19518: e9 b4        	j	0x18fe2 <_svfprintf_r+0x1ad0>
   1951a: 7e 17        	slli	a4, a4, 0x3f
   1951c: 93 07 d0 02  	li	a5, 0x2d
   19520: da e0        	sd	s6, 0x40(sp)
   19522: 33 4a ea 00  	xor	s4, s4, a4
   19526: 02 f0        	sd	zero, 0x20(sp)
   19528: 62 8b        	mv	s6, s8
   1952a: 3e e1        	sd	a5, 0x80(sp)
   1952c: 81 bc        	j	0x18f7c <_svfprintf_r+0x1a6a>
   1952e: bb 87 77 41  	subw	a5, a5, s7
   19532: 3e fc        	sd	a5, 0x38(sp)
   19534: ea 57        	lw	a5, 0xb8(sp)
   19536: 13 07 70 04  	li	a4, 0x47
   1953a: 3e f8        	sd	a5, 0x30(sp)
   1953c: e3 18 ec b8  	bne	s8, a4, 0x190cc <_svfprintf_r+0x1bba>
   19540: 09 b1        	j	0x19142 <_svfprintf_r+0x1c30>
   19542: 01 43        	li	t1, 0x0
   19544: 82 e4        	sd	zero, 0x48(sp)
   19546: 82 e0        	sd	zero, 0x40(sp)
   19548: 02 f0        	sd	zero, 0x20(sp)
   1954a: 0d 4c        	li	s8, 0x3
   1954c: 91 4d        	li	s11, 0x4
   1954e: 6f e0 8f 91  	j	0x17666 <_svfprintf_r+0x154>
   19552: 22 67        	ld	a4, 0x8(sp)
   19554: b1 47        	li	a5, 0xc
   19556: 1c c3        	sw	a5, 0x0(a4)
   19558: fd 57        	li	a5, -0x1
   1955a: 3e ec        	sd	a5, 0x18(sp)
   1955c: 6f e0 6f a0  	j	0x17762 <_svfprintf_r+0x250>
   19560: 42 67        	ld	a4, 0x10(sp)
   19562: 83 57 07 01  	lhu	a5, 0x10(a4)
   19566: 93 e7 07 04  	ori	a5, a5, 0x40
   1956a: 23 18 f7 00  	sh	a5, 0x10(a4)
   1956e: 6f e0 2f 9c  	j	0x17730 <_svfprintf_r+0x21e>
   19572: 82 e4        	sd	zero, 0x48(sp)
   19574: 82 e0        	sd	zero, 0x40(sp)
   19576: 8d bd        	j	0x193e8 <_svfprintf_r+0x1ed6>
   19578: 85 4d        	li	s11, 0x1
   1957a: 82 e0        	sd	zero, 0x40(sp)
   1957c: 82 e4        	sd	zero, 0x48(sp)
   1957e: 6e 8c        	mv	s8, s11
   19580: 02 f0        	sd	zero, 0x20(sp)
   19582: 02 f8        	sd	zero, 0x30(sp)
   19584: 93 0b b1 15  	addi	s7, sp, 0x15b
   19588: 13 0e 80 07  	li	t3, 0x78
   1958c: 01 45        	li	a0, 0x0
   1958e: 6f e0 9f e7  	j	0x18406 <_svfprintf_r+0xef4>

0000000000019592 <__sprint_r.part.0>:
   19592: 83 a7 05 0b  	lw	a5, 0xb0(a1)
   19596: 5d 71        	addi	sp, sp, -0x50
   19598: 56 ec        	sd	s5, 0x18(sp)
   1959a: 86 e4        	sd	ra, 0x48(sp)
   1959c: 13 97 27 03  	slli	a4, a5, 0x32
   195a0: b2 8a        	mv	s5, a2
   195a2: 63 5e 07 08  	bgez	a4, 0x1963e <__sprint_r.part.0+0xac>
   195a6: 1c 6a        	ld	a5, 0x10(a2)
   195a8: 4a f8        	sd	s2, 0x30(sp)
   195aa: 4e f4        	sd	s3, 0x28(sp)
   195ac: 52 f0        	sd	s4, 0x20(sp)
   195ae: 5a e8        	sd	s6, 0x10(sp)
   195b0: 2e 89        	mv	s2, a1
   195b2: 03 3b 06 00  	ld	s6, 0x0(a2)
   195b6: 2a 8a        	mv	s4, a0
   195b8: fd 59        	li	s3, -0x1
   195ba: a5 cf        	beqz	a5, 0x19632 <__sprint_r.part.0+0xa0>
   195bc: a2 e0        	sd	s0, 0x40(sp)
   195be: 26 fc        	sd	s1, 0x38(sp)
   195c0: 5e e4        	sd	s7, 0x8(sp)
   195c2: 83 34 8b 00  	ld	s1, 0x8(s6)
   195c6: 03 34 0b 00  	ld	s0, 0x0(s6)
   195ca: 89 80        	srli	s1, s1, 0x2
   195cc: 9b 8b 04 00  	sext.w	s7, s1
   195d0: 63 57 70 05  	blez	s7, 0x1961e <__sprint_r.part.0+0x8c>
   195d4: fd 34        	addiw	s1, s1, -0x1
   195d6: 93 97 04 02  	slli	a5, s1, 0x20
   195da: 93 d4 e7 01  	srli	s1, a5, 0x1e
   195de: 93 07 44 00  	addi	a5, s0, 0x4
   195e2: be 94        	add	s1, s1, a5
   195e4: 19 a0        	j	0x195ea <__sprint_r.part.0+0x58>
   195e6: 63 8a 84 02  	beq	s1, s0, 0x1961a <__sprint_r.part.0+0x88>
   195ea: 0c 40        	lw	a1, 0x0(s0)
   195ec: 4a 86        	mv	a2, s2
   195ee: 52 85        	mv	a0, s4
   195f0: ef 10 60 4f  	jal	0x1aae6 <_fputwc_r>
   195f4: 11 04        	addi	s0, s0, 0x4
   195f6: e3 18 35 ff  	bne	a0, s3, 0x195e6 <__sprint_r.part.0+0x54>
   195fa: 4e 85        	mv	a0, s3
   195fc: 06 64        	ld	s0, 0x40(sp)
   195fe: e2 74        	ld	s1, 0x38(sp)
   19600: 42 79        	ld	s2, 0x30(sp)
   19602: a2 79        	ld	s3, 0x28(sp)
   19604: 02 7a        	ld	s4, 0x20(sp)
   19606: 42 6b        	ld	s6, 0x10(sp)
   19608: a2 6b        	ld	s7, 0x8(sp)
   1960a: a6 60        	ld	ra, 0x48(sp)
   1960c: 23 b8 0a 00  	sd	zero, 0x10(s5)
   19610: 23 a4 0a 00  	sw	zero, 0x8(s5)
   19614: e2 6a        	ld	s5, 0x18(sp)
   19616: 61 61        	addi	sp, sp, 0x50
   19618: 82 80        	ret
   1961a: 83 b7 0a 01  	ld	a5, 0x10(s5)
   1961e: 8a 0b        	slli	s7, s7, 0x2
   19620: b3 87 77 41  	sub	a5, a5, s7
   19624: 23 b8 fa 00  	sd	a5, 0x10(s5)
   19628: 41 0b        	addi	s6, s6, 0x10
   1962a: c1 ff        	bnez	a5, 0x195c2 <__sprint_r.part.0+0x30>
   1962c: 06 64        	ld	s0, 0x40(sp)
   1962e: e2 74        	ld	s1, 0x38(sp)
   19630: a2 6b        	ld	s7, 0x8(sp)
   19632: 42 79        	ld	s2, 0x30(sp)
   19634: a2 79        	ld	s3, 0x28(sp)
   19636: 02 7a        	ld	s4, 0x20(sp)
   19638: 42 6b        	ld	s6, 0x10(sp)
   1963a: 01 45        	li	a0, 0x0
   1963c: f9 b7        	j	0x1960a <__sprint_r.part.0+0x78>
   1963e: ef 10 c0 5f  	jal	0x1ac3a <__sfvwrite_r>
   19642: a6 60        	ld	ra, 0x48(sp)
   19644: 23 b8 0a 00  	sd	zero, 0x10(s5)
   19648: 23 a4 0a 00  	sw	zero, 0x8(s5)
   1964c: e2 6a        	ld	s5, 0x18(sp)
   1964e: 61 61        	addi	sp, sp, 0x50
   19650: 82 80        	ret

0000000000019652 <__sprint_r>:
   19652: 18 6a        	ld	a4, 0x10(a2)
   19654: 19 c3        	beqz	a4, 0x1965a <__sprint_r+0x8>
   19656: 6f f0 df f3  	j	0x19592 <__sprint_r.part.0>
   1965a: 23 24 06 00  	sw	zero, 0x8(a2)
   1965e: 01 45        	li	a0, 0x0
   19660: 82 80        	ret

0000000000019662 <_vfiprintf_r>:
   19662: 05 71        	addi	sp, sp, -0x1e0
   19664: 52 fb        	sd	s4, 0x1b0(sp)
   19666: 5e ef        	sd	s7, 0x198(sp)
   19668: ee fe        	sd	s11, 0x178(sp)
   1966a: 86 ef        	sd	ra, 0x1d8(sp)
   1966c: 36 e8        	sd	a3, 0x10(sp)
   1966e: aa 8b        	mv	s7, a0
   19670: 2e 8a        	mv	s4, a1
   19672: b2 8d        	mv	s11, a2
   19674: 01 c5        	beqz	a0, 0x1967c <_vfiprintf_r+0x1a>
   19676: 3c 49        	lw	a5, 0x50(a0)
   19678: 63 80 07 30  	beqz	a5, 0x19978 <_vfiprintf_r+0x316>
   1967c: 03 27 0a 0b  	lw	a4, 0xb0(s4)
   19680: 83 17 0a 01  	lh	a5, 0x10(s4)
   19684: 05 8b        	andi	a4, a4, 0x1
   19686: 09 e7        	bnez	a4, 0x19690 <_vfiprintf_r+0x2e>
   19688: 13 f7 07 20  	andi	a4, a5, 0x200
   1968c: e3 01 07 36  	beqz	a4, 0x1a1ee <_vfiprintf_r+0xb8c>
   19690: 13 97 27 03  	slli	a4, a5, 0x32
   19694: 09 66        	lui	a2, 0x2
   19696: 63 4c 07 00  	bltz	a4, 0x196ae <_vfiprintf_r+0x4c>
   1969a: 03 27 0a 0b  	lw	a4, 0xb0(s4)
   1969e: f9 76        	lui	a3, 0xffffe
   196a0: fd 16        	addi	a3, a3, -0x1
   196a2: d1 8f        	or	a5, a5, a2
   196a4: 75 8f        	and	a4, a4, a3
   196a6: 23 18 fa 00  	sh	a5, 0x10(s4)
   196aa: 23 28 ea 0a  	sw	a4, 0xb0(s4)
   196ae: 13 f7 87 00  	andi	a4, a5, 0x8
   196b2: 63 05 07 24  	beqz	a4, 0x198fc <_vfiprintf_r+0x29a>
   196b6: 03 37 8a 01  	ld	a4, 0x18(s4)
   196ba: 63 01 07 24  	beqz	a4, 0x198fc <_vfiprintf_r+0x29a>
   196be: 13 f7 a7 01  	andi	a4, a5, 0x1a
   196c2: a9 46        	li	a3, 0xa
   196c4: 63 09 d7 24  	beq	a4, a3, 0x19916 <_vfiprintf_r+0x2b4>
   196c8: 56 f7        	sd	s5, 0x1a8(sp)
   196ca: 93 0a 01 0f  	addi	s5, sp, 0xf0
   196ce: a2 eb        	sd	s0, 0x1d0(sp)
   196d0: 4e ff        	sd	s3, 0x1b8(sp)
   196d2: 5a f3        	sd	s6, 0x1a0(sp)
   196d4: 62 eb        	sd	s8, 0x190(sp)
   196d6: 66 e7        	sd	s9, 0x188(sp)
   196d8: 6a e3        	sd	s10, 0x180(sp)
   196da: a6 e7        	sd	s1, 0x1c8(sp)
   196dc: ca e3        	sd	s2, 0x1c0(sp)
   196de: 02 e1        	sd	zero, 0x80(sp)
   196e0: 82 dc        	sw	zero, 0x78(sp)
   196e2: d6 f8        	sd	s5, 0x70(sp)
   196e4: 56 84        	mv	s0, s5
   196e6: 02 fc        	sd	zero, 0x38(sp)
   196e8: 02 f8        	sd	zero, 0x30(sp)
   196ea: 82 e0        	sd	zero, 0x40(sp)
   196ec: 02 e4        	sd	zero, 0x8(sp)
   196ee: 13 0d 50 02  	li	s10, 0x25
   196f2: 1d 4b        	li	s6, 0x7
   196f4: 97 5c 00 00  	auipc	s9, 0x5
   196f8: 93 8c cc 5a  	addi	s9, s9, 0x5ac
   196fc: c1 49        	li	s3, 0x10
   196fe: 6e 8c        	mv	s8, s11
   19700: 83 47 0c 00  	lbu	a5, 0x0(s8)
   19704: 63 88 07 1a  	beqz	a5, 0x198b4 <_vfiprintf_r+0x252>
   19708: e2 84        	mv	s1, s8
   1970a: 63 8d a7 23  	beq	a5, s10, 0x19944 <_vfiprintf_r+0x2e2>
   1970e: 83 c7 14 00  	lbu	a5, 0x1(s1)
   19712: 85 04        	addi	s1, s1, 0x1
   19714: fd fb        	bnez	a5, 0x1970a <_vfiprintf_r+0xa8>
   19716: bb 8d 84 41  	subw	s11, s1, s8
   1971a: 63 8d 0d 18  	beqz	s11, 0x198b4 <_vfiprintf_r+0x252>
   1971e: 8a 66        	ld	a3, 0x80(sp)
   19720: e6 57        	lw	a5, 0x78(sp)
   19722: 23 30 84 01  	sd	s8, 0x0(s0)
   19726: 33 87 dd 00  	add	a4, s11, a3
   1972a: 85 27        	addiw	a5, a5, 0x1
   1972c: 23 34 b4 01  	sd	s11, 0x8(s0)
   19730: 3a e1        	sd	a4, 0x80(sp)
   19732: be dc        	sw	a5, 0x78(sp)
   19734: 41 04        	addi	s0, s0, 0x10
   19736: 63 5c fb 00  	bge	s6, a5, 0x1974e <_vfiprintf_r+0xec>
   1973a: e3 06 07 22  	beqz	a4, 0x1a166 <_vfiprintf_r+0xb04>
   1973e: 90 18        	addi	a2, sp, 0x70
   19740: d2 85        	mv	a1, s4
   19742: 5e 85        	mv	a0, s7
   19744: ef f0 ff e4  	jal	0x19592 <__sprint_r.part.0>
   19748: 63 1a 05 16  	bnez	a0, 0x198bc <_vfiprintf_r+0x25a>
   1974c: 56 84        	mv	s0, s5
   1974e: 22 67        	ld	a4, 0x8(sp)
   19750: 83 c7 04 00  	lbu	a5, 0x0(s1)
   19754: 3b 07 b7 01  	addw	a4, a4, s11
   19758: 3a e4        	sd	a4, 0x8(sp)
   1975a: 63 8d 07 14  	beqz	a5, 0x198b4 <_vfiprintf_r+0x252>
   1975e: 01 48        	li	a6, 0x0
   19760: 83 c7 14 00  	lbu	a5, 0x1(s1)
   19764: 13 8c 14 00  	addi	s8, s1, 0x1
   19768: a3 03 01 06  	sb	zero, 0x67(sp)
   1976c: fd 54        	li	s1, -0x1
   1976e: 81 46        	li	a3, 0x0
   19770: 93 0d a0 05  	li	s11, 0x5a
   19774: 42 89        	mv	s2, a6
   19776: 05 0c        	addi	s8, s8, 0x1
   19778: 1b 87 07 fe  	addiw	a4, a5, -0x20
   1977c: 63 e3 ed 04  	bltu	s11, a4, 0x197c2 <_vfiprintf_r+0x160>
   19780: 13 16 07 02  	slli	a2, a4, 0x20
   19784: 13 57 e6 01  	srli	a4, a2, 0x1e
   19788: 66 97        	add	a4, a4, s9
   1978a: 18 43        	lw	a4, 0x0(a4)
   1978c: 66 97        	add	a4, a4, s9
   1978e: 02 87        	jr	a4
   19790: 01 49        	li	s2, 0x0
   19792: a5 45        	li	a1, 0x9
   19794: 03 46 0c 00  	lbu	a2, 0x0(s8)
   19798: 1b 17 29 00  	slliw	a4, s2, 0x2
   1979c: 3b 08 27 01  	addw	a6, a4, s2
   197a0: 9b 87 07 fd  	addiw	a5, a5, -0x30
   197a4: 1b 18 18 00  	slliw	a6, a6, 0x1
   197a8: 1b 07 06 fd  	addiw	a4, a2, -0x30
   197ac: 05 0c        	addi	s8, s8, 0x1
   197ae: 3b 89 07 01  	addw	s2, a5, a6
   197b2: 9b 07 06 00  	sext.w	a5, a2
   197b6: e3 ff e5 fc  	bgeu	a1, a4, 0x19794 <_vfiprintf_r+0x132>
   197ba: 1b 87 07 fe  	addiw	a4, a5, -0x20
   197be: e3 f1 ed fc  	bgeu	s11, a4, 0x19780 <_vfiprintf_r+0x11e>
   197c2: 4a 88        	mv	a6, s2
   197c4: e5 cb        	beqz	a5, 0x198b4 <_vfiprintf_r+0x252>
   197c6: 05 4e        	li	t3, 0x1
   197c8: 23 04 f1 08  	sb	a5, 0x88(sp)
   197cc: a3 03 01 06  	sb	zero, 0x67(sp)
   197d0: 72 89        	mv	s2, t3
   197d2: 81 44        	li	s1, 0x0
   197d4: 93 0d 81 08  	addi	s11, sp, 0x88
   197d8: 93 f3 46 08  	andi	t2, a3, 0x84
   197dc: 63 8d 03 20  	beqz	t2, 0x199f6 <_vfiprintf_r+0x394>
   197e0: 66 56        	lw	a2, 0x78(sp)
   197e2: 83 45 71 06  	lbu	a1, 0x67(sp)
   197e6: 8a 67        	ld	a5, 0x80(sp)
   197e8: 9b 0e 16 00  	addiw	t4, a2, 0x1
   197ec: 9e 88        	mv	a7, t2
   197ee: b9 cd        	beqz	a1, 0x1984c <_vfiprintf_r+0x1ea>
   197f0: 81 43        	li	t2, 0x0
   197f2: 85 07        	addi	a5, a5, 0x1
   197f4: 93 05 71 06  	addi	a1, sp, 0x67
   197f8: 05 46        	li	a2, 0x1
   197fa: 3e e1        	sd	a5, 0x80(sp)
   197fc: f6 dc        	sw	t4, 0x78(sp)
   197fe: 0c e0        	sd	a1, 0x0(s0)
   19800: 10 e4        	sd	a2, 0x8(s0)
   19802: 63 47 db 79  	blt	s6, t4, 0x19f90 <_vfiprintf_r+0x92e>
   19806: 76 86        	mv	a2, t4
   19808: 41 04        	addi	s0, s0, 0x10
   1980a: 85 2e        	addiw	t4, t4, 0x1
   1980c: 63 80 03 04  	beqz	t2, 0x1984c <_vfiprintf_r+0x1ea>
   19810: 89 07        	addi	a5, a5, 0x2
   19812: ac 10        	addi	a1, sp, 0x68
   19814: 09 46        	li	a2, 0x2
   19816: 3e e1        	sd	a5, 0x80(sp)
   19818: f6 dc        	sw	t4, 0x78(sp)
   1981a: 0c e0        	sd	a1, 0x0(s0)
   1981c: 10 e4        	sd	a2, 0x8(s0)
   1981e: 63 55 db 21  	bge	s6, t4, 0x19a28 <_vfiprintf_r+0x3c6>
   19822: e3 85 07 14  	beqz	a5, 0x1a16c <_vfiprintf_r+0xb0a>
   19826: 90 18        	addi	a2, sp, 0x70
   19828: d2 85        	mv	a1, s4
   1982a: 5e 85        	mv	a0, s7
   1982c: f2 e4        	sd	t3, 0x48(sp)
   1982e: 36 f4        	sd	a3, 0x28(sp)
   19830: 46 f0        	sd	a7, 0x20(sp)
   19832: 42 ec        	sd	a6, 0x18(sp)
   19834: ef f0 ff d5  	jal	0x19592 <__sprint_r.part.0>
   19838: 51 e1        	bnez	a0, 0x198bc <_vfiprintf_r+0x25a>
   1983a: 66 56        	lw	a2, 0x78(sp)
   1983c: 8a 67        	ld	a5, 0x80(sp)
   1983e: 62 68        	ld	a6, 0x18(sp)
   19840: 82 78        	ld	a7, 0x20(sp)
   19842: a2 76        	ld	a3, 0x28(sp)
   19844: 26 6e        	ld	t3, 0x48(sp)
   19846: 56 84        	mv	s0, s5
   19848: 9b 0e 16 00  	addiw	t4, a2, 0x1
   1984c: 93 05 00 08  	li	a1, 0x80
   19850: 63 83 b8 1e  	beq	a7, a1, 0x19a36 <_vfiprintf_r+0x3d4>
   19854: bb 84 c4 41  	subw	s1, s1, t3
   19858: 63 42 90 2a  	bgtz	s1, 0x19afc <_vfiprintf_r+0x49a>
   1985c: f2 97        	add	a5, a5, t3
   1985e: 3e e1        	sd	a5, 0x80(sp)
   19860: 23 30 b4 01  	sd	s11, 0x0(s0)
   19864: 23 34 c4 01  	sd	t3, 0x8(s0)
   19868: f6 dc        	sw	t4, 0x78(sp)
   1986a: 63 5b db 0f  	bge	s6, t4, 0x19960 <_vfiprintf_r+0x2fe>
   1986e: 63 8e 07 7e  	beqz	a5, 0x1a06a <_vfiprintf_r+0xa08>
   19872: 90 18        	addi	a2, sp, 0x70
   19874: d2 85        	mv	a1, s4
   19876: 5e 85        	mv	a0, s7
   19878: 36 f0        	sd	a3, 0x20(sp)
   1987a: 42 ec        	sd	a6, 0x18(sp)
   1987c: ef f0 7f d1  	jal	0x19592 <__sprint_r.part.0>
   19880: 15 ed        	bnez	a0, 0x198bc <_vfiprintf_r+0x25a>
   19882: 8a 67        	ld	a5, 0x80(sp)
   19884: 82 76        	ld	a3, 0x20(sp)
   19886: 62 68        	ld	a6, 0x18(sp)
   19888: 56 84        	mv	s0, s5
   1988a: 91 8a        	andi	a3, a3, 0x4
   1988c: 89 c6        	beqz	a3, 0x19896 <_vfiprintf_r+0x234>
   1988e: bb 04 28 41  	subw	s1, a6, s2
   19892: 63 44 90 7e  	bgtz	s1, 0x1a07a <_vfiprintf_r+0xa18>
   19896: c2 86        	mv	a3, a6
   19898: 63 53 28 01  	bge	a6, s2, 0x1989e <_vfiprintf_r+0x23c>
   1989c: ca 86        	mv	a3, s2
   1989e: 22 67        	ld	a4, 0x8(sp)
   198a0: 35 9f        	addw	a4, a4, a3
   198a2: 3a e4        	sd	a4, 0x8(sp)
   198a4: 63 9a 07 6c  	bnez	a5, 0x19f78 <_vfiprintf_r+0x916>
   198a8: 83 47 0c 00  	lbu	a5, 0x0(s8)
   198ac: 82 dc        	sw	zero, 0x78(sp)
   198ae: 56 84        	mv	s0, s5
   198b0: e3 9c 07 e4  	bnez	a5, 0x19708 <_vfiprintf_r+0xa6>
   198b4: 8a 67        	ld	a5, 0x80(sp)
   198b6: e3 98 07 4c  	bnez	a5, 0x1a586 <_vfiprintf_r+0xf24>
   198ba: 82 dc        	sw	zero, 0x78(sp)
   198bc: 03 27 0a 0b  	lw	a4, 0xb0(s4)
   198c0: 83 17 0a 01  	lh	a5, 0x10(s4)
   198c4: 05 8b        	andi	a4, a4, 0x1
   198c6: 59 cf        	beqz	a4, 0x19964 <_vfiprintf_r+0x302>
   198c8: 93 f7 07 04  	andi	a5, a5, 0x40
   198cc: 5e 64        	ld	s0, 0x1d0(sp)
   198ce: be 64        	ld	s1, 0x1c8(sp)
   198d0: 1e 69        	ld	s2, 0x1c0(sp)
   198d2: fa 79        	ld	s3, 0x1b8(sp)
   198d4: ba 7a        	ld	s5, 0x1a8(sp)
   198d6: 1a 7b        	ld	s6, 0x1a0(sp)
   198d8: 5a 6c        	ld	s8, 0x190(sp)
   198da: ba 6c        	ld	s9, 0x188(sp)
   198dc: 1a 6d        	ld	s10, 0x180(sp)
   198de: e3 98 07 52  	bnez	a5, 0x1a60e <_vfiprintf_r+0xfac>
   198e2: fe 60        	ld	ra, 0x1d8(sp)
   198e4: 22 65        	ld	a0, 0x8(sp)
   198e6: 5a 7a        	ld	s4, 0x1b0(sp)
   198e8: fa 6b        	ld	s7, 0x198(sp)
   198ea: f6 7d        	ld	s11, 0x178(sp)
   198ec: 3d 61        	addi	sp, sp, 0x1e0
   198ee: 82 80        	ret
   198f0: 93 e6 06 01  	ori	a3, a3, 0x10
   198f4: 83 47 0c 00  	lbu	a5, 0x0(s8)
   198f8: 81 26        	sext.w	a3, a3
   198fa: b5 bd        	j	0x19776 <_vfiprintf_r+0x114>
   198fc: d2 85        	mv	a1, s4
   198fe: 5e 85        	mv	a0, s7
   19900: ef 90 8f 98  	jal	0x12a88 <__swsetup_r>
   19904: e3 11 05 50  	bnez	a0, 0x1a606 <_vfiprintf_r+0xfa4>
   19908: 83 17 0a 01  	lh	a5, 0x10(s4)
   1990c: a9 46        	li	a3, 0xa
   1990e: 13 f7 a7 01  	andi	a4, a5, 0x1a
   19912: e3 1b d7 da  	bne	a4, a3, 0x196c8 <_vfiprintf_r+0x66>
   19916: 03 17 2a 01  	lh	a4, 0x12(s4)
   1991a: e3 47 07 da  	bltz	a4, 0x196c8 <_vfiprintf_r+0x66>
   1991e: 03 27 0a 0b  	lw	a4, 0xb0(s4)
   19922: 05 8b        	andi	a4, a4, 0x1
   19924: 09 e7        	bnez	a4, 0x1992e <_vfiprintf_r+0x2cc>
   19926: 93 f7 07 20  	andi	a5, a5, 0x200
   1992a: e3 88 07 46  	beqz	a5, 0x1a59a <_vfiprintf_r+0xf38>
   1992e: c2 66        	ld	a3, 0x10(sp)
   19930: fe 60        	ld	ra, 0x1d8(sp)
   19932: 6e 86        	mv	a2, s11
   19934: d2 85        	mv	a1, s4
   19936: f6 7d        	ld	s11, 0x178(sp)
   19938: 5a 7a        	ld	s4, 0x1b0(sp)
   1993a: 5e 85        	mv	a0, s7
   1993c: fa 6b        	ld	s7, 0x198(sp)
   1993e: 3d 61        	addi	sp, sp, 0x1e0
   19940: 6f 00 d0 50  	j	0x1a64c <__sbprintf>
   19944: bb 8d 84 41  	subw	s11, s1, s8
   19948: e3 9b 0d dc  	bnez	s11, 0x1971e <_vfiprintf_r+0xbc>
   1994c: 83 c7 04 00  	lbu	a5, 0x0(s1)
   19950: 29 b5        	j	0x1975a <_vfiprintf_r+0xf8>
   19952: 05 46        	li	a2, 0x1
   19954: f2 87        	mv	a5, t3
   19956: f2 fd        	sd	t3, 0xf8(sp)
   19958: 72 e1        	sd	t3, 0x80(sp)
   1995a: ee f9        	sd	s11, 0xf0(sp)
   1995c: b2 dc        	sw	a2, 0x78(sp)
   1995e: 56 84        	mv	s0, s5
   19960: 41 04        	addi	s0, s0, 0x10
   19962: 25 b7        	j	0x1988a <_vfiprintf_r+0x228>
   19964: 13 f7 07 20  	andi	a4, a5, 0x200
   19968: 25 f3        	bnez	a4, 0x198c8 <_vfiprintf_r+0x266>
   1996a: 03 35 0a 0a  	ld	a0, 0xa0(s4)
   1996e: ef c0 ef 90  	jal	0x15a7c <__retarget_lock_release_recursive>
   19972: 83 17 0a 01  	lh	a5, 0x10(s4)
   19976: 89 bf        	j	0x198c8 <_vfiprintf_r+0x266>
   19978: ef 90 8f e7  	jal	0x12ff0 <__sinit>
   1997c: 01 b3        	j	0x1967c <_vfiprintf_r+0x1a>
   1997e: 42 67        	ld	a4, 0x10(sp)
   19980: 93 f7 06 02  	andi	a5, a3, 0x20
   19984: 4a 88        	mv	a6, s2
   19986: 13 06 87 00  	addi	a2, a4, 0x8
   1998a: 63 9e 07 26  	bnez	a5, 0x19c06 <_vfiprintf_r+0x5a4>
   1998e: 93 f7 06 01  	andi	a5, a3, 0x10
   19992: e3 9c 07 48  	bnez	a5, 0x1a62a <_vfiprintf_r+0xfc8>
   19996: c2 67        	ld	a5, 0x10(sp)
   19998: 93 f5 06 04  	andi	a1, a3, 0x40
   1999c: 9c 43        	lw	a5, 0x0(a5)
   1999e: e3 81 05 2c  	beqz	a1, 0x1a460 <_vfiprintf_r+0xdfe>
   199a2: 9b 97 07 01  	slliw	a5, a5, 0x10
   199a6: 9b d7 07 41  	sraiw	a5, a5, 0x10
   199aa: 32 e8        	sd	a2, 0x10(sp)
   199ac: be 85        	mv	a1, a5
   199ae: 63 c2 05 26  	bltz	a1, 0x19c12 <_vfiprintf_r+0x5b0>
   199b2: 63 c7 04 00  	bltz	s1, 0x199c0 <_vfiprintf_r+0x35e>
   199b6: 93 f6 f6 f7  	andi	a3, a3, -0x81
   199ba: 81 26        	sext.w	a3, a3
   199bc: e3 88 07 0e  	beqz	a5, 0x1a2ac <_vfiprintf_r+0xc4a>
   199c0: 25 43        	li	t1, 0x9
   199c2: 63 66 f3 26  	bltu	t1, a5, 0x19c2e <_vfiprintf_r+0x5cc>
   199c6: 9b 87 07 03  	addiw	a5, a5, 0x30
   199ca: 93 f7 f7 0f  	andi	a5, a5, 0xff
   199ce: a3 05 f1 0e  	sb	a5, 0xeb(sp)
   199d2: a6 87        	mv	a5, s1
   199d4: 63 43 90 00  	bgtz	s1, 0x199da <_vfiprintf_r+0x378>
   199d8: 85 47        	li	a5, 0x1
   199da: 03 46 71 06  	lbu	a2, 0x67(sp)
   199de: 1b 89 07 00  	sext.w	s2, a5
   199e2: 19 c2        	beqz	a2, 0x199e8 <_vfiprintf_r+0x386>
   199e4: 1b 89 17 00  	addiw	s2, a5, 0x1
   199e8: 93 f3 46 08  	andi	t2, a3, 0x84
   199ec: 05 4e        	li	t3, 0x1
   199ee: 93 0d b1 0e  	addi	s11, sp, 0xeb
   199f2: e3 97 03 de  	bnez	t2, 0x197e0 <_vfiprintf_r+0x17e>
   199f6: 66 56        	lw	a2, 0x78(sp)
   199f8: bb 08 28 41  	subw	a7, a6, s2
   199fc: 8a 67        	ld	a5, 0x80(sp)
   199fe: 9b 05 16 00  	addiw	a1, a2, 0x1
   19a02: ae 8e        	mv	t4, a1
   19a04: 63 42 10 5d  	bgtz	a7, 0x19fc8 <_vfiprintf_r+0x966>
   19a08: 83 45 71 06  	lbu	a1, 0x67(sp)
   19a0c: 63 9b 05 5a  	bnez	a1, 0x19fc2 <_vfiprintf_r+0x960>
   19a10: e3 82 03 e4  	beqz	t2, 0x19854 <_vfiprintf_r+0x1f2>
   19a14: 89 07        	addi	a5, a5, 0x2
   19a16: ac 10        	addi	a1, sp, 0x68
   19a18: 09 46        	li	a2, 0x2
   19a1a: 3e e1        	sd	a5, 0x80(sp)
   19a1c: f6 dc        	sw	t4, 0x78(sp)
   19a1e: 0c e0        	sd	a1, 0x0(s0)
   19a20: 10 e4        	sd	a2, 0x8(s0)
   19a22: 81 48        	li	a7, 0x0
   19a24: e3 4f db df  	blt	s6, t4, 0x19822 <_vfiprintf_r+0x1c0>
   19a28: 76 86        	mv	a2, t4
   19a2a: 41 04        	addi	s0, s0, 0x10
   19a2c: 85 2e        	addiw	t4, t4, 0x1
   19a2e: 93 05 00 08  	li	a1, 0x80
   19a32: e3 91 b8 e2  	bne	a7, a1, 0x19854 <_vfiprintf_r+0x1f2>
   19a36: 3b 0f 28 41  	subw	t5, a6, s2
   19a3a: e3 5d e0 e1  	blez	t5, 0x19854 <_vfiprintf_r+0x1f2>
   19a3e: c1 4f        	li	t6, 0x10
   19a40: e3 d8 ef 39  	bge	t6, t5, 0x1a5d0 <_vfiprintf_r+0xf6e>
   19a44: 97 58 00 00  	auipc	a7, 0x5
   19a48: 93 88 c8 3c  	addi	a7, a7, 0x3cc
   19a4c: 26 f0        	sd	s1, 0x20(sp)
   19a4e: 36 f4        	sd	a3, 0x28(sp)
   19a50: fe 82        	mv	t0, t6
   19a52: a2 86        	mv	a3, s0
   19a54: 9d 4e        	li	t4, 0x7
   19a56: 42 ec        	sd	a6, 0x18(sp)
   19a58: 7a 84        	mv	s0, t5
   19a5a: f2 e4        	sd	t3, 0x48(sp)
   19a5c: c6 84        	mv	s1, a7
   19a5e: 01 a8        	j	0x19a6e <_vfiprintf_r+0x40c>
   19a60: 1b 05 26 00  	addiw	a0, a2, 0x2
   19a64: c1 06        	addi	a3, a3, 0x10
   19a66: 3a 86        	mv	a2, a4
   19a68: 41 34        	addiw	s0, s0, -0x10
   19a6a: 63 d0 82 04  	bge	t0, s0, 0x19aaa <_vfiprintf_r+0x448>
   19a6e: c1 07        	addi	a5, a5, 0x10
   19a70: 1b 07 16 00  	addiw	a4, a2, 0x1
   19a74: 3e e1        	sd	a5, 0x80(sp)
   19a76: 84 e2        	sd	s1, 0x0(a3)
   19a78: 23 b4 f6 01  	sd	t6, 0x8(a3)
   19a7c: ba dc        	sw	a4, 0x78(sp)
   19a7e: e3 d1 ee fe  	bge	t4, a4, 0x19a60 <_vfiprintf_r+0x3fe>
   19a82: 63 83 07 50  	beqz	a5, 0x19f88 <_vfiprintf_r+0x926>
   19a86: 90 18        	addi	a2, sp, 0x70
   19a88: d2 85        	mv	a1, s4
   19a8a: 5e 85        	mv	a0, s7
   19a8c: ef f0 7f b0  	jal	0x19592 <__sprint_r.part.0>
   19a90: e3 16 05 e2  	bnez	a0, 0x198bc <_vfiprintf_r+0x25a>
   19a94: 66 56        	lw	a2, 0x78(sp)
   19a96: c1 42        	li	t0, 0x10
   19a98: 41 34        	addiw	s0, s0, -0x10
   19a9a: 8a 67        	ld	a5, 0x80(sp)
   19a9c: d6 86        	mv	a3, s5
   19a9e: 1b 05 16 00  	addiw	a0, a2, 0x1
   19aa2: 9d 4e        	li	t4, 0x7
   19aa4: 96 8f        	mv	t6, t0
   19aa6: e3 c4 82 fc  	blt	t0, s0, 0x19a6e <_vfiprintf_r+0x40c>
   19aaa: 22 8f        	mv	t5, s0
   19aac: a6 88        	mv	a7, s1
   19aae: 36 84        	mv	s0, a3
   19ab0: 62 68        	ld	a6, 0x18(sp)
   19ab2: a2 76        	ld	a3, 0x28(sp)
   19ab4: 26 6e        	ld	t3, 0x48(sp)
   19ab6: 82 74        	ld	s1, 0x20(sp)
   19ab8: fa 97        	add	a5, a5, t5
   19aba: 3e e1        	sd	a5, 0x80(sp)
   19abc: 23 30 14 01  	sd	a7, 0x0(s0)
   19ac0: 23 34 e4 01  	sd	t5, 0x8(s0)
   19ac4: aa dc        	sw	a0, 0x78(sp)
   19ac6: 1d 46        	li	a2, 0x7
   19ac8: 63 5b a6 72  	bge	a2, a0, 0x1a1fe <_vfiprintf_r+0xb9c>
   19acc: e3 81 07 26  	beqz	a5, 0x1a52e <_vfiprintf_r+0xecc>
   19ad0: 90 18        	addi	a2, sp, 0x70
   19ad2: d2 85        	mv	a1, s4
   19ad4: 5e 85        	mv	a0, s7
   19ad6: 72 f4        	sd	t3, 0x28(sp)
   19ad8: 36 f0        	sd	a3, 0x20(sp)
   19ada: 42 ec        	sd	a6, 0x18(sp)
   19adc: ef f0 7f ab  	jal	0x19592 <__sprint_r.part.0>
   19ae0: e3 1e 05 dc  	bnez	a0, 0x198bc <_vfiprintf_r+0x25a>
   19ae4: 22 7e        	ld	t3, 0x28(sp)
   19ae6: 66 56        	lw	a2, 0x78(sp)
   19ae8: 8a 67        	ld	a5, 0x80(sp)
   19aea: bb 84 c4 41  	subw	s1, s1, t3
   19aee: 82 76        	ld	a3, 0x20(sp)
   19af0: 62 68        	ld	a6, 0x18(sp)
   19af2: 56 84        	mv	s0, s5
   19af4: 9b 0e 16 00  	addiw	t4, a2, 0x1
   19af8: e3 52 90 d6  	blez	s1, 0x1985c <_vfiprintf_r+0x1fa>
   19afc: 97 58 00 00  	auipc	a7, 0x5
   19b00: 93 88 48 31  	addi	a7, a7, 0x314
   19b04: 63 d1 99 06  	bge	s3, s1, 0x19b66 <_vfiprintf_r+0x504>
   19b08: 36 f0        	sd	a3, 0x20(sp)
   19b0a: 42 ec        	sd	a6, 0x18(sp)
   19b0c: a2 86        	mv	a3, s0
   19b0e: 72 f4        	sd	t3, 0x28(sp)
   19b10: 26 84        	mv	s0, s1
   19b12: c6 84        	mv	s1, a7
   19b14: 01 a8        	j	0x19b24 <_vfiprintf_r+0x4c2>
   19b16: 9b 0e 26 00  	addiw	t4, a2, 0x2
   19b1a: c1 06        	addi	a3, a3, 0x10
   19b1c: 3a 86        	mv	a2, a4
   19b1e: 41 34        	addiw	s0, s0, -0x10
   19b20: 63 dd 89 02  	bge	s3, s0, 0x19b5a <_vfiprintf_r+0x4f8>
   19b24: c1 07        	addi	a5, a5, 0x10
   19b26: 1b 07 16 00  	addiw	a4, a2, 0x1
   19b2a: 3e e1        	sd	a5, 0x80(sp)
   19b2c: 84 e2        	sd	s1, 0x0(a3)
   19b2e: 23 b4 36 01  	sd	s3, 0x8(a3)
   19b32: ba dc        	sw	a4, 0x78(sp)
   19b34: e3 51 eb fe  	bge	s6, a4, 0x19b16 <_vfiprintf_r+0x4b4>
   19b38: 63 8c 07 42  	beqz	a5, 0x19f70 <_vfiprintf_r+0x90e>
   19b3c: 90 18        	addi	a2, sp, 0x70
   19b3e: d2 85        	mv	a1, s4
   19b40: 5e 85        	mv	a0, s7
   19b42: ef f0 1f a5  	jal	0x19592 <__sprint_r.part.0>
   19b46: e3 1b 05 d6  	bnez	a0, 0x198bc <_vfiprintf_r+0x25a>
   19b4a: 66 56        	lw	a2, 0x78(sp)
   19b4c: 41 34        	addiw	s0, s0, -0x10
   19b4e: 8a 67        	ld	a5, 0x80(sp)
   19b50: d6 86        	mv	a3, s5
   19b52: 9b 0e 16 00  	addiw	t4, a2, 0x1
   19b56: e3 c7 89 fc  	blt	s3, s0, 0x19b24 <_vfiprintf_r+0x4c2>
   19b5a: a6 88        	mv	a7, s1
   19b5c: 62 68        	ld	a6, 0x18(sp)
   19b5e: a2 84        	mv	s1, s0
   19b60: 22 7e        	ld	t3, 0x28(sp)
   19b62: 36 84        	mv	s0, a3
   19b64: 82 76        	ld	a3, 0x20(sp)
   19b66: a6 97        	add	a5, a5, s1
   19b68: 3e e1        	sd	a5, 0x80(sp)
   19b6a: 23 30 14 01  	sd	a7, 0x0(s0)
   19b6e: 04 e4        	sd	s1, 0x8(s0)
   19b70: f6 dc        	sw	t4, 0x78(sp)
   19b72: 63 45 db 5d  	blt	s6, t4, 0x1a13c <_vfiprintf_r+0xada>
   19b76: 41 04        	addi	s0, s0, 0x10
   19b78: 85 2e        	addiw	t4, t4, 0x1
   19b7a: cd b1        	j	0x1985c <_vfiprintf_r+0x1fa>
   19b7c: c2 67        	ld	a5, 0x10(sp)
   19b7e: a3 03 01 06  	sb	zero, 0x67(sp)
   19b82: 4a 88        	mv	a6, s2
   19b84: 83 bd 07 00  	ld	s11, 0x0(a5)
   19b88: 13 87 87 00  	addi	a4, a5, 0x8
   19b8c: e3 88 0d 08  	beqz	s11, 0x1a41c <_vfiprintf_r+0xdba>
   19b90: 36 f0        	sd	a3, 0x20(sp)
   19b92: 4a ec        	sd	s2, 0x18(sp)
   19b94: 3a e8        	sd	a4, 0x10(sp)
   19b96: 63 c0 04 78  	bltz	s1, 0x1a316 <_vfiprintf_r+0xcb4>
   19b9a: 26 86        	mv	a2, s1
   19b9c: 81 45        	li	a1, 0x0
   19b9e: 6e 85        	mv	a0, s11
   19ba0: ef c0 6f ec  	jal	0x16266 <memchr>
   19ba4: 83 47 71 06  	lbu	a5, 0x67(sp)
   19ba8: 42 67        	ld	a4, 0x10(sp)
   19baa: 62 68        	ld	a6, 0x18(sp)
   19bac: 82 76        	ld	a3, 0x20(sp)
   19bae: e3 0c 05 1e  	beqz	a0, 0x1a5a6 <_vfiprintf_r+0xf44>
   19bb2: 3b 0e b5 41  	subw	t3, a0, s11
   19bb6: 72 86        	mv	a2, t3
   19bb8: 63 53 0e 00  	bgez	t3, 0x19bbe <_vfiprintf_r+0x55c>
   19bbc: 01 46        	li	a2, 0x0
   19bbe: 32 89        	mv	s2, a2
   19bc0: 63 86 07 78  	beqz	a5, 0x1a34c <_vfiprintf_r+0xcea>
   19bc4: 1b 09 16 00  	addiw	s2, a2, 0x1
   19bc8: 3a e8        	sd	a4, 0x10(sp)
   19bca: 81 44        	li	s1, 0x0
   19bcc: 31 b1        	j	0x197d8 <_vfiprintf_r+0x176>
   19bce: 42 67        	ld	a4, 0x10(sp)
   19bd0: 05 4e        	li	t3, 0x1
   19bd2: 4a 88        	mv	a6, s2
   19bd4: 1c 43        	lw	a5, 0x0(a4)
   19bd6: a3 03 01 06  	sb	zero, 0x67(sp)
   19bda: 72 89        	mv	s2, t3
   19bdc: 23 04 f1 08  	sb	a5, 0x88(sp)
   19be0: 93 07 87 00  	addi	a5, a4, 0x8
   19be4: 3e e8        	sd	a5, 0x10(sp)
   19be6: 81 44        	li	s1, 0x0
   19be8: 93 0d 81 08  	addi	s11, sp, 0x88
   19bec: f5 b6        	j	0x197d8 <_vfiprintf_r+0x176>
   19bee: 93 e7 06 01  	ori	a5, a3, 0x10
   19bf2: 93 f6 06 02  	andi	a3, a3, 0x20
   19bf6: 4a 88        	mv	a6, s2
   19bf8: 81 27        	sext.w	a5, a5
   19bfa: 63 87 06 64  	beqz	a3, 0x1a248 <_vfiprintf_r+0xbe6>
   19bfe: be 86        	mv	a3, a5
   19c00: c2 67        	ld	a5, 0x10(sp)
   19c02: 13 86 87 00  	addi	a2, a5, 0x8
   19c06: c2 67        	ld	a5, 0x10(sp)
   19c08: 32 e8        	sd	a2, 0x10(sp)
   19c0a: 8c 63        	ld	a1, 0x0(a5)
   19c0c: ae 87        	mv	a5, a1
   19c0e: e3 d2 05 da  	bgez	a1, 0x199b2 <_vfiprintf_r+0x350>
   19c12: 13 06 d0 02  	li	a2, 0x2d
   19c16: a3 03 c1 06  	sb	a2, 0x67(sp)
   19c1a: b3 07 f0 40  	neg	a5, a5
   19c1e: e3 c1 04 da  	bltz	s1, 0x199c0 <_vfiprintf_r+0x35e>
   19c22: 93 f6 f6 f7  	andi	a3, a3, -0x81
   19c26: 25 43        	li	t1, 0x9
   19c28: 81 26        	sext.w	a3, a3
   19c2a: e3 7e f3 d8  	bgeu	t1, a5, 0x199c6 <_vfiprintf_r+0x364>
   19c2e: 37 d6 cc cc  	lui	a2, 0xccccd
   19c32: 13 06 d6 cc  	addi	a2, a2, -0x333
   19c36: 93 18 06 02  	slli	a7, a2, 0x20
   19c3a: 13 0e c1 0e  	addi	t3, sp, 0xec
   19c3e: e2 7e        	ld	t4, 0x38(sp)
   19c40: b2 98        	add	a7, a7, a2
   19c42: f2 85        	mv	a1, t3
   19c44: 13 ff 06 40  	andi	t5, a3, 0x400
   19c48: 01 45        	li	a0, 0x0
   19c4a: 13 09 f0 0f  	li	s2, 0xff
   19c4e: 01 a8        	j	0x19c5e <_vfiprintf_r+0x5fc>
   19c50: 3e 87        	mv	a4, a5
   19c52: b3 b7 17 03  	mulhu	a5, a5, a7
   19c56: ee 85        	mv	a1, s11
   19c58: 8d 83        	srli	a5, a5, 0x3
   19c5a: 63 7c e3 02  	bgeu	t1, a4, 0x19c92 <_vfiprintf_r+0x630>
   19c5e: 33 b6 17 03  	mulhu	a2, a5, a7
   19c62: 05 25        	addiw	a0, a0, 0x1
   19c64: 93 8d f5 ff  	addi	s11, a1, -0x1
   19c68: 0d 82        	srli	a2, a2, 0x3
   19c6a: 13 17 26 00  	slli	a4, a2, 0x2
   19c6e: 32 97        	add	a4, a4, a2
   19c70: 06 07        	slli	a4, a4, 0x1
   19c72: 33 87 e7 40  	sub	a4, a5, a4
   19c76: 1b 07 07 03  	addiw	a4, a4, 0x30
   19c7a: a3 8f e5 fe  	sb	a4, -0x1(a1)
   19c7e: e3 09 0f fc  	beqz	t5, 0x19c50 <_vfiprintf_r+0x5ee>
   19c82: 03 c7 0e 00  	lbu	a4, 0x0(t4)
   19c86: e3 15 a7 fc  	bne	a4, a0, 0x19c50 <_vfiprintf_r+0x5ee>
   19c8a: e3 03 27 fd  	beq	a4, s2, 0x19c50 <_vfiprintf_r+0x5ee>
   19c8e: e3 67 f3 00  	bltu	t1, a5, 0x1a49c <_vfiprintf_r+0xe3a>
   19c92: 76 fc        	sd	t4, 0x38(sp)
   19c94: 3b 0e be 41  	subw	t3, t3, s11
   19c98: a6 87        	mv	a5, s1
   19c9a: 63 d3 c4 01  	bge	s1, t3, 0x19ca0 <_vfiprintf_r+0x63e>
   19c9e: f2 87        	mv	a5, t3
   19ca0: 03 46 71 06  	lbu	a2, 0x67(sp)
   19ca4: 1b 89 07 00  	sext.w	s2, a5
   19ca8: e3 08 06 b2  	beqz	a2, 0x197d8 <_vfiprintf_r+0x176>
   19cac: 1b 89 17 00  	addiw	s2, a5, 0x1
   19cb0: 25 b6        	j	0x197d8 <_vfiprintf_r+0x176>
   19cb2: c2 67        	ld	a5, 0x10(sp)
   19cb4: 03 a9 07 00  	lw	s2, 0x0(a5)
   19cb8: a1 07        	addi	a5, a5, 0x8
   19cba: 63 56 09 50  	bgez	s2, 0x1a1c6 <_vfiprintf_r+0xb64>
   19cbe: 3b 09 20 41  	negw	s2, s2
   19cc2: 3e e8        	sd	a5, 0x10(sp)
   19cc4: 93 e6 46 00  	ori	a3, a3, 0x4
   19cc8: 83 47 0c 00  	lbu	a5, 0x0(s8)
   19ccc: 81 26        	sext.w	a3, a3
   19cce: 65 b4        	j	0x19776 <_vfiprintf_r+0x114>
   19cd0: c2 67        	ld	a5, 0x10(sp)
   19cd2: 13 e6 06 01  	ori	a2, a3, 0x10
   19cd6: a3 03 01 06  	sb	zero, 0x67(sp)
   19cda: 93 85 87 00  	addi	a1, a5, 0x8
   19cde: 4a 88        	mv	a6, s2
   19ce0: 9c 63        	ld	a5, 0x0(a5)
   19ce2: 01 26        	sext.w	a2, a2
   19ce4: 63 ce 04 54  	bltz	s1, 0x1a240 <_vfiprintf_r+0xbde>
   19ce8: 13 76 f6 f7  	andi	a2, a2, -0x81
   19cec: 9b 06 06 00  	sext.w	a3, a2
   19cf0: 63 8f 07 16  	beqz	a5, 0x19e6e <_vfiprintf_r+0x80c>
   19cf4: 2e e8        	sd	a1, 0x10(sp)
   19cf6: e9 b1        	j	0x199c0 <_vfiprintf_r+0x35e>
   19cf8: 93 07 b0 02  	li	a5, 0x2b
   19cfc: a3 03 f1 06  	sb	a5, 0x67(sp)
   19d00: 83 47 0c 00  	lbu	a5, 0x0(s8)
   19d04: 8d bc        	j	0x19776 <_vfiprintf_r+0x114>
   19d06: 93 e6 06 08  	ori	a3, a3, 0x80
   19d0a: 83 47 0c 00  	lbu	a5, 0x0(s8)
   19d0e: 81 26        	sext.w	a3, a3
   19d10: 9d b4        	j	0x19776 <_vfiprintf_r+0x114>
   19d12: 83 47 0c 00  	lbu	a5, 0x0(s8)
   19d16: 13 07 a0 02  	li	a4, 0x2a
   19d1a: 13 05 1c 00  	addi	a0, s8, 0x1
   19d1e: e3 87 e7 0c  	beq	a5, a4, 0x1a5ec <_vfiprintf_r+0xf8a>
   19d22: 1b 86 07 fd  	addiw	a2, a5, -0x30
   19d26: a5 48        	li	a7, 0x9
   19d28: 81 45        	li	a1, 0x0
   19d2a: 2a 8c        	mv	s8, a0
   19d2c: 81 44        	li	s1, 0x0
   19d2e: e3 e5 c8 a4  	bltu	a7, a2, 0x19778 <_vfiprintf_r+0x116>
   19d32: 1b 97 25 00  	slliw	a4, a1, 0x2
   19d36: 83 47 05 00  	lbu	a5, 0x0(a0)
   19d3a: 2d 9f        	addw	a4, a4, a1
   19d3c: 1b 17 17 00  	slliw	a4, a4, 0x1
   19d40: bb 05 c7 00  	addw	a1, a4, a2
   19d44: 1b 86 07 fd  	addiw	a2, a5, -0x30
   19d48: 05 05        	addi	a0, a0, 0x1
   19d4a: e3 f4 c8 fe  	bgeu	a7, a2, 0x19d32 <_vfiprintf_r+0x6d0>
   19d4e: ae 84        	mv	s1, a1
   19d50: 63 ca 05 54  	bltz	a1, 0x1a2a4 <_vfiprintf_r+0xc42>
   19d54: 2a 8c        	mv	s8, a0
   19d56: 0d b4        	j	0x19778 <_vfiprintf_r+0x116>
   19d58: 5e 85        	mv	a0, s7
   19d5a: 36 ec        	sd	a3, 0x18(sp)
   19d5c: ef b0 ff cf  	jal	0x15a5a <_localeconv_r>
   19d60: 1c 65        	ld	a5, 0x8(a0)
   19d62: 3e 85        	mv	a0, a5
   19d64: be e0        	sd	a5, 0x40(sp)
   19d66: ef d0 ef e8  	jal	0x173f4 <strlen>
   19d6a: aa 87        	mv	a5, a0
   19d6c: 5e 85        	mv	a0, s7
   19d6e: 3e f8        	sd	a5, 0x30(sp)
   19d70: ef b0 bf ce  	jal	0x15a5a <_localeconv_r>
   19d74: 10 69        	ld	a2, 0x10(a0)
   19d76: 42 77        	ld	a4, 0x30(sp)
   19d78: 83 47 0c 00  	lbu	a5, 0x0(s8)
   19d7c: 32 fc        	sd	a2, 0x38(sp)
   19d7e: e2 66        	ld	a3, 0x18(sp)
   19d80: e3 0b 07 9e  	beqz	a4, 0x19776 <_vfiprintf_r+0x114>
   19d84: e3 09 06 9e  	beqz	a2, 0x19776 <_vfiprintf_r+0x114>
   19d88: 03 47 06 00  	lbu	a4, 0x0(a2)
   19d8c: e3 05 07 9e  	beqz	a4, 0x19776 <_vfiprintf_r+0x114>
   19d90: 93 e6 06 40  	ori	a3, a3, 0x400
   19d94: 81 26        	sext.w	a3, a3
   19d96: c5 b2        	j	0x19776 <_vfiprintf_r+0x114>
   19d98: 93 e6 16 00  	ori	a3, a3, 0x1
   19d9c: 83 47 0c 00  	lbu	a5, 0x0(s8)
   19da0: 81 26        	sext.w	a3, a3
   19da2: d1 ba        	j	0x19776 <_vfiprintf_r+0x114>
   19da4: 03 47 71 06  	lbu	a4, 0x67(sp)
   19da8: 83 47 0c 00  	lbu	a5, 0x0(s8)
   19dac: e3 15 07 9c  	bnez	a4, 0x19776 <_vfiprintf_r+0x114>
   19db0: 13 07 00 02  	li	a4, 0x20
   19db4: a3 03 e1 06  	sb	a4, 0x67(sp)
   19db8: 7d ba        	j	0x19776 <_vfiprintf_r+0x114>
   19dba: c2 67        	ld	a5, 0x10(sp)
   19dbc: 13 e3 06 01  	ori	t1, a3, 0x10
   19dc0: 4a 88        	mv	a6, s2
   19dc2: 01 23        	sext.w	t1, t1
   19dc4: 13 86 87 00  	addi	a2, a5, 0x8
   19dc8: c2 67        	ld	a5, 0x10(sp)
   19dca: 9c 63        	ld	a5, 0x0(a5)
   19dcc: 32 e8        	sd	a2, 0x10(sp)
   19dce: a3 03 01 06  	sb	zero, 0x67(sp)
   19dd2: 63 ce 04 3a  	bltz	s1, 0x1a18e <_vfiprintf_r+0xb2c>
   19dd6: 93 76 f3 b7  	andi	a3, t1, -0x481
   19dda: 81 26        	sext.w	a3, a3
   19ddc: 63 8a 07 3e  	beqz	a5, 0x1a1d0 <_vfiprintf_r+0xb6e>
   19de0: 13 0e c1 0e  	addi	t3, sp, 0xec
   19de4: f2 8d        	mv	s11, t3
   19de6: 13 f6 77 00  	andi	a2, a5, 0x7
   19dea: ee 85        	mv	a1, s11
   19dec: 13 06 06 03  	addi	a2, a2, 0x30
   19df0: 8d 83        	srli	a5, a5, 0x3
   19df2: a3 8f cd fe  	sb	a2, -0x1(s11)
   19df6: fd 1d        	addi	s11, s11, -0x1
   19df8: fd f7        	bnez	a5, 0x19de6 <_vfiprintf_r+0x784>
   19dfa: 93 f7 16 00  	andi	a5, a3, 0x1
   19dfe: 63 85 07 32  	beqz	a5, 0x1a128 <_vfiprintf_r+0xac6>
   19e02: 93 07 00 03  	li	a5, 0x30
   19e06: 63 01 f6 32  	beq	a2, a5, 0x1a128 <_vfiprintf_r+0xac6>
   19e0a: f9 15        	addi	a1, a1, -0x2
   19e0c: 3b 0e be 40  	subw	t3, t3, a1
   19e10: a3 8f fd fe  	sb	a5, -0x1(s11)
   19e14: 26 83        	mv	t1, s1
   19e16: 63 c1 c4 49  	blt	s1, t3, 0x1a298 <_vfiprintf_r+0xc36>
   19e1a: 1b 09 03 00  	sext.w	s2, t1
   19e1e: ae 8d        	mv	s11, a1
   19e20: 65 ba        	j	0x197d8 <_vfiprintf_r+0x176>
   19e22: 83 47 0c 00  	lbu	a5, 0x0(s8)
   19e26: 13 07 80 06  	li	a4, 0x68
   19e2a: 63 89 e7 5c  	beq	a5, a4, 0x1a3fc <_vfiprintf_r+0xd9a>
   19e2e: 93 e6 06 04  	ori	a3, a3, 0x40
   19e32: 81 26        	sext.w	a3, a3
   19e34: 89 b2        	j	0x19776 <_vfiprintf_r+0x114>
   19e36: 93 f7 06 02  	andi	a5, a3, 0x20
   19e3a: 4a 88        	mv	a6, s2
   19e3c: 63 99 07 3e  	bnez	a5, 0x1a22e <_vfiprintf_r+0xbcc>
   19e40: 93 f7 06 01  	andi	a5, a3, 0x10
   19e44: 63 95 07 3e  	bnez	a5, 0x1a22e <_vfiprintf_r+0xbcc>
   19e48: c2 67        	ld	a5, 0x10(sp)
   19e4a: 13 f6 06 04  	andi	a2, a3, 0x40
   19e4e: 93 85 87 00  	addi	a1, a5, 0x8
   19e52: 9c 43        	lw	a5, 0x0(a5)
   19e54: 63 01 06 62  	beqz	a2, 0x1a476 <_vfiprintf_r+0xe14>
   19e58: c2 17        	slli	a5, a5, 0x30
   19e5a: a3 03 01 06  	sb	zero, 0x67(sp)
   19e5e: c1 93        	srli	a5, a5, 0x30
   19e60: e3 ca 04 e8  	bltz	s1, 0x19cf4 <_vfiprintf_r+0x692>
   19e64: 93 f6 f6 f7  	andi	a3, a3, -0x81
   19e68: 81 26        	sext.w	a3, a3
   19e6a: e3 95 07 e8  	bnez	a5, 0x19cf4 <_vfiprintf_r+0x692>
   19e6e: 2e e8        	sd	a1, 0x10(sp)
   19e70: 63 80 04 58  	beqz	s1, 0x1a3f0 <_vfiprintf_r+0xd8e>
   19e74: 81 47        	li	a5, 0x0
   19e76: 81 be        	j	0x199c6 <_vfiprintf_r+0x364>
   19e78: 93 e6 06 02  	ori	a3, a3, 0x20
   19e7c: 83 47 0c 00  	lbu	a5, 0x0(s8)
   19e80: 81 26        	sext.w	a3, a3
   19e82: d5 b8        	j	0x19776 <_vfiprintf_r+0x114>
   19e84: a1 67        	lui	a5, 0x8
   19e86: 93 87 07 83  	addi	a5, a5, -0x7d0
   19e8a: 23 14 f1 06  	sh	a5, 0x68(sp)
   19e8e: c2 67        	ld	a5, 0x10(sp)
   19e90: a3 03 01 06  	sb	zero, 0x67(sp)
   19e94: 4a 88        	mv	a6, s2
   19e96: 90 63        	ld	a2, 0x0(a5)
   19e98: 13 85 87 00  	addi	a0, a5, 0x8
   19e9c: 63 c5 04 3c  	bltz	s1, 0x1a266 <_vfiprintf_r+0xc04>
   19ea0: 93 f6 f6 f7  	andi	a3, a3, -0x81
   19ea4: 81 26        	sext.w	a3, a3
   19ea6: 93 e6 26 00  	ori	a3, a3, 0x2
   19eaa: 63 08 06 58  	beqz	a2, 0x1a43a <_vfiprintf_r+0xdd8>
   19eae: 93 77 f6 00  	andi	a5, a2, 0xf
   19eb2: 97 45 00 00  	auipc	a1, 0x4
   19eb6: 93 85 e5 5e  	addi	a1, a1, 0x5ee
   19eba: ae 97        	add	a5, a5, a1
   19ebc: 83 c7 07 00  	lbu	a5, 0x0(a5)
   19ec0: 2a e8        	sd	a0, 0x10(sp)
   19ec2: 09 49        	li	s2, 0x2
   19ec4: a3 05 f1 0e  	sb	a5, 0xeb(sp)
   19ec8: 93 57 46 00  	srli	a5, a2, 0x4
   19ecc: 63 84 07 76  	beqz	a5, 0x1a634 <_vfiprintf_r+0xfd2>
   19ed0: 93 0d b1 0e  	addi	s11, sp, 0xeb
   19ed4: 13 f7 f7 00  	andi	a4, a5, 0xf
   19ed8: 2e 97        	add	a4, a4, a1
   19eda: 03 47 07 00  	lbu	a4, 0x0(a4)
   19ede: 91 83        	srli	a5, a5, 0x4
   19ee0: fd 1d        	addi	s11, s11, -0x1
   19ee2: 23 80 ed 00  	sb	a4, 0x0(s11)
   19ee6: fd f7        	bnez	a5, 0x19ed4 <_vfiprintf_r+0x872>
   19ee8: 13 0e c1 0e  	addi	t3, sp, 0xec
   19eec: 3b 0e be 41  	subw	t3, t3, s11
   19ef0: 9b 87 04 00  	sext.w	a5, s1
   19ef4: 63 d3 c4 01  	bge	s1, t3, 0x19efa <_vfiprintf_r+0x898>
   19ef8: f2 87        	mv	a5, t3
   19efa: 63 0a 09 72  	beqz	s2, 0x1a62e <_vfiprintf_r+0xfcc>
   19efe: 93 f8 46 08  	andi	a7, a3, 0x84
   19f02: 1b 89 27 00  	addiw	s2, a5, 0x2
   19f06: 63 87 08 44  	beqz	a7, 0x1a354 <_vfiprintf_r+0xcf2>
   19f0a: e6 5e        	lw	t4, 0x78(sp)
   19f0c: 8a 67        	ld	a5, 0x80(sp)
   19f0e: 85 2e        	addiw	t4, t4, 0x1
   19f10: 01 b2        	j	0x19810 <_vfiprintf_r+0x1ae>
   19f12: 42 67        	ld	a4, 0x10(sp)
   19f14: 93 f7 06 02  	andi	a5, a3, 0x20
   19f18: 4a 88        	mv	a6, s2
   19f1a: 13 06 87 00  	addi	a2, a4, 0x8
   19f1e: 63 96 07 30  	bnez	a5, 0x1a22a <_vfiprintf_r+0xbc8>
   19f22: 93 f7 06 01  	andi	a5, a3, 0x10
   19f26: 63 92 07 30  	bnez	a5, 0x1a22a <_vfiprintf_r+0xbc8>
   19f2a: c2 67        	ld	a5, 0x10(sp)
   19f2c: 93 f5 06 04  	andi	a1, a3, 0x40
   19f30: 9c 43        	lw	a5, 0x0(a5)
   19f32: 63 8d 05 54  	beqz	a1, 0x1a48c <_vfiprintf_r+0xe2a>
   19f36: c2 17        	slli	a5, a5, 0x30
   19f38: c1 93        	srli	a5, a5, 0x30
   19f3a: 32 e8        	sd	a2, 0x10(sp)
   19f3c: 36 83        	mv	t1, a3
   19f3e: 41 bd        	j	0x19dce <_vfiprintf_r+0x76c>
   19f40: 42 67        	ld	a4, 0x10(sp)
   19f42: 93 f7 06 02  	andi	a5, a3, 0x20
   19f46: 10 63        	ld	a2, 0x0(a4)
   19f48: 63 81 07 2c  	beqz	a5, 0x1a20a <_vfiprintf_r+0xba8>
   19f4c: a2 67        	ld	a5, 0x8(sp)
   19f4e: 1c e2        	sd	a5, 0x0(a2)
   19f50: c2 67        	ld	a5, 0x10(sp)
   19f52: a1 07        	addi	a5, a5, 0x8
   19f54: 3e e8        	sd	a5, 0x10(sp)
   19f56: 6f f0 af fa  	j	0x19700 <_vfiprintf_r+0x9e>
   19f5a: 83 47 0c 00  	lbu	a5, 0x0(s8)
   19f5e: 13 07 c0 06  	li	a4, 0x6c
   19f62: 63 85 e7 4a  	beq	a5, a4, 0x1a40c <_vfiprintf_r+0xdaa>
   19f66: 93 e6 06 01  	ori	a3, a3, 0x10
   19f6a: 81 26        	sext.w	a3, a3
   19f6c: 6f f0 bf 80  	j	0x19776 <_vfiprintf_r+0x114>
   19f70: 85 4e        	li	t4, 0x1
   19f72: 01 46        	li	a2, 0x0
   19f74: d6 86        	mv	a3, s5
   19f76: 65 b6        	j	0x19b1e <_vfiprintf_r+0x4bc>
   19f78: 90 18        	addi	a2, sp, 0x70
   19f7a: d2 85        	mv	a1, s4
   19f7c: 5e 85        	mv	a0, s7
   19f7e: ef f0 4f e1  	jal	0x19592 <__sprint_r.part.0>
   19f82: e3 03 05 92  	beqz	a0, 0x198a8 <_vfiprintf_r+0x246>
   19f86: 1d ba        	j	0x198bc <_vfiprintf_r+0x25a>
   19f88: 05 45        	li	a0, 0x1
   19f8a: 01 46        	li	a2, 0x0
   19f8c: d6 86        	mv	a3, s5
   19f8e: e9 bc        	j	0x19a68 <_vfiprintf_r+0x406>
   19f90: 63 83 07 1e  	beqz	a5, 0x1a176 <_vfiprintf_r+0xb14>
   19f94: 90 18        	addi	a2, sp, 0x70
   19f96: d2 85        	mv	a1, s4
   19f98: 5e 85        	mv	a0, s7
   19f9a: f2 e8        	sd	t3, 0x50(sp)
   19f9c: b6 e4        	sd	a3, 0x48(sp)
   19f9e: 46 f4        	sd	a7, 0x28(sp)
   19fa0: 1e f0        	sd	t2, 0x20(sp)
   19fa2: 42 ec        	sd	a6, 0x18(sp)
   19fa4: ef f0 ef de  	jal	0x19592 <__sprint_r.part.0>
   19fa8: e3 1a 05 90  	bnez	a0, 0x198bc <_vfiprintf_r+0x25a>
   19fac: 66 56        	lw	a2, 0x78(sp)
   19fae: 8a 67        	ld	a5, 0x80(sp)
   19fb0: 46 6e        	ld	t3, 0x50(sp)
   19fb2: a6 66        	ld	a3, 0x48(sp)
   19fb4: a2 78        	ld	a7, 0x28(sp)
   19fb6: 82 73        	ld	t2, 0x20(sp)
   19fb8: 62 68        	ld	a6, 0x18(sp)
   19fba: 56 84        	mv	s0, s5
   19fbc: 9b 0e 16 00  	addiw	t4, a2, 0x1
   19fc0: b1 b0        	j	0x1980c <_vfiprintf_r+0x1aa>
   19fc2: 81 48        	li	a7, 0x0
   19fc4: 6f f0 ff 82  	j	0x197f2 <_vfiprintf_r+0x190>
   19fc8: 41 4f        	li	t5, 0x10
   19fca: 63 56 1f 5f  	bge	t5, a7, 0x1a5b6 <_vfiprintf_r+0xf54>
   19fce: 97 5e 00 00  	auipc	t4, 0x5
   19fd2: 93 8e 2e e5  	addi	t4, t4, -0x1ae
   19fd6: 26 f0        	sd	s1, 0x20(sp)
   19fd8: 22 87        	mv	a4, s0
   19fda: fa 82        	mv	t0, t5
   19fdc: 9d 4f        	li	t6, 0x7
   19fde: 42 ec        	sd	a6, 0x18(sp)
   19fe0: 1e f4        	sd	t2, 0x28(sp)
   19fe2: 46 84        	mv	s0, a7
   19fe4: b6 e4        	sd	a3, 0x48(sp)
   19fe6: f2 e8        	sd	t3, 0x50(sp)
   19fe8: f6 84        	mv	s1, t4
   19fea: 11 a8        	j	0x19ffe <_vfiprintf_r+0x99c>
   19fec: 1b 05 26 00  	addiw	a0, a2, 0x2
   19ff0: 41 07        	addi	a4, a4, 0x10
   19ff2: 2e 86        	mv	a2, a1
   19ff4: 41 34        	addiw	s0, s0, -0x10
   19ff6: 63 df 82 02  	bge	t0, s0, 0x1a034 <_vfiprintf_r+0x9d2>
   19ffa: 9b 05 16 00  	addiw	a1, a2, 0x1
   19ffe: c1 07        	addi	a5, a5, 0x10
   1a000: 3e e1        	sd	a5, 0x80(sp)
   1a002: 04 e3        	sd	s1, 0x0(a4)
   1a004: 23 34 e7 01  	sd	t5, 0x8(a4)
   1a008: ae dc        	sw	a1, 0x78(sp)
   1a00a: e3 d1 bf fe  	bge	t6, a1, 0x19fec <_vfiprintf_r+0x98a>
   1a00e: b1 cb        	beqz	a5, 0x1a062 <_vfiprintf_r+0xa00>
   1a010: 90 18        	addi	a2, sp, 0x70
   1a012: d2 85        	mv	a1, s4
   1a014: 5e 85        	mv	a0, s7
   1a016: ef f0 cf d7  	jal	0x19592 <__sprint_r.part.0>
   1a01a: e3 11 05 8a  	bnez	a0, 0x198bc <_vfiprintf_r+0x25a>
   1a01e: 66 56        	lw	a2, 0x78(sp)
   1a020: c1 42        	li	t0, 0x10
   1a022: 41 34        	addiw	s0, s0, -0x10
   1a024: 8a 67        	ld	a5, 0x80(sp)
   1a026: 56 87        	mv	a4, s5
   1a028: 1b 05 16 00  	addiw	a0, a2, 0x1
   1a02c: 9d 4f        	li	t6, 0x7
   1a02e: 16 8f        	mv	t5, t0
   1a030: e3 c5 82 fc  	blt	t0, s0, 0x19ffa <_vfiprintf_r+0x998>
   1a034: a6 8e        	mv	t4, s1
   1a036: 62 68        	ld	a6, 0x18(sp)
   1a038: a2 73        	ld	t2, 0x28(sp)
   1a03a: a6 66        	ld	a3, 0x48(sp)
   1a03c: 46 6e        	ld	t3, 0x50(sp)
   1a03e: 82 74        	ld	s1, 0x20(sp)
   1a040: a2 88        	mv	a7, s0
   1a042: 3a 84        	mv	s0, a4
   1a044: c6 97        	add	a5, a5, a7
   1a046: 3e e1        	sd	a5, 0x80(sp)
   1a048: 23 30 d4 01  	sd	t4, 0x0(s0)
   1a04c: 23 34 14 01  	sd	a7, 0x8(s0)
   1a050: aa dc        	sw	a0, 0x78(sp)
   1a052: 1d 46        	li	a2, 0x7
   1a054: 63 42 a6 14  	blt	a2, a0, 0x1a198 <_vfiprintf_r+0xb36>
   1a058: 41 04        	addi	s0, s0, 0x10
   1a05a: 9b 0e 15 00  	addiw	t4, a0, 0x1
   1a05e: 2a 86        	mv	a2, a0
   1a060: 65 b2        	j	0x19a08 <_vfiprintf_r+0x3a6>
   1a062: 05 45        	li	a0, 0x1
   1a064: 01 46        	li	a2, 0x0
   1a066: 56 87        	mv	a4, s5
   1a068: 71 b7        	j	0x19ff4 <_vfiprintf_r+0x992>
   1a06a: 82 dc        	sw	zero, 0x78(sp)
   1a06c: 91 8a        	andi	a3, a3, 0x4
   1a06e: c5 c6        	beqz	a3, 0x1a116 <_vfiprintf_r+0xab4>
   1a070: bb 04 28 41  	subw	s1, a6, s2
   1a074: 63 51 90 0a  	blez	s1, 0x1a116 <_vfiprintf_r+0xab4>
   1a078: 56 84        	mv	s0, s5
   1a07a: c1 4d        	li	s11, 0x10
   1a07c: 66 56        	lw	a2, 0x78(sp)
   1a07e: 63 d2 9d 54  	bge	s11, s1, 0x1a5c2 <_vfiprintf_r+0xf60>
   1a082: 97 5e 00 00  	auipc	t4, 0x5
   1a086: 93 8e ee d9  	addi	t4, t4, -0x262
   1a08a: a2 86        	mv	a3, s0
   1a08c: 6e 8e        	mv	t3, s11
   1a08e: 9d 48        	li	a7, 0x7
   1a090: 42 ec        	sd	a6, 0x18(sp)
   1a092: 76 84        	mv	s0, t4
   1a094: 01 a8        	j	0x1a0a4 <_vfiprintf_r+0xa42>
   1a096: 9b 05 26 00  	addiw	a1, a2, 0x2
   1a09a: c1 06        	addi	a3, a3, 0x10
   1a09c: 3a 86        	mv	a2, a4
   1a09e: c1 34        	addiw	s1, s1, -0x10
   1a0a0: 63 5e 9e 02  	bge	t3, s1, 0x1a0dc <_vfiprintf_r+0xa7a>
   1a0a4: c1 07        	addi	a5, a5, 0x10
   1a0a6: 1b 07 16 00  	addiw	a4, a2, 0x1
   1a0aa: 3e e1        	sd	a5, 0x80(sp)
   1a0ac: 80 e2        	sd	s0, 0x0(a3)
   1a0ae: 23 b4 b6 01  	sd	s11, 0x8(a3)
   1a0b2: ba dc        	sw	a4, 0x78(sp)
   1a0b4: e3 d1 e8 fe  	bge	a7, a4, 0x1a096 <_vfiprintf_r+0xa34>
   1a0b8: b9 cb        	beqz	a5, 0x1a10e <_vfiprintf_r+0xaac>
   1a0ba: 90 18        	addi	a2, sp, 0x70
   1a0bc: d2 85        	mv	a1, s4
   1a0be: 5e 85        	mv	a0, s7
   1a0c0: ef f0 2f cd  	jal	0x19592 <__sprint_r.part.0>
   1a0c4: 63 1c 05 fe  	bnez	a0, 0x198bc <_vfiprintf_r+0x25a>
   1a0c8: 66 56        	lw	a2, 0x78(sp)
   1a0ca: 41 4e        	li	t3, 0x10
   1a0cc: c1 34        	addiw	s1, s1, -0x10
   1a0ce: 8a 67        	ld	a5, 0x80(sp)
   1a0d0: d6 86        	mv	a3, s5
   1a0d2: 9b 05 16 00  	addiw	a1, a2, 0x1
   1a0d6: 9d 48        	li	a7, 0x7
   1a0d8: e3 46 9e fc  	blt	t3, s1, 0x1a0a4 <_vfiprintf_r+0xa42>
   1a0dc: 62 68        	ld	a6, 0x18(sp)
   1a0de: a2 8e        	mv	t4, s0
   1a0e0: 36 84        	mv	s0, a3
   1a0e2: a6 97        	add	a5, a5, s1
   1a0e4: 3e e1        	sd	a5, 0x80(sp)
   1a0e6: 23 30 d4 01  	sd	t4, 0x0(s0)
   1a0ea: 04 e4        	sd	s1, 0x8(s0)
   1a0ec: ae dc        	sw	a1, 0x78(sp)
   1a0ee: 9d 46        	li	a3, 0x7
   1a0f0: 63 d3 b6 fa  	bge	a3, a1, 0x19896 <_vfiprintf_r+0x234>
   1a0f4: 8d c3        	beqz	a5, 0x1a116 <_vfiprintf_r+0xab4>
   1a0f6: 90 18        	addi	a2, sp, 0x70
   1a0f8: d2 85        	mv	a1, s4
   1a0fa: 5e 85        	mv	a0, s7
   1a0fc: 42 ec        	sd	a6, 0x18(sp)
   1a0fe: ef f0 4f c9  	jal	0x19592 <__sprint_r.part.0>
   1a102: 63 1d 05 fa  	bnez	a0, 0x198bc <_vfiprintf_r+0x25a>
   1a106: 8a 67        	ld	a5, 0x80(sp)
   1a108: 62 68        	ld	a6, 0x18(sp)
   1a10a: 6f f0 cf f8  	j	0x19896 <_vfiprintf_r+0x234>
   1a10e: 85 45        	li	a1, 0x1
   1a110: 01 46        	li	a2, 0x0
   1a112: d6 86        	mv	a3, s5
   1a114: 69 b7        	j	0x1a09e <_vfiprintf_r+0xa3c>
   1a116: c2 87        	mv	a5, a6
   1a118: 63 53 28 01  	bge	a6, s2, 0x1a11e <_vfiprintf_r+0xabc>
   1a11c: ca 87        	mv	a5, s2
   1a11e: 22 67        	ld	a4, 0x8(sp)
   1a120: b9 9f        	addw	a5, a5, a4
   1a122: 3e e4        	sd	a5, 0x8(sp)
   1a124: 6f f0 4f f8  	j	0x198a8 <_vfiprintf_r+0x246>
   1a128: 3b 0e be 41  	subw	t3, t3, s11
   1a12c: 26 83        	mv	t1, s1
   1a12e: 63 d3 c4 01  	bge	s1, t3, 0x1a134 <_vfiprintf_r+0xad2>
   1a132: 72 83        	mv	t1, t3
   1a134: 1b 09 03 00  	sext.w	s2, t1
   1a138: 6f f0 0f ea  	j	0x197d8 <_vfiprintf_r+0x176>
   1a13c: e3 8b 07 80  	beqz	a5, 0x19952 <_vfiprintf_r+0x2f0>
   1a140: 90 18        	addi	a2, sp, 0x70
   1a142: d2 85        	mv	a1, s4
   1a144: 5e 85        	mv	a0, s7
   1a146: 72 f4        	sd	t3, 0x28(sp)
   1a148: 36 f0        	sd	a3, 0x20(sp)
   1a14a: 42 ec        	sd	a6, 0x18(sp)
   1a14c: ef f0 6f c4  	jal	0x19592 <__sprint_r.part.0>
   1a150: 63 16 05 f6  	bnez	a0, 0x198bc <_vfiprintf_r+0x25a>
   1a154: e6 5e        	lw	t4, 0x78(sp)
   1a156: 8a 67        	ld	a5, 0x80(sp)
   1a158: 22 7e        	ld	t3, 0x28(sp)
   1a15a: 82 76        	ld	a3, 0x20(sp)
   1a15c: 62 68        	ld	a6, 0x18(sp)
   1a15e: 56 84        	mv	s0, s5
   1a160: 85 2e        	addiw	t4, t4, 0x1
   1a162: 6f f0 af ef  	j	0x1985c <_vfiprintf_r+0x1fa>
   1a166: 82 dc        	sw	zero, 0x78(sp)
   1a168: 6f f0 4f de  	j	0x1974c <_vfiprintf_r+0xea>
   1a16c: 85 4e        	li	t4, 0x1
   1a16e: 01 46        	li	a2, 0x0
   1a170: 56 84        	mv	s0, s5
   1a172: 6f f0 af ed  	j	0x1984c <_vfiprintf_r+0x1ea>
   1a176: 63 83 03 0e  	beqz	t2, 0x1a25c <_vfiprintf_r+0xbfa>
   1a17a: b2 8e        	mv	t4, a2
   1a17c: ac 10        	addi	a1, sp, 0x68
   1a17e: 89 47        	li	a5, 0x2
   1a180: 56 84        	mv	s0, s5
   1a182: 76 86        	mv	a2, t4
   1a184: ae f9        	sd	a1, 0xf0(sp)
   1a186: be fd        	sd	a5, 0xf8(sp)
   1a188: 41 04        	addi	s0, s0, 0x10
   1a18a: 85 2e        	addiw	t4, t4, 0x1
   1a18c: 4d b0        	j	0x19a2e <_vfiprintf_r+0x3cc>
   1a18e: 13 73 f3 bf  	andi	t1, t1, -0x401
   1a192: 9b 06 03 00  	sext.w	a3, t1
   1a196: a9 b1        	j	0x19de0 <_vfiprintf_r+0x77e>
   1a198: 63 85 07 1a  	beqz	a5, 0x1a342 <_vfiprintf_r+0xce0>
   1a19c: 90 18        	addi	a2, sp, 0x70
   1a19e: d2 85        	mv	a1, s4
   1a1a0: 5e 85        	mv	a0, s7
   1a1a2: f2 e4        	sd	t3, 0x48(sp)
   1a1a4: 36 f4        	sd	a3, 0x28(sp)
   1a1a6: 1e f0        	sd	t2, 0x20(sp)
   1a1a8: 42 ec        	sd	a6, 0x18(sp)
   1a1aa: ef f0 8f be  	jal	0x19592 <__sprint_r.part.0>
   1a1ae: 63 17 05 f0  	bnez	a0, 0x198bc <_vfiprintf_r+0x25a>
   1a1b2: 66 56        	lw	a2, 0x78(sp)
   1a1b4: 8a 67        	ld	a5, 0x80(sp)
   1a1b6: 26 6e        	ld	t3, 0x48(sp)
   1a1b8: a2 76        	ld	a3, 0x28(sp)
   1a1ba: 82 73        	ld	t2, 0x20(sp)
   1a1bc: 62 68        	ld	a6, 0x18(sp)
   1a1be: 56 84        	mv	s0, s5
   1a1c0: 9b 0e 16 00  	addiw	t4, a2, 0x1
   1a1c4: 91 b0        	j	0x19a08 <_vfiprintf_r+0x3a6>
   1a1c6: 3e e8        	sd	a5, 0x10(sp)
   1a1c8: 83 47 0c 00  	lbu	a5, 0x0(s8)
   1a1cc: 6f f0 af da  	j	0x19776 <_vfiprintf_r+0x114>
   1a1d0: e3 98 04 c0  	bnez	s1, 0x19de0 <_vfiprintf_r+0x77e>
   1a1d4: 13 79 13 00  	andi	s2, t1, 0x1
   1a1d8: 63 06 09 1c  	beqz	s2, 0x1a3a4 <_vfiprintf_r+0xd42>
   1a1dc: 93 07 00 03  	li	a5, 0x30
   1a1e0: a3 05 f1 0e  	sb	a5, 0xeb(sp)
   1a1e4: 4a 8e        	mv	t3, s2
   1a1e6: 93 0d b1 0e  	addi	s11, sp, 0xeb
   1a1ea: 6f f0 ef de  	j	0x197d8 <_vfiprintf_r+0x176>
   1a1ee: 03 35 0a 0a  	ld	a0, 0xa0(s4)
   1a1f2: ef b0 ff 87  	jal	0x15a70 <__retarget_lock_acquire_recursive>
   1a1f6: 83 17 0a 01  	lh	a5, 0x10(s4)
   1a1fa: 6f f0 6f c9  	j	0x19690 <_vfiprintf_r+0x2e>
   1a1fe: 41 04        	addi	s0, s0, 0x10
   1a200: 9b 0e 15 00  	addiw	t4, a0, 0x1
   1a204: 2a 86        	mv	a2, a0
   1a206: 6f f0 ef e4  	j	0x19854 <_vfiprintf_r+0x1f2>
   1a20a: 93 f7 06 01  	andi	a5, a3, 0x10
   1a20e: e3 9f 07 d2  	bnez	a5, 0x19f4c <_vfiprintf_r+0x8ea>
   1a212: 93 f7 06 04  	andi	a5, a3, 0x40
   1a216: 63 99 07 34  	bnez	a5, 0x1a568 <_vfiprintf_r+0xf06>
   1a21a: 93 f6 06 20  	andi	a3, a3, 0x200
   1a21e: a2 67        	ld	a5, 0x8(sp)
   1a220: 63 84 06 3c  	beqz	a3, 0x1a5e8 <_vfiprintf_r+0xf86>
   1a224: 23 00 f6 00  	sb	a5, 0x0(a2)
   1a228: 25 b3        	j	0x19f50 <_vfiprintf_r+0x8ee>
   1a22a: 36 83        	mv	t1, a3
   1a22c: 71 be        	j	0x19dc8 <_vfiprintf_r+0x766>
   1a22e: c2 67        	ld	a5, 0x10(sp)
   1a230: a3 03 01 06  	sb	zero, 0x67(sp)
   1a234: 36 86        	mv	a2, a3
   1a236: 93 85 87 00  	addi	a1, a5, 0x8
   1a23a: 9c 63        	ld	a5, 0x0(a5)
   1a23c: e3 d6 04 aa  	bgez	s1, 0x19ce8 <_vfiprintf_r+0x686>
   1a240: 2e e8        	sd	a1, 0x10(sp)
   1a242: b2 86        	mv	a3, a2
   1a244: 6f f0 cf f7  	j	0x199c0 <_vfiprintf_r+0x35e>
   1a248: 42 67        	ld	a4, 0x10(sp)
   1a24a: 13 06 87 00  	addi	a2, a4, 0x8
   1a24e: 42 67        	ld	a4, 0x10(sp)
   1a250: be 86        	mv	a3, a5
   1a252: 32 e8        	sd	a2, 0x10(sp)
   1a254: 0c 63        	ld	a1, 0x0(a4)
   1a256: ae 87        	mv	a5, a1
   1a258: 6f f0 6f f5  	j	0x199ae <_vfiprintf_r+0x34c>
   1a25c: b2 8e        	mv	t4, a2
   1a25e: 56 84        	mv	s0, s5
   1a260: 01 46        	li	a2, 0x0
   1a262: 6f f0 af de  	j	0x1984c <_vfiprintf_r+0x1ea>
   1a266: 93 77 f6 00  	andi	a5, a2, 0xf
   1a26a: 97 45 00 00  	auipc	a1, 0x4
   1a26e: 93 85 65 23  	addi	a1, a1, 0x236
   1a272: ae 97        	add	a5, a5, a1
   1a274: 83 c8 07 00  	lbu	a7, 0x0(a5)
   1a278: 93 e6 26 00  	ori	a3, a3, 0x2
   1a27c: 93 57 46 00  	srli	a5, a2, 0x4
   1a280: a3 05 11 0f  	sb	a7, 0xeb(sp)
   1a284: 2a e8        	sd	a0, 0x10(sp)
   1a286: 81 26        	sext.w	a3, a3
   1a288: 09 49        	li	s2, 0x2
   1a28a: e3 93 07 c4  	bnez	a5, 0x19ed0 <_vfiprintf_r+0x86e>
   1a28e: 85 47        	li	a5, 0x1
   1a290: 3e 8e        	mv	t3, a5
   1a292: 93 0d b1 0e  	addi	s11, sp, 0xeb
   1a296: a5 b1        	j	0x19efe <_vfiprintf_r+0x89c>
   1a298: 72 83        	mv	t1, t3
   1a29a: 1b 09 03 00  	sext.w	s2, t1
   1a29e: ae 8d        	mv	s11, a1
   1a2a0: 6f f0 8f d3  	j	0x197d8 <_vfiprintf_r+0x176>
   1a2a4: fd 54        	li	s1, -0x1
   1a2a6: 2a 8c        	mv	s8, a0
   1a2a8: 6f f0 0f cd  	j	0x19778 <_vfiprintf_r+0x116>
   1a2ac: 63 86 04 28  	beqz	s1, 0x1a538 <_vfiprintf_r+0xed6>
   1a2b0: 93 07 00 03  	li	a5, 0x30
   1a2b4: 6f f0 af f1  	j	0x199ce <_vfiprintf_r+0x36c>
   1a2b8: 4a 88        	mv	a6, s2
   1a2ba: 97 45 00 00  	auipc	a1, 0x4
   1a2be: 93 85 e5 1f  	addi	a1, a1, 0x1fe
   1a2c2: 42 67        	ld	a4, 0x10(sp)
   1a2c4: 13 f6 06 02  	andi	a2, a3, 0x20
   1a2c8: 13 05 87 00  	addi	a0, a4, 0x8
   1a2cc: 09 e6        	bnez	a2, 0x1a2d6 <_vfiprintf_r+0xc74>
   1a2ce: 13 f6 06 01  	andi	a2, a3, 0x10
   1a2d2: 71 ce        	beqz	a2, 0x1a3ae <_vfiprintf_r+0xd4c>
   1a2d4: 42 67        	ld	a4, 0x10(sp)
   1a2d6: 10 63        	ld	a2, 0x0(a4)
   1a2d8: 13 f9 16 00  	andi	s2, a3, 0x1
   1a2dc: 63 0f 09 06  	beqz	s2, 0x1a35a <_vfiprintf_r+0xcf8>
   1a2e0: 65 e2        	bnez	a2, 0x1a3c0 <_vfiprintf_r+0xd5e>
   1a2e2: a3 03 01 06  	sb	zero, 0x67(sp)
   1a2e6: 63 c7 04 22  	bltz	s1, 0x1a514 <_vfiprintf_r+0xeb2>
   1a2ea: 93 f6 f6 b7  	andi	a3, a3, -0x481
   1a2ee: 81 26        	sext.w	a3, a3
   1a2f0: 63 8f 04 0e  	beqz	s1, 0x1a3ee <_vfiprintf_r+0xd8c>
   1a2f4: 83 c7 05 00  	lbu	a5, 0x0(a1)
   1a2f8: 4a 8e        	mv	t3, s2
   1a2fa: 2a e8        	sd	a0, 0x10(sp)
   1a2fc: a3 05 f1 0e  	sb	a5, 0xeb(sp)
   1a300: 26 89        	mv	s2, s1
   1a302: 93 0d b1 0e  	addi	s11, sp, 0xeb
   1a306: 6f f0 2f cd  	j	0x197d8 <_vfiprintf_r+0x176>
   1a30a: 4a 88        	mv	a6, s2
   1a30c: 97 45 00 00  	auipc	a1, 0x4
   1a310: 93 85 45 19  	addi	a1, a1, 0x194
   1a314: 7d b7        	j	0x1a2c2 <_vfiprintf_r+0xc60>
   1a316: 6e 85        	mv	a0, s11
   1a318: ef d0 cf 8d  	jal	0x173f4 <strlen>
   1a31c: 1b 0e 05 00  	sext.w	t3, a0
   1a320: 42 67        	ld	a4, 0x10(sp)
   1a322: 62 68        	ld	a6, 0x18(sp)
   1a324: 82 76        	ld	a3, 0x20(sp)
   1a326: f2 87        	mv	a5, t3
   1a328: 63 53 0e 00  	bgez	t3, 0x1a32e <_vfiprintf_r+0xccc>
   1a32c: 81 47        	li	a5, 0x0
   1a32e: 03 46 71 06  	lbu	a2, 0x67(sp)
   1a332: 3e 89        	mv	s2, a5
   1a334: 01 ce        	beqz	a2, 0x1a34c <_vfiprintf_r+0xcea>
   1a336: 1b 89 17 00  	addiw	s2, a5, 0x1
   1a33a: 3a e8        	sd	a4, 0x10(sp)
   1a33c: 81 44        	li	s1, 0x0
   1a33e: 6f f0 af c9  	j	0x197d8 <_vfiprintf_r+0x176>
   1a342: 85 4e        	li	t4, 0x1
   1a344: 01 46        	li	a2, 0x0
   1a346: 56 84        	mv	s0, s5
   1a348: 6f f0 0f ec  	j	0x19a08 <_vfiprintf_r+0x3a6>
   1a34c: 3a e8        	sd	a4, 0x10(sp)
   1a34e: 81 44        	li	s1, 0x0
   1a350: 6f f0 8f c8  	j	0x197d8 <_vfiprintf_r+0x176>
   1a354: 89 43        	li	t2, 0x2
   1a356: 6f f0 0f ea  	j	0x199f6 <_vfiprintf_r+0x394>
   1a35a: a3 03 01 06  	sb	zero, 0x67(sp)
   1a35e: 63 c6 04 02  	bltz	s1, 0x1a38a <_vfiprintf_r+0xd28>
   1a362: 93 f6 f6 b7  	andi	a3, a3, -0x481
   1a366: 81 26        	sext.w	a3, a3
   1a368: 25 ee        	bnez	a2, 0x1a3e0 <_vfiprintf_r+0xd7e>
   1a36a: 63 8f 04 18  	beqz	s1, 0x1a508 <_vfiprintf_r+0xea6>
   1a36e: 83 c7 05 00  	lbu	a5, 0x0(a1)
   1a372: 2a e8        	sd	a0, 0x10(sp)
   1a374: 26 89        	mv	s2, s1
   1a376: a3 05 f1 0e  	sb	a5, 0xeb(sp)
   1a37a: 05 4e        	li	t3, 0x1
   1a37c: 93 0d b1 0e  	addi	s11, sp, 0xeb
   1a380: 6f f0 8f c5  	j	0x197d8 <_vfiprintf_r+0x176>
   1a384: 93 e6 26 00  	ori	a3, a3, 0x2
   1a388: 81 26        	sext.w	a3, a3
   1a38a: 93 77 f6 00  	andi	a5, a2, 0xf
   1a38e: ae 97        	add	a5, a5, a1
   1a390: 93 f8 f6 bf  	andi	a7, a3, -0x401
   1a394: 13 f9 26 00  	andi	s2, a3, 0x2
   1a398: 83 c7 07 00  	lbu	a5, 0x0(a5)
   1a39c: 2a e8        	sd	a0, 0x10(sp)
   1a39e: 9b 86 08 00  	sext.w	a3, a7
   1a3a2: 0d b6        	j	0x19ec4 <_vfiprintf_r+0x862>
   1a3a4: 01 4e        	li	t3, 0x0
   1a3a6: 93 0d c1 0e  	addi	s11, sp, 0xec
   1a3aa: 6f f0 ef c2  	j	0x197d8 <_vfiprintf_r+0x176>
   1a3ae: 42 67        	ld	a4, 0x10(sp)
   1a3b0: 93 f8 06 04  	andi	a7, a3, 0x40
   1a3b4: 10 43        	lw	a2, 0x0(a4)
   1a3b6: 63 8e 08 08  	beqz	a7, 0x1a452 <_vfiprintf_r+0xdf0>
   1a3ba: 42 16        	slli	a2, a2, 0x30
   1a3bc: 41 92        	srli	a2, a2, 0x30
   1a3be: 29 bf        	j	0x1a2d8 <_vfiprintf_r+0xc76>
   1a3c0: 93 08 00 03  	li	a7, 0x30
   1a3c4: a3 04 f1 06  	sb	a5, 0x69(sp)
   1a3c8: a3 03 01 06  	sb	zero, 0x67(sp)
   1a3cc: 23 04 11 07  	sb	a7, 0x68(sp)
   1a3d0: e3 ca 04 fa  	bltz	s1, 0x1a384 <_vfiprintf_r+0xd22>
   1a3d4: 93 f6 f6 b7  	andi	a3, a3, -0x481
   1a3d8: 81 26        	sext.w	a3, a3
   1a3da: 93 e6 26 00  	ori	a3, a3, 0x2
   1a3de: 09 49        	li	s2, 0x2
   1a3e0: 93 77 f6 00  	andi	a5, a2, 0xf
   1a3e4: ae 97        	add	a5, a5, a1
   1a3e6: 83 c7 07 00  	lbu	a5, 0x0(a5)
   1a3ea: 2a e8        	sd	a0, 0x10(sp)
   1a3ec: e1 bc        	j	0x19ec4 <_vfiprintf_r+0x862>
   1a3ee: 2a e8        	sd	a0, 0x10(sp)
   1a3f0: 01 4e        	li	t3, 0x0
   1a3f2: 01 49        	li	s2, 0x0
   1a3f4: 93 0d c1 0e  	addi	s11, sp, 0xec
   1a3f8: 6f f0 0f be  	j	0x197d8 <_vfiprintf_r+0x176>
   1a3fc: 93 e6 06 20  	ori	a3, a3, 0x200
   1a400: 83 47 1c 00  	lbu	a5, 0x1(s8)
   1a404: 81 26        	sext.w	a3, a3
   1a406: 05 0c        	addi	s8, s8, 0x1
   1a408: 6f f0 ef b6  	j	0x19776 <_vfiprintf_r+0x114>
   1a40c: 93 e6 06 02  	ori	a3, a3, 0x20
   1a410: 83 47 1c 00  	lbu	a5, 0x1(s8)
   1a414: 81 26        	sext.w	a3, a3
   1a416: 05 0c        	addi	s8, s8, 0x1
   1a418: 6f f0 ef b5  	j	0x19776 <_vfiprintf_r+0x114>
   1a41c: 99 47        	li	a5, 0x6
   1a41e: 26 83        	mv	t1, s1
   1a420: 63 e5 97 12  	bltu	a5, s1, 0x1a54a <_vfiprintf_r+0xee8>
   1a424: 1b 09 03 00  	sext.w	s2, t1
   1a428: 3a e8        	sd	a4, 0x10(sp)
   1a42a: 4a 8e        	mv	t3, s2
   1a42c: 81 44        	li	s1, 0x0
   1a42e: 97 4d 00 00  	auipc	s11, 0x4
   1a432: 93 8d 2d 0a  	addi	s11, s11, 0xa2
   1a436: 6f f0 2f ba  	j	0x197d8 <_vfiprintf_r+0x176>
   1a43a: 63 8a 04 10  	beqz	s1, 0x1a54e <_vfiprintf_r+0xeec>
   1a43e: 93 07 00 03  	li	a5, 0x30
   1a442: a3 05 f1 0e  	sb	a5, 0xeb(sp)
   1a446: 2a e8        	sd	a0, 0x10(sp)
   1a448: a6 87        	mv	a5, s1
   1a44a: 05 4e        	li	t3, 0x1
   1a44c: 93 0d b1 0e  	addi	s11, sp, 0xeb
   1a450: 7d b4        	j	0x19efe <_vfiprintf_r+0x89c>
   1a452: 93 f8 06 20  	andi	a7, a3, 0x200
   1a456: 63 86 08 10  	beqz	a7, 0x1a562 <_vfiprintf_r+0xf00>
   1a45a: 13 76 f6 0f  	andi	a2, a2, 0xff
   1a45e: ad bd        	j	0x1a2d8 <_vfiprintf_r+0xc76>
   1a460: 93 f5 06 20  	andi	a1, a3, 0x200
   1a464: fd c9        	beqz	a1, 0x1a55a <_vfiprintf_r+0xef8>
   1a466: 9b 97 87 01  	slliw	a5, a5, 0x18
   1a46a: 9b d7 87 41  	sraiw	a5, a5, 0x18
   1a46e: 32 e8        	sd	a2, 0x10(sp)
   1a470: be 85        	mv	a1, a5
   1a472: 6f f0 cf d3  	j	0x199ae <_vfiprintf_r+0x34c>
   1a476: 13 f6 06 20  	andi	a2, a3, 0x200
   1a47a: a3 03 01 06  	sb	zero, 0x67(sp)
   1a47e: 63 0e 06 0e  	beqz	a2, 0x1a57a <_vfiprintf_r+0xf18>
   1a482: 93 f7 f7 0f  	andi	a5, a5, 0xff
   1a486: e3 df 04 9c  	bgez	s1, 0x19e64 <_vfiprintf_r+0x802>
   1a48a: ad b0        	j	0x19cf4 <_vfiprintf_r+0x692>
   1a48c: 93 f5 06 20  	andi	a1, a3, 0x200
   1a490: e5 c1        	beqz	a1, 0x1a570 <_vfiprintf_r+0xf0e>
   1a492: 93 f7 f7 0f  	andi	a5, a5, 0xff
   1a496: 32 e8        	sd	a2, 0x10(sp)
   1a498: 36 83        	mv	t1, a3
   1a49a: 15 ba        	j	0x19dce <_vfiprintf_r+0x76c>
   1a49c: 42 76        	ld	a2, 0x30(sp)
   1a49e: 86 65        	ld	a1, 0x40(sp)
   1a4a0: f2 ec        	sd	t3, 0x58(sp)
   1a4a2: b3 8f cd 40  	sub	t6, s11, a2
   1a4a6: 7e 85        	mv	a0, t6
   1a4a8: b6 e8        	sd	a3, 0x50(sp)
   1a4aa: be e4        	sd	a5, 0x48(sp)
   1a4ac: 42 fc        	sd	a6, 0x38(sp)
   1a4ae: 76 f4        	sd	t4, 0x28(sp)
   1a4b0: 7a f0        	sd	t5, 0x20(sp)
   1a4b2: 7e ec        	sd	t6, 0x18(sp)
   1a4b4: ef c0 bf fd  	jal	0x1748e <strncpy>
   1a4b8: 97 77 00 00  	auipc	a5, 0x7
   1a4bc: 93 87 07 ee  	addi	a5, a5, -0x120
   1a4c0: 83 b8 07 00  	ld	a7, 0x0(a5)
   1a4c4: a6 67        	ld	a5, 0x48(sp)
   1a4c6: a2 7e        	ld	t4, 0x28(sp)
   1a4c8: e2 6f        	ld	t6, 0x18(sp)
   1a4ca: b3 b7 17 03  	mulhu	a5, a5, a7
   1a4ce: 03 c7 1e 00  	lbu	a4, 0x1(t4)
   1a4d2: 02 7f        	ld	t5, 0x20(sp)
   1a4d4: 62 78        	ld	a6, 0x38(sp)
   1a4d6: 33 37 e0 00  	snez	a4, a4
   1a4da: ba 9e        	add	t4, t4, a4
   1a4dc: c6 66        	ld	a3, 0x50(sp)
   1a4de: 66 6e        	ld	t3, 0x58(sp)
   1a4e0: 93 8d ff ff  	addi	s11, t6, -0x1
   1a4e4: 05 45        	li	a0, 0x1
   1a4e6: 8d 83        	srli	a5, a5, 0x3
   1a4e8: 33 b6 17 03  	mulhu	a2, a5, a7
   1a4ec: 25 43        	li	t1, 0x9
   1a4ee: 0d 82        	srli	a2, a2, 0x3
   1a4f0: 13 17 26 00  	slli	a4, a2, 0x2
   1a4f4: 32 97        	add	a4, a4, a2
   1a4f6: 06 07        	slli	a4, a4, 0x1
   1a4f8: 33 87 e7 40  	sub	a4, a5, a4
   1a4fc: 1b 07 07 03  	addiw	a4, a4, 0x30
   1a500: a3 8f ef fe  	sb	a4, -0x1(t6)
   1a504: 6f f0 ef f7  	j	0x19c82 <_vfiprintf_r+0x620>
   1a508: 2a e8        	sd	a0, 0x10(sp)
   1a50a: 01 4e        	li	t3, 0x0
   1a50c: 93 0d c1 0e  	addi	s11, sp, 0xec
   1a510: 6f f0 8f ac  	j	0x197d8 <_vfiprintf_r+0x176>
   1a514: 83 c7 05 00  	lbu	a5, 0x0(a1)
   1a518: 93 f6 f6 bf  	andi	a3, a3, -0x401
   1a51c: 81 26        	sext.w	a3, a3
   1a51e: a3 05 f1 0e  	sb	a5, 0xeb(sp)
   1a522: 2a e8        	sd	a0, 0x10(sp)
   1a524: 4a 8e        	mv	t3, s2
   1a526: 93 0d b1 0e  	addi	s11, sp, 0xeb
   1a52a: 6f f0 ef aa  	j	0x197d8 <_vfiprintf_r+0x176>
   1a52e: 85 4e        	li	t4, 0x1
   1a530: 01 46        	li	a2, 0x0
   1a532: 56 84        	mv	s0, s5
   1a534: 6f f0 0f b2  	j	0x19854 <_vfiprintf_r+0x1f2>
   1a538: 03 43 71 06  	lbu	t1, 0x67(sp)
   1a53c: 01 4e        	li	t3, 0x0
   1a53e: 93 0d c1 0e  	addi	s11, sp, 0xec
   1a542: 33 39 60 00  	snez	s2, t1
   1a546: 6f f0 2f a9  	j	0x197d8 <_vfiprintf_r+0x176>
   1a54a: 3e 83        	mv	t1, a5
   1a54c: e1 bd        	j	0x1a424 <_vfiprintf_r+0xdc2>
   1a54e: 2a e8        	sd	a0, 0x10(sp)
   1a550: 01 4e        	li	t3, 0x0
   1a552: 81 47        	li	a5, 0x0
   1a554: 93 0d c1 0e  	addi	s11, sp, 0xec
   1a558: 5d b2        	j	0x19efe <_vfiprintf_r+0x89c>
   1a55a: 32 e8        	sd	a2, 0x10(sp)
   1a55c: be 85        	mv	a1, a5
   1a55e: 6f f0 0f c5  	j	0x199ae <_vfiprintf_r+0x34c>
   1a562: 02 16        	slli	a2, a2, 0x20
   1a564: 01 92        	srli	a2, a2, 0x20
   1a566: 8d bb        	j	0x1a2d8 <_vfiprintf_r+0xc76>
   1a568: a2 67        	ld	a5, 0x8(sp)
   1a56a: 23 10 f6 00  	sh	a5, 0x0(a2)
   1a56e: cd b2        	j	0x19f50 <_vfiprintf_r+0x8ee>
   1a570: 82 17        	slli	a5, a5, 0x20
   1a572: 81 93        	srli	a5, a5, 0x20
   1a574: 32 e8        	sd	a2, 0x10(sp)
   1a576: 36 83        	mv	t1, a3
   1a578: 99 b8        	j	0x19dce <_vfiprintf_r+0x76c>
   1a57a: 82 17        	slli	a5, a5, 0x20
   1a57c: 81 93        	srli	a5, a5, 0x20
   1a57e: e3 d3 04 8e  	bgez	s1, 0x19e64 <_vfiprintf_r+0x802>
   1a582: 6f f0 2f f7  	j	0x19cf4 <_vfiprintf_r+0x692>
   1a586: 5e 85        	mv	a0, s7
   1a588: 90 18        	addi	a2, sp, 0x70
   1a58a: d2 85        	mv	a1, s4
   1a58c: ef f0 6f 80  	jal	0x19592 <__sprint_r.part.0>
   1a590: 63 16 05 b2  	bnez	a0, 0x198bc <_vfiprintf_r+0x25a>
   1a594: 82 dc        	sw	zero, 0x78(sp)
   1a596: 6f f0 6f b2  	j	0x198bc <_vfiprintf_r+0x25a>
   1a59a: 03 35 0a 0a  	ld	a0, 0xa0(s4)
   1a59e: ef b0 ef cd  	jal	0x15a7c <__retarget_lock_release_recursive>
   1a5a2: 6f f0 cf b8  	j	0x1992e <_vfiprintf_r+0x2cc>
   1a5a6: 3a e8        	sd	a4, 0x10(sp)
   1a5a8: 9d cb        	beqz	a5, 0x1a5de <_vfiprintf_r+0xf7c>
   1a5aa: 1b 89 14 00  	addiw	s2, s1, 0x1
   1a5ae: 26 8e        	mv	t3, s1
   1a5b0: 81 44        	li	s1, 0x0
   1a5b2: 6f f0 6f a2  	j	0x197d8 <_vfiprintf_r+0x176>
   1a5b6: 2e 85        	mv	a0, a1
   1a5b8: 97 5e 00 00  	auipc	t4, 0x5
   1a5bc: 93 8e 8e 86  	addi	t4, t4, -0x798
   1a5c0: 51 b4        	j	0x1a044 <_vfiprintf_r+0x9e2>
   1a5c2: 9b 05 16 00  	addiw	a1, a2, 0x1
   1a5c6: 97 5e 00 00  	auipc	t4, 0x5
   1a5ca: 93 8e ae 85  	addi	t4, t4, -0x7a6
   1a5ce: 11 be        	j	0x1a0e2 <_vfiprintf_r+0xa80>
   1a5d0: 76 85        	mv	a0, t4
   1a5d2: 97 58 00 00  	auipc	a7, 0x5
   1a5d6: 93 88 e8 83  	addi	a7, a7, -0x7c2
   1a5da: 6f f0 ef cd  	j	0x19ab8 <_vfiprintf_r+0x456>
   1a5de: 26 8e        	mv	t3, s1
   1a5e0: 26 89        	mv	s2, s1
   1a5e2: 81 44        	li	s1, 0x0
   1a5e4: 6f f0 4f 9f  	j	0x197d8 <_vfiprintf_r+0x176>
   1a5e8: 1c c2        	sw	a5, 0x0(a2)
   1a5ea: 9d b2        	j	0x19f50 <_vfiprintf_r+0x8ee>
   1a5ec: 42 67        	ld	a4, 0x10(sp)
   1a5ee: 1c 43        	lw	a5, 0x0(a4)
   1a5f0: 21 07        	addi	a4, a4, 0x8
   1a5f2: be 84        	mv	s1, a5
   1a5f4: 63 d3 07 00  	bgez	a5, 0x1a5fa <_vfiprintf_r+0xf98>
   1a5f8: fd 54        	li	s1, -0x1
   1a5fa: 83 47 1c 00  	lbu	a5, 0x1(s8)
   1a5fe: 3a e8        	sd	a4, 0x10(sp)
   1a600: 2a 8c        	mv	s8, a0
   1a602: 6f f0 4f 97  	j	0x19776 <_vfiprintf_r+0x114>
   1a606: 83 27 0a 0b  	lw	a5, 0xb0(s4)
   1a60a: 85 8b        	andi	a5, a5, 0x1
   1a60c: 89 c7        	beqz	a5, 0x1a616 <_vfiprintf_r+0xfb4>
   1a60e: fd 57        	li	a5, -0x1
   1a610: 3e e4        	sd	a5, 0x8(sp)
   1a612: 6f f0 0f ad  	j	0x198e2 <_vfiprintf_r+0x280>
   1a616: 83 57 0a 01  	lhu	a5, 0x10(s4)
   1a61a: 93 f7 07 20  	andi	a5, a5, 0x200
   1a61e: e5 fb        	bnez	a5, 0x1a60e <_vfiprintf_r+0xfac>
   1a620: 03 35 0a 0a  	ld	a0, 0xa0(s4)
   1a624: ef b0 8f c5  	jal	0x15a7c <__retarget_lock_release_recursive>
   1a628: dd b7        	j	0x1a60e <_vfiprintf_r+0xfac>
   1a62a: b6 87        	mv	a5, a3
   1a62c: 0d b1        	j	0x1a24e <_vfiprintf_r+0xbec>
   1a62e: 3e 89        	mv	s2, a5
   1a630: 6f f0 8f 9a  	j	0x197d8 <_vfiprintf_r+0x176>
   1a634: 93 0d b1 0e  	addi	s11, sp, 0xeb
   1a638: 45 b8        	j	0x19ee8 <_vfiprintf_r+0x886>

000000000001a63a <vfiprintf>:
   1a63a: 2a 87        	mv	a4, a0
   1a63c: 03 b5 81 70  	ld	a0, 0x708(gp)
   1a640: ae 87        	mv	a5, a1
   1a642: b2 86        	mv	a3, a2
   1a644: ba 85        	mv	a1, a4
   1a646: 3e 86        	mv	a2, a5
   1a648: 6f f0 af 81  	j	0x19662 <_vfiprintf_r>

000000000001a64c <__sbprintf>:
   1a64c: 83 d7 05 01  	lhu	a5, 0x10(a1)
   1a650: 03 ae 05 0b  	lw	t3, 0xb0(a1)
   1a654: 03 d3 25 01  	lhu	t1, 0x12(a1)
   1a658: 83 b8 05 03  	ld	a7, 0x30(a1)
   1a65c: 03 b8 05 04  	ld	a6, 0x40(a1)
   1a660: 13 01 01 b1  	addi	sp, sp, -0x4f0
   1a664: 13 07 00 40  	li	a4, 0x400
   1a668: f5 9b        	andi	a5, a5, -0x3
   1a66a: 23 30 81 4e  	sd	s0, 0x4e0(sp)
   1a66e: 23 38 21 4d  	sd	s2, 0x4d0(sp)
   1a672: 2e 84        	mv	s0, a1
   1a674: 2a 89        	mv	s2, a0
   1a676: 8c 01        	addi	a1, sp, 0xc0
   1a678: 28 11        	addi	a0, sp, 0xa8
   1a67a: 23 34 11 4e  	sd	ra, 0x4e8(sp)
   1a67e: 23 3c 91 4c  	sd	s1, 0x4d8(sp)
   1a682: 23 34 31 4d  	sd	s3, 0x4c8(sp)
   1a686: b2 84        	mv	s1, a2
   1a688: b6 89        	mv	s3, a3
   1a68a: 23 1c f1 00  	sh	a5, 0x18(sp)
   1a68e: 72 dd        	sw	t3, 0xb8(sp)
   1a690: 23 1d 61 00  	sh	t1, 0x1a(sp)
   1a694: 46 fc        	sd	a7, 0x38(sp)
   1a696: c2 e4        	sd	a6, 0x48(sp)
   1a698: 2e e4        	sd	a1, 0x8(sp)
   1a69a: 2e f0        	sd	a1, 0x20(sp)
   1a69c: 3a ca        	sw	a4, 0x14(sp)
   1a69e: 3a d4        	sw	a4, 0x28(sp)
   1a6a0: 02 d8        	sw	zero, 0x30(sp)
   1a6a2: ef b0 6f bc  	jal	0x15a68 <__retarget_lock_init_recursive>
   1a6a6: 26 86        	mv	a2, s1
   1a6a8: ce 86        	mv	a3, s3
   1a6aa: 2c 00        	addi	a1, sp, 0x8
   1a6ac: 4a 85        	mv	a0, s2
   1a6ae: ef e0 5f fb  	jal	0x19662 <_vfiprintf_r>
   1a6b2: aa 84        	mv	s1, a0
   1a6b4: 63 5e 05 02  	bgez	a0, 0x1a6f0 <__sbprintf+0xa4>
   1a6b8: 83 57 81 01  	lhu	a5, 0x18(sp)
   1a6bc: 93 f7 07 04  	andi	a5, a5, 0x40
   1a6c0: 99 c7        	beqz	a5, 0x1a6ce <__sbprintf+0x82>
   1a6c2: 83 57 04 01  	lhu	a5, 0x10(s0)
   1a6c6: 93 e7 07 04  	ori	a5, a5, 0x40
   1a6ca: 23 18 f4 00  	sh	a5, 0x10(s0)
   1a6ce: 2a 75        	ld	a0, 0xa8(sp)
   1a6d0: ef b0 cf b9  	jal	0x15a6c <__retarget_lock_close_recursive>
   1a6d4: 83 30 81 4e  	ld	ra, 0x4e8(sp)
   1a6d8: 03 34 01 4e  	ld	s0, 0x4e0(sp)
   1a6dc: 03 39 01 4d  	ld	s2, 0x4d0(sp)
   1a6e0: 83 39 81 4c  	ld	s3, 0x4c8(sp)
   1a6e4: 26 85        	mv	a0, s1
   1a6e6: 83 34 81 4d  	ld	s1, 0x4d8(sp)
   1a6ea: 13 01 01 4f  	addi	sp, sp, 0x4f0
   1a6ee: 82 80        	ret
   1a6f0: 2c 00        	addi	a1, sp, 0x8
   1a6f2: 4a 85        	mv	a0, s2
   1a6f4: ef 80 ef f3  	jal	0x12e32 <_fflush_r>
   1a6f8: 61 d1        	beqz	a0, 0x1a6b8 <__sbprintf+0x6c>
   1a6fa: fd 54        	li	s1, -0x1
   1a6fc: 75 bf        	j	0x1a6b8 <__sbprintf+0x6c>

000000000001a6fe <_write_r>:
   1a6fe: 41 11        	addi	sp, sp, -0x10
   1a700: 2e 87        	mv	a4, a1
   1a702: 22 e0        	sd	s0, 0x0(sp)
   1a704: b2 85        	mv	a1, a2
   1a706: 2a 84        	mv	s0, a0
   1a708: 36 86        	mv	a2, a3
   1a70a: 3a 85        	mv	a0, a4
   1a70c: 23 a4 01 78  	sw	zero, 0x788(gp)
   1a710: 06 e4        	sd	ra, 0x8(sp)
   1a712: ef 20 50 08  	jal	0x1cf96 <_write>
   1a716: fd 57        	li	a5, -0x1
   1a718: 63 06 f5 00  	beq	a0, a5, 0x1a724 <_write_r+0x26>
   1a71c: a2 60        	ld	ra, 0x8(sp)
   1a71e: 02 64        	ld	s0, 0x0(sp)
   1a720: 41 01        	addi	sp, sp, 0x10
   1a722: 82 80        	ret
   1a724: 83 a7 81 78  	lw	a5, 0x788(gp)
   1a728: f5 db        	beqz	a5, 0x1a71c <_write_r+0x1e>
   1a72a: a2 60        	ld	ra, 0x8(sp)
   1a72c: 1c c0        	sw	a5, 0x0(s0)
   1a72e: 02 64        	ld	s0, 0x0(sp)
   1a730: 41 01        	addi	sp, sp, 0x10
   1a732: 82 80        	ret

000000000001a734 <__register_exitproc>:
   1a734: 79 71        	addi	sp, sp, -0x30
   1a736: 4a e8        	sd	s2, 0x10(sp)
   1a738: 13 89 01 71  	addi	s2, gp, 0x710
   1a73c: 22 f0        	sd	s0, 0x20(sp)
   1a73e: 2a 84        	mv	s0, a0
   1a740: 03 35 09 00  	ld	a0, 0x0(s2)
   1a744: 26 ec        	sd	s1, 0x18(sp)
   1a746: 4e e4        	sd	s3, 0x8(sp)
   1a748: 52 e0        	sd	s4, 0x0(sp)
   1a74a: 06 f4        	sd	ra, 0x28(sp)
   1a74c: ae 84        	mv	s1, a1
   1a74e: 32 8a        	mv	s4, a2
   1a750: b6 89        	mv	s3, a3
   1a752: ef b0 ef b1  	jal	0x15a70 <__retarget_lock_acquire_recursive>
   1a756: 03 b7 81 6f  	ld	a4, 0x6f8(gp)
   1a75a: 83 37 87 1f  	ld	a5, 0x1f8(a4)
   1a75e: ad c3        	beqz	a5, 0x1a7c0 <__register_exitproc+0x8c>
   1a760: 98 47        	lw	a4, 0x8(a5)
   1a762: fd 45        	li	a1, 0x1f
   1a764: 03 35 09 00  	ld	a0, 0x0(s2)
   1a768: 63 c1 e5 06  	blt	a1, a4, 0x1a7ca <__register_exitproc+0x96>
   1a76c: 15 e0        	bnez	s0, 0x1a790 <__register_exitproc+0x5c>
   1a76e: 93 16 37 00  	slli	a3, a4, 0x3
   1a772: 05 27        	addiw	a4, a4, 0x1
   1a774: be 96        	add	a3, a3, a5
   1a776: 98 c7        	sw	a4, 0x8(a5)
   1a778: 84 ea        	sd	s1, 0x10(a3)
   1a77a: ef b0 2f b0  	jal	0x15a7c <__retarget_lock_release_recursive>
   1a77e: 01 45        	li	a0, 0x0
   1a780: a2 70        	ld	ra, 0x28(sp)
   1a782: 02 74        	ld	s0, 0x20(sp)
   1a784: e2 64        	ld	s1, 0x18(sp)
   1a786: 42 69        	ld	s2, 0x10(sp)
   1a788: a2 69        	ld	s3, 0x8(sp)
   1a78a: 02 6a        	ld	s4, 0x0(sp)
   1a78c: 45 61        	addi	sp, sp, 0x30
   1a78e: 82 80        	ret
   1a790: 93 15 37 00  	slli	a1, a4, 0x3
   1a794: be 95        	add	a1, a1, a5
   1a796: 23 b8 45 11  	sd	s4, 0x110(a1)
   1a79a: 83 a6 07 31  	lw	a3, 0x310(a5)
   1a79e: 05 46        	li	a2, 0x1
   1a7a0: 3b 16 e6 00  	sllw	a2, a2, a4
   1a7a4: d1 8e        	or	a3, a3, a2
   1a7a6: 23 a8 d7 30  	sw	a3, 0x310(a5)
   1a7aa: 23 b8 35 21  	sd	s3, 0x210(a1)
   1a7ae: 89 46        	li	a3, 0x2
   1a7b0: e3 1f d4 fa  	bne	s0, a3, 0x1a76e <__register_exitproc+0x3a>
   1a7b4: 83 a6 47 31  	lw	a3, 0x314(a5)
   1a7b8: 55 8e        	or	a2, a2, a3
   1a7ba: 23 aa c7 30  	sw	a2, 0x314(a5)
   1a7be: 45 bf        	j	0x1a76e <__register_exitproc+0x3a>
   1a7c0: 93 07 07 20  	addi	a5, a4, 0x200
   1a7c4: 23 3c f7 1e  	sd	a5, 0x1f8(a4)
   1a7c8: 61 bf        	j	0x1a760 <__register_exitproc+0x2c>
   1a7ca: ef b0 2f ab  	jal	0x15a7c <__retarget_lock_release_recursive>
   1a7ce: 7d 55        	li	a0, -0x1
   1a7d0: 45 bf        	j	0x1a780 <__register_exitproc+0x4c>

000000000001a7d2 <__assert_func>:
   1a7d2: 83 b7 81 70  	ld	a5, 0x708(gp)
   1a7d6: 41 11        	addi	sp, sp, -0x10
   1a7d8: 32 88        	mv	a6, a2
   1a7da: 06 e4        	sd	ra, 0x8(sp)
   1a7dc: 36 86        	mv	a2, a3
   1a7de: 2e 87        	mv	a4, a1
   1a7e0: aa 86        	mv	a3, a0
   1a7e2: 88 6f        	ld	a0, 0x18(a5)
   1a7e4: 97 47 00 00  	auipc	a5, 0x4
   1a7e8: 93 87 47 d8  	addi	a5, a5, -0x27c
   1a7ec: 63 0a 08 00  	beqz	a6, 0x1a800 <__assert_func+0x2e>
   1a7f0: 97 45 00 00  	auipc	a1, 0x4
   1a7f4: 93 85 85 d8  	addi	a1, a1, -0x278
   1a7f8: ef 00 40 20  	jal	0x1a9fc <fiprintf>
   1a7fc: ef 20 a0 22  	jal	0x1ca26 <abort>
   1a800: 97 47 00 00  	auipc	a5, 0x4
   1a804: 93 87 87 cc  	addi	a5, a5, -0x338
   1a808: 3e 88        	mv	a6, a5
   1a80a: dd b7        	j	0x1a7f0 <__assert_func+0x1e>

000000000001a80c <__assert>:
   1a80c: 41 11        	addi	sp, sp, -0x10
   1a80e: b2 86        	mv	a3, a2
   1a810: 01 46        	li	a2, 0x0
   1a812: 06 e4        	sd	ra, 0x8(sp)
   1a814: ef f0 ff fb  	jal	0x1a7d2 <__assert_func>

000000000001a818 <_calloc_r>:
   1a818: b3 85 c5 02  	mul	a1, a1, a2
   1a81c: 41 11        	addi	sp, sp, -0x10
   1a81e: 22 e0        	sd	s0, 0x0(sp)
   1a820: 06 e4        	sd	ra, 0x8(sp)
   1a822: ef b0 6f bf  	jal	0x15c18 <_malloc_r>
   1a826: 2a 84        	mv	s0, a0
   1a828: 21 c5        	beqz	a0, 0x1a870 <_calloc_r+0x58>
   1a82a: 03 36 85 ff  	ld	a2, -0x8(a0)
   1a82e: 13 07 80 04  	li	a4, 0x48
   1a832: 71 9a        	andi	a2, a2, -0x4
   1a834: 61 16        	addi	a2, a2, -0x8
   1a836: 63 62 c7 04  	bltu	a4, a2, 0x1a87a <_calloc_r+0x62>
   1a83a: 93 06 70 02  	li	a3, 0x27
   1a83e: aa 87        	mv	a5, a0
   1a840: 63 f2 c6 02  	bgeu	a3, a2, 0x1a864 <_calloc_r+0x4c>
   1a844: 23 30 05 00  	sd	zero, 0x0(a0)
   1a848: 23 34 05 00  	sd	zero, 0x8(a0)
   1a84c: 93 07 70 03  	li	a5, 0x37
   1a850: 63 fd c7 02  	bgeu	a5, a2, 0x1a88a <_calloc_r+0x72>
   1a854: 23 38 05 00  	sd	zero, 0x10(a0)
   1a858: 23 3c 05 00  	sd	zero, 0x18(a0)
   1a85c: 93 07 05 02  	addi	a5, a0, 0x20
   1a860: 63 0e e6 02  	beq	a2, a4, 0x1a89c <_calloc_r+0x84>
   1a864: 23 b0 07 00  	sd	zero, 0x0(a5)
   1a868: 23 b4 07 00  	sd	zero, 0x8(a5)
   1a86c: 23 b8 07 00  	sd	zero, 0x10(a5)
   1a870: a2 60        	ld	ra, 0x8(sp)
   1a872: 22 85        	mv	a0, s0
   1a874: 02 64        	ld	s0, 0x0(sp)
   1a876: 41 01        	addi	sp, sp, 0x10
   1a878: 82 80        	ret
   1a87a: 81 45        	li	a1, 0x0
   1a87c: ef 50 5f df  	jal	0x10670 <memset>
   1a880: a2 60        	ld	ra, 0x8(sp)
   1a882: 22 85        	mv	a0, s0
   1a884: 02 64        	ld	s0, 0x0(sp)
   1a886: 41 01        	addi	sp, sp, 0x10
   1a888: 82 80        	ret
   1a88a: 93 07 05 01  	addi	a5, a0, 0x10
   1a88e: 23 b0 07 00  	sd	zero, 0x0(a5)
   1a892: 23 b4 07 00  	sd	zero, 0x8(a5)
   1a896: 23 b8 07 00  	sd	zero, 0x10(a5)
   1a89a: d9 bf        	j	0x1a870 <_calloc_r+0x58>
   1a89c: 23 30 05 02  	sd	zero, 0x20(a0)
   1a8a0: 23 34 05 02  	sd	zero, 0x28(a0)
   1a8a4: 93 07 05 03  	addi	a5, a0, 0x30
   1a8a8: 75 bf        	j	0x1a864 <_calloc_r+0x4c>

000000000001a8aa <_close_r>:
   1a8aa: 41 11        	addi	sp, sp, -0x10
   1a8ac: 22 e0        	sd	s0, 0x0(sp)
   1a8ae: 2a 84        	mv	s0, a0
   1a8b0: 2e 85        	mv	a0, a1
   1a8b2: 23 a4 01 78  	sw	zero, 0x788(gp)
   1a8b6: 06 e4        	sd	ra, 0x8(sp)
   1a8b8: ef 20 20 4f  	jal	0x1cdaa <_close>
   1a8bc: fd 57        	li	a5, -0x1
   1a8be: 63 06 f5 00  	beq	a0, a5, 0x1a8ca <_close_r+0x20>
   1a8c2: a2 60        	ld	ra, 0x8(sp)
   1a8c4: 02 64        	ld	s0, 0x0(sp)
   1a8c6: 41 01        	addi	sp, sp, 0x10
   1a8c8: 82 80        	ret
   1a8ca: 83 a7 81 78  	lw	a5, 0x788(gp)
   1a8ce: f5 db        	beqz	a5, 0x1a8c2 <_close_r+0x18>
   1a8d0: a2 60        	ld	ra, 0x8(sp)
   1a8d2: 1c c0        	sw	a5, 0x0(s0)
   1a8d4: 02 64        	ld	s0, 0x0(sp)
   1a8d6: 41 01        	addi	sp, sp, 0x10
   1a8d8: 82 80        	ret

000000000001a8da <_fclose_r>:
   1a8da: 01 11        	addi	sp, sp, -0x20
   1a8dc: 06 ec        	sd	ra, 0x18(sp)
   1a8de: 4a e0        	sd	s2, 0x0(sp)
   1a8e0: d9 c9        	beqz	a1, 0x1a976 <_fclose_r+0x9c>
   1a8e2: 22 e8        	sd	s0, 0x10(sp)
   1a8e4: 26 e4        	sd	s1, 0x8(sp)
   1a8e6: 2e 84        	mv	s0, a1
   1a8e8: aa 84        	mv	s1, a0
   1a8ea: 19 c1        	beqz	a0, 0x1a8f0 <_fclose_r+0x16>
   1a8ec: 3c 49        	lw	a5, 0x50(a0)
   1a8ee: d1 cb        	beqz	a5, 0x1a982 <_fclose_r+0xa8>
   1a8f0: 83 27 04 0b  	lw	a5, 0xb0(s0)
   1a8f4: 03 17 04 01  	lh	a4, 0x10(s0)
   1a8f8: 85 8b        	andi	a5, a5, 0x1
   1a8fa: bd eb        	bnez	a5, 0x1a970 <_fclose_r+0x96>
   1a8fc: 13 77 07 20  	andi	a4, a4, 0x200
   1a900: 4d c7        	beqz	a4, 0x1a9aa <_fclose_r+0xd0>
   1a902: a2 85        	mv	a1, s0
   1a904: 26 85        	mv	a0, s1
   1a906: ef 80 4f b9  	jal	0x12c9a <__sflush_r>
   1a90a: 3c 68        	ld	a5, 0x50(s0)
   1a90c: 2a 89        	mv	s2, a0
   1a90e: 91 c7        	beqz	a5, 0x1a91a <_fclose_r+0x40>
   1a910: 0c 78        	ld	a1, 0x30(s0)
   1a912: 26 85        	mv	a0, s1
   1a914: 82 97        	jalr	a5
   1a916: 63 4f 05 06  	bltz	a0, 0x1a994 <_fclose_r+0xba>
   1a91a: 83 57 04 01  	lhu	a5, 0x10(s0)
   1a91e: 93 f7 07 08  	andi	a5, a5, 0x80
   1a922: bd ef        	bnez	a5, 0x1a9a0 <_fclose_r+0xc6>
   1a924: 2c 6c        	ld	a1, 0x58(s0)
   1a926: 91 c9        	beqz	a1, 0x1a93a <_fclose_r+0x60>
   1a928: 93 07 44 07  	addi	a5, s0, 0x74
   1a92c: 63 85 f5 00  	beq	a1, a5, 0x1a936 <_fclose_r+0x5c>
   1a930: 26 85        	mv	a0, s1
   1a932: ef 80 df a6  	jal	0x1339e <_free_r>
   1a936: 23 3c 04 04  	sd	zero, 0x58(s0)
   1a93a: 2c 7c        	ld	a1, 0x78(s0)
   1a93c: 91 c5        	beqz	a1, 0x1a948 <_fclose_r+0x6e>
   1a93e: 26 85        	mv	a0, s1
   1a940: ef 80 ff a5  	jal	0x1339e <_free_r>
   1a944: 23 3c 04 06  	sd	zero, 0x78(s0)
   1a948: ef 80 7f 8e  	jal	0x1322e <__sfp_lock_acquire>
   1a94c: 83 27 04 0b  	lw	a5, 0xb0(s0)
   1a950: 23 18 04 00  	sh	zero, 0x10(s0)
   1a954: 85 8b        	andi	a5, a5, 0x1
   1a956: b5 cb        	beqz	a5, 0x1a9ca <_fclose_r+0xf0>
   1a958: 48 70        	ld	a0, 0xa0(s0)
   1a95a: ef b0 2f 91  	jal	0x15a6c <__retarget_lock_close_recursive>
   1a95e: ef 80 9f 8d  	jal	0x13236 <__sfp_lock_release>
   1a962: e2 60        	ld	ra, 0x18(sp)
   1a964: 42 64        	ld	s0, 0x10(sp)
   1a966: a2 64        	ld	s1, 0x8(sp)
   1a968: 4a 85        	mv	a0, s2
   1a96a: 02 69        	ld	s2, 0x0(sp)
   1a96c: 05 61        	addi	sp, sp, 0x20
   1a96e: 82 80        	ret
   1a970: 49 fb        	bnez	a4, 0x1a902 <_fclose_r+0x28>
   1a972: 42 64        	ld	s0, 0x10(sp)
   1a974: a2 64        	ld	s1, 0x8(sp)
   1a976: e2 60        	ld	ra, 0x18(sp)
   1a978: 01 49        	li	s2, 0x0
   1a97a: 4a 85        	mv	a0, s2
   1a97c: 02 69        	ld	s2, 0x0(sp)
   1a97e: 05 61        	addi	sp, sp, 0x20
   1a980: 82 80        	ret
   1a982: ef 80 ef e6  	jal	0x12ff0 <__sinit>
   1a986: 83 27 04 0b  	lw	a5, 0xb0(s0)
   1a98a: 03 17 04 01  	lh	a4, 0x10(s0)
   1a98e: 85 8b        	andi	a5, a5, 0x1
   1a990: e5 f3        	bnez	a5, 0x1a970 <_fclose_r+0x96>
   1a992: ad b7        	j	0x1a8fc <_fclose_r+0x22>
   1a994: 83 57 04 01  	lhu	a5, 0x10(s0)
   1a998: 7d 59        	li	s2, -0x1
   1a99a: 93 f7 07 08  	andi	a5, a5, 0x80
   1a99e: d9 d3        	beqz	a5, 0x1a924 <_fclose_r+0x4a>
   1a9a0: 0c 6c        	ld	a1, 0x18(s0)
   1a9a2: 26 85        	mv	a0, s1
   1a9a4: ef 80 bf 9f  	jal	0x1339e <_free_r>
   1a9a8: b5 bf        	j	0x1a924 <_fclose_r+0x4a>
   1a9aa: 48 70        	ld	a0, 0xa0(s0)
   1a9ac: ef b0 4f 8c  	jal	0x15a70 <__retarget_lock_acquire_recursive>
   1a9b0: 83 17 04 01  	lh	a5, 0x10(s0)
   1a9b4: b9 f7        	bnez	a5, 0x1a902 <_fclose_r+0x28>
   1a9b6: 83 27 04 0b  	lw	a5, 0xb0(s0)
   1a9ba: 85 8b        	andi	a5, a5, 0x1
   1a9bc: dd fb        	bnez	a5, 0x1a972 <_fclose_r+0x98>
   1a9be: 48 70        	ld	a0, 0xa0(s0)
   1a9c0: ef b0 cf 8b  	jal	0x15a7c <__retarget_lock_release_recursive>
   1a9c4: 42 64        	ld	s0, 0x10(sp)
   1a9c6: a2 64        	ld	s1, 0x8(sp)
   1a9c8: 7d b7        	j	0x1a976 <_fclose_r+0x9c>
   1a9ca: 48 70        	ld	a0, 0xa0(s0)
   1a9cc: ef b0 0f 8b  	jal	0x15a7c <__retarget_lock_release_recursive>
   1a9d0: 61 b7        	j	0x1a958 <_fclose_r+0x7e>

000000000001a9d2 <fclose>:
   1a9d2: aa 85        	mv	a1, a0
   1a9d4: 03 b5 81 70  	ld	a0, 0x708(gp)
   1a9d8: 6f f0 3f f0  	j	0x1a8da <_fclose_r>

000000000001a9dc <_fiprintf_r>:
   1a9dc: 5d 71        	addi	sp, sp, -0x50
   1a9de: 13 03 81 02  	addi	t1, sp, 0x28
   1a9e2: 36 f4        	sd	a3, 0x28(sp)
   1a9e4: 9a 86        	mv	a3, t1
   1a9e6: 06 ec        	sd	ra, 0x18(sp)
   1a9e8: 3a f8        	sd	a4, 0x30(sp)
   1a9ea: 3e fc        	sd	a5, 0x38(sp)
   1a9ec: c2 e0        	sd	a6, 0x40(sp)
   1a9ee: c6 e4        	sd	a7, 0x48(sp)
   1a9f0: 1a e4        	sd	t1, 0x8(sp)
   1a9f2: ef e0 1f c7  	jal	0x19662 <_vfiprintf_r>
   1a9f6: e2 60        	ld	ra, 0x18(sp)
   1a9f8: 61 61        	addi	sp, sp, 0x50
   1a9fa: 82 80        	ret

000000000001a9fc <fiprintf>:
   1a9fc: 5d 71        	addi	sp, sp, -0x50
   1a9fe: aa 8e        	mv	t4, a0
   1aa00: 03 b5 81 70  	ld	a0, 0x708(gp)
   1aa04: 13 03 01 02  	addi	t1, sp, 0x20
   1aa08: 2e 8e        	mv	t3, a1
   1aa0a: 32 f0        	sd	a2, 0x20(sp)
   1aa0c: 36 f4        	sd	a3, 0x28(sp)
   1aa0e: f6 85        	mv	a1, t4
   1aa10: 72 86        	mv	a2, t3
   1aa12: 9a 86        	mv	a3, t1
   1aa14: 06 ec        	sd	ra, 0x18(sp)
   1aa16: 3a f8        	sd	a4, 0x30(sp)
   1aa18: 3e fc        	sd	a5, 0x38(sp)
   1aa1a: c2 e0        	sd	a6, 0x40(sp)
   1aa1c: c6 e4        	sd	a7, 0x48(sp)
   1aa1e: 1a e4        	sd	t1, 0x8(sp)
   1aa20: ef e0 3f c4  	jal	0x19662 <_vfiprintf_r>
   1aa24: e2 60        	ld	ra, 0x18(sp)
   1aa26: 61 61        	addi	sp, sp, 0x50
   1aa28: 82 80        	ret

000000000001aa2a <__fputwc>:
   1aa2a: 79 71        	addi	sp, sp, -0x30
   1aa2c: 22 f0        	sd	s0, 0x20(sp)
   1aa2e: 26 ec        	sd	s1, 0x18(sp)
   1aa30: 4a e8        	sd	s2, 0x10(sp)
   1aa32: 06 f4        	sd	ra, 0x28(sp)
   1aa34: 2a 89        	mv	s2, a0
   1aa36: ae 84        	mv	s1, a1
   1aa38: 32 84        	mv	s0, a2
   1aa3a: ef 00 20 5d  	jal	0x1b00c <__locale_mb_cur_max>
   1aa3e: 85 47        	li	a5, 0x1
   1aa40: 63 14 f5 04  	bne	a0, a5, 0x1aa88 <__fputwc+0x5e>
   1aa44: 9b 87 f4 ff  	addiw	a5, s1, -0x1
   1aa48: 13 07 e0 0f  	li	a4, 0xfe
   1aa4c: 63 6e f7 02  	bltu	a4, a5, 0x1aa88 <__fputwc+0x5e>
   1aa50: 5c 44        	lw	a5, 0xc(s0)
   1aa52: 23 04 91 00  	sb	s1, 0x8(sp)
   1aa56: 83 45 81 00  	lbu	a1, 0x8(sp)
   1aa5a: fd 37        	addiw	a5, a5, -0x1
   1aa5c: 5c c4        	sw	a5, 0xc(s0)
   1aa5e: 63 d8 07 00  	bgez	a5, 0x1aa6e <__fputwc+0x44>
   1aa62: 18 54        	lw	a4, 0x28(s0)
   1aa64: 63 cb e7 04  	blt	a5, a4, 0x1aaba <__fputwc+0x90>
   1aa68: a9 47        	li	a5, 0xa
   1aa6a: 63 88 f5 04  	beq	a1, a5, 0x1aaba <__fputwc+0x90>
   1aa6e: 1c 60        	ld	a5, 0x0(s0)
   1aa70: 13 87 17 00  	addi	a4, a5, 0x1
   1aa74: 18 e0        	sd	a4, 0x0(s0)
   1aa76: 23 80 b7 00  	sb	a1, 0x0(a5)
   1aa7a: a2 70        	ld	ra, 0x28(sp)
   1aa7c: 02 74        	ld	s0, 0x20(sp)
   1aa7e: 42 69        	ld	s2, 0x10(sp)
   1aa80: 26 85        	mv	a0, s1
   1aa82: e2 64        	ld	s1, 0x18(sp)
   1aa84: 45 61        	addi	sp, sp, 0x30
   1aa86: 82 80        	ret
   1aa88: 93 06 84 0a  	addi	a3, s0, 0xa8
   1aa8c: 26 86        	mv	a2, s1
   1aa8e: 2c 00        	addi	a1, sp, 0x8
   1aa90: 4a 85        	mv	a0, s2
   1aa92: ef 10 90 6d  	jal	0x1c96a <_wcrtomb_r>
   1aa96: fd 57        	li	a5, -0x1
   1aa98: 63 0f f5 02  	beq	a0, a5, 0x1aad6 <__fputwc+0xac>
   1aa9c: 79 dd        	beqz	a0, 0x1aa7a <__fputwc+0x50>
   1aa9e: 5c 44        	lw	a5, 0xc(s0)
   1aaa0: 83 45 81 00  	lbu	a1, 0x8(sp)
   1aaa4: fd 37        	addiw	a5, a5, -0x1
   1aaa6: 5c c4        	sw	a5, 0xc(s0)
   1aaa8: e3 cd 07 fa  	bltz	a5, 0x1aa62 <__fputwc+0x38>
   1aaac: 1c 60        	ld	a5, 0x0(s0)
   1aaae: 13 87 17 00  	addi	a4, a5, 0x1
   1aab2: 18 e0        	sd	a4, 0x0(s0)
   1aab4: 23 80 b7 00  	sb	a1, 0x0(a5)
   1aab8: c9 b7        	j	0x1aa7a <__fputwc+0x50>
   1aaba: 22 86        	mv	a2, s0
   1aabc: 4a 85        	mv	a0, s2
   1aabe: ef 10 b0 59  	jal	0x1c858 <__swbuf_r>
   1aac2: fd 57        	li	a5, -0x1
   1aac4: e3 1b f5 fa  	bne	a0, a5, 0x1aa7a <__fputwc+0x50>
   1aac8: 7d 55        	li	a0, -0x1
   1aaca: a2 70        	ld	ra, 0x28(sp)
   1aacc: 02 74        	ld	s0, 0x20(sp)
   1aace: e2 64        	ld	s1, 0x18(sp)
   1aad0: 42 69        	ld	s2, 0x10(sp)
   1aad2: 45 61        	addi	sp, sp, 0x30
   1aad4: 82 80        	ret
   1aad6: 83 57 04 01  	lhu	a5, 0x10(s0)
   1aada: 7d 55        	li	a0, -0x1
   1aadc: 93 e7 07 04  	ori	a5, a5, 0x40
   1aae0: 23 18 f4 00  	sh	a5, 0x10(s0)
   1aae4: dd b7        	j	0x1aaca <__fputwc+0xa0>

000000000001aae6 <_fputwc_r>:
   1aae6: 83 27 06 0b  	lw	a5, 0xb0(a2)
   1aaea: 79 71        	addi	sp, sp, -0x30
   1aaec: 22 f0        	sd	s0, 0x20(sp)
   1aaee: 26 ec        	sd	s1, 0x18(sp)
   1aaf0: 13 f7 17 00  	andi	a4, a5, 0x1
   1aaf4: 06 f4        	sd	ra, 0x28(sp)
   1aaf6: 83 17 06 01  	lh	a5, 0x10(a2)
   1aafa: 32 84        	mv	s0, a2
   1aafc: aa 84        	mv	s1, a0
   1aafe: 01 e7        	bnez	a4, 0x1ab06 <_fputwc_r+0x20>
   1ab00: 13 f7 07 20  	andi	a4, a5, 0x200
   1ab04: 21 cf        	beqz	a4, 0x1ab5c <_fputwc_r+0x76>
   1ab06: 13 97 27 03  	slli	a4, a5, 0x32
   1ab0a: 89 66        	lui	a3, 0x2
   1ab0c: 63 4b 07 00  	bltz	a4, 0x1ab22 <_fputwc_r+0x3c>
   1ab10: 03 27 04 0b  	lw	a4, 0xb0(s0)
   1ab14: d5 8f        	or	a5, a5, a3
   1ab16: 23 18 f4 00  	sh	a5, 0x10(s0)
   1ab1a: b3 67 d7 00  	or	a5, a4, a3
   1ab1e: 23 28 f4 0a  	sw	a5, 0xb0(s0)
   1ab22: 26 85        	mv	a0, s1
   1ab24: 22 86        	mv	a2, s0
   1ab26: ef f0 5f f0  	jal	0x1aa2a <__fputwc>
   1ab2a: 83 27 04 0b  	lw	a5, 0xb0(s0)
   1ab2e: aa 84        	mv	s1, a0
   1ab30: 85 8b        	andi	a5, a5, 0x1
   1ab32: 91 e7        	bnez	a5, 0x1ab3e <_fputwc_r+0x58>
   1ab34: 83 57 04 01  	lhu	a5, 0x10(s0)
   1ab38: 93 f7 07 20  	andi	a5, a5, 0x200
   1ab3c: 99 c7        	beqz	a5, 0x1ab4a <_fputwc_r+0x64>
   1ab3e: a2 70        	ld	ra, 0x28(sp)
   1ab40: 02 74        	ld	s0, 0x20(sp)
   1ab42: 26 85        	mv	a0, s1
   1ab44: e2 64        	ld	s1, 0x18(sp)
   1ab46: 45 61        	addi	sp, sp, 0x30
   1ab48: 82 80        	ret
   1ab4a: 48 70        	ld	a0, 0xa0(s0)
   1ab4c: ef a0 1f f3  	jal	0x15a7c <__retarget_lock_release_recursive>
   1ab50: a2 70        	ld	ra, 0x28(sp)
   1ab52: 02 74        	ld	s0, 0x20(sp)
   1ab54: 26 85        	mv	a0, s1
   1ab56: e2 64        	ld	s1, 0x18(sp)
   1ab58: 45 61        	addi	sp, sp, 0x30
   1ab5a: 82 80        	ret
   1ab5c: 48 72        	ld	a0, 0xa0(a2)
   1ab5e: 2e e4        	sd	a1, 0x8(sp)
   1ab60: ef a0 1f f1  	jal	0x15a70 <__retarget_lock_acquire_recursive>
   1ab64: 83 17 04 01  	lh	a5, 0x10(s0)
   1ab68: a2 65        	ld	a1, 0x8(sp)
   1ab6a: 71 bf        	j	0x1ab06 <_fputwc_r+0x20>

000000000001ab6c <fputwc>:
   1ab6c: 79 71        	addi	sp, sp, -0x30
   1ab6e: 26 ec        	sd	s1, 0x18(sp)
   1ab70: 83 b4 81 70  	ld	s1, 0x708(gp)
   1ab74: 22 f0        	sd	s0, 0x20(sp)
   1ab76: 06 f4        	sd	ra, 0x28(sp)
   1ab78: 2e 84        	mv	s0, a1
   1ab7a: aa 85        	mv	a1, a0
   1ab7c: 99 c0        	beqz	s1, 0x1ab82 <fputwc+0x16>
   1ab7e: bc 48        	lw	a5, 0x50(s1)
   1ab80: a1 cf        	beqz	a5, 0x1abd8 <fputwc+0x6c>
   1ab82: 03 27 04 0b  	lw	a4, 0xb0(s0)
   1ab86: 83 17 04 01  	lh	a5, 0x10(s0)
   1ab8a: 05 8b        	andi	a4, a4, 0x1
   1ab8c: 01 e7        	bnez	a4, 0x1ab94 <fputwc+0x28>
   1ab8e: 13 f7 07 20  	andi	a4, a5, 0x200
   1ab92: 35 c3        	beqz	a4, 0x1abf6 <fputwc+0x8a>
   1ab94: 13 97 27 03  	slli	a4, a5, 0x32
   1ab98: 89 66        	lui	a3, 0x2
   1ab9a: 63 4b 07 00  	bltz	a4, 0x1abb0 <fputwc+0x44>
   1ab9e: 03 27 04 0b  	lw	a4, 0xb0(s0)
   1aba2: d5 8f        	or	a5, a5, a3
   1aba4: 23 18 f4 00  	sh	a5, 0x10(s0)
   1aba8: b3 67 d7 00  	or	a5, a4, a3
   1abac: 23 28 f4 0a  	sw	a5, 0xb0(s0)
   1abb0: 26 85        	mv	a0, s1
   1abb2: 22 86        	mv	a2, s0
   1abb4: ef f0 7f e7  	jal	0x1aa2a <__fputwc>
   1abb8: 83 27 04 0b  	lw	a5, 0xb0(s0)
   1abbc: aa 84        	mv	s1, a0
   1abbe: 85 8b        	andi	a5, a5, 0x1
   1abc0: 91 e7        	bnez	a5, 0x1abcc <fputwc+0x60>
   1abc2: 83 57 04 01  	lhu	a5, 0x10(s0)
   1abc6: 93 f7 07 20  	andi	a5, a5, 0x200
   1abca: 89 cf        	beqz	a5, 0x1abe4 <fputwc+0x78>
   1abcc: a2 70        	ld	ra, 0x28(sp)
   1abce: 02 74        	ld	s0, 0x20(sp)
   1abd0: 26 85        	mv	a0, s1
   1abd2: e2 64        	ld	s1, 0x18(sp)
   1abd4: 45 61        	addi	sp, sp, 0x30
   1abd6: 82 80        	ret
   1abd8: 2a e4        	sd	a0, 0x8(sp)
   1abda: 26 85        	mv	a0, s1
   1abdc: ef 80 4f c1  	jal	0x12ff0 <__sinit>
   1abe0: a2 65        	ld	a1, 0x8(sp)
   1abe2: 45 b7        	j	0x1ab82 <fputwc+0x16>
   1abe4: 48 70        	ld	a0, 0xa0(s0)
   1abe6: ef a0 7f e9  	jal	0x15a7c <__retarget_lock_release_recursive>
   1abea: a2 70        	ld	ra, 0x28(sp)
   1abec: 02 74        	ld	s0, 0x20(sp)
   1abee: 26 85        	mv	a0, s1
   1abf0: e2 64        	ld	s1, 0x18(sp)
   1abf2: 45 61        	addi	sp, sp, 0x30
   1abf4: 82 80        	ret
   1abf6: 48 70        	ld	a0, 0xa0(s0)
   1abf8: 2e e4        	sd	a1, 0x8(sp)
   1abfa: ef a0 7f e7  	jal	0x15a70 <__retarget_lock_acquire_recursive>
   1abfe: 83 17 04 01  	lh	a5, 0x10(s0)
   1ac02: a2 65        	ld	a1, 0x8(sp)
   1ac04: 41 bf        	j	0x1ab94 <fputwc+0x28>

000000000001ac06 <_fstat_r>:
   1ac06: 41 11        	addi	sp, sp, -0x10
   1ac08: 2e 87        	mv	a4, a1
   1ac0a: 22 e0        	sd	s0, 0x0(sp)
   1ac0c: b2 85        	mv	a1, a2
   1ac0e: 2a 84        	mv	s0, a0
   1ac10: 3a 85        	mv	a0, a4
   1ac12: 23 a4 01 78  	sw	zero, 0x788(gp)
   1ac16: 06 e4        	sd	ra, 0x8(sp)
   1ac18: ef 20 40 1f  	jal	0x1ce0c <_fstat>
   1ac1c: fd 57        	li	a5, -0x1
   1ac1e: 63 06 f5 00  	beq	a0, a5, 0x1ac2a <_fstat_r+0x24>
   1ac22: a2 60        	ld	ra, 0x8(sp)
   1ac24: 02 64        	ld	s0, 0x0(sp)
   1ac26: 41 01        	addi	sp, sp, 0x10
   1ac28: 82 80        	ret
   1ac2a: 83 a7 81 78  	lw	a5, 0x788(gp)
   1ac2e: f5 db        	beqz	a5, 0x1ac22 <_fstat_r+0x1c>
   1ac30: a2 60        	ld	ra, 0x8(sp)
   1ac32: 1c c0        	sw	a5, 0x0(s0)
   1ac34: 02 64        	ld	s0, 0x0(sp)
   1ac36: 41 01        	addi	sp, sp, 0x10
   1ac38: 82 80        	ret

000000000001ac3a <__sfvwrite_r>:
   1ac3a: 1c 6a        	ld	a5, 0x10(a2)
   1ac3c: 63 8d 07 18  	beqz	a5, 0x1add6 <__sfvwrite_r+0x19c>
   1ac40: 03 97 05 01  	lh	a4, 0x10(a1)
   1ac44: 1d 71        	addi	sp, sp, -0x60
   1ac46: a2 e8        	sd	s0, 0x50(sp)
   1ac48: 52 f8        	sd	s4, 0x30(sp)
   1ac4a: 5a f0        	sd	s6, 0x20(sp)
   1ac4c: 86 ec        	sd	ra, 0x58(sp)
   1ac4e: 93 77 87 00  	andi	a5, a4, 0x8
   1ac52: 32 8a        	mv	s4, a2
   1ac54: 2a 8b        	mv	s6, a0
   1ac56: 2e 84        	mv	s0, a1
   1ac58: a5 c7        	beqz	a5, 0x1acc0 <__sfvwrite_r+0x86>
   1ac5a: 9c 6d        	ld	a5, 0x18(a1)
   1ac5c: b5 c3        	beqz	a5, 0x1acc0 <__sfvwrite_r+0x86>
   1ac5e: a6 e4        	sd	s1, 0x48(sp)
   1ac60: ca e0        	sd	s2, 0x40(sp)
   1ac62: 4e fc        	sd	s3, 0x38(sp)
   1ac64: 56 f4        	sd	s5, 0x28(sp)
   1ac66: 93 77 27 00  	andi	a5, a4, 0x2
   1ac6a: 83 34 0a 00  	ld	s1, 0x0(s4)
   1ac6e: b5 cb        	beqz	a5, 0x1ace2 <__sfvwrite_r+0xa8>
   1ac70: b7 0a 00 80  	lui	s5, 0x80000
   1ac74: 93 ca 0a c0  	xori	s5, s5, -0x400
   1ac78: 81 49        	li	s3, 0x0
   1ac7a: 01 49        	li	s2, 0x0
   1ac7c: 4e 86        	mv	a2, s3
   1ac7e: 5a 85        	mv	a0, s6
   1ac80: 63 05 09 14  	beqz	s2, 0x1adca <__sfvwrite_r+0x190>
   1ac84: ca 86        	mv	a3, s2
   1ac86: 63 f3 2a 01  	bgeu	s5, s2, 0x1ac8c <__sfvwrite_r+0x52>
   1ac8a: d6 86        	mv	a3, s5
   1ac8c: 3c 60        	ld	a5, 0x40(s0)
   1ac8e: 0c 78        	ld	a1, 0x30(s0)
   1ac90: 81 26        	sext.w	a3, a3
   1ac92: 82 97        	jalr	a5
   1ac94: 63 5c a0 2c  	blez	a0, 0x1af6c <__sfvwrite_r+0x332>
   1ac98: 83 37 0a 01  	ld	a5, 0x10(s4)
   1ac9c: aa 99        	add	s3, s3, a0
   1ac9e: 33 09 a9 40  	sub	s2, s2, a0
   1aca2: 89 8f        	sub	a5, a5, a0
   1aca4: 23 38 fa 00  	sd	a5, 0x10(s4)
   1aca8: f1 fb        	bnez	a5, 0x1ac7c <__sfvwrite_r+0x42>
   1acaa: a6 64        	ld	s1, 0x48(sp)
   1acac: 06 69        	ld	s2, 0x40(sp)
   1acae: e2 79        	ld	s3, 0x38(sp)
   1acb0: a2 7a        	ld	s5, 0x28(sp)
   1acb2: 01 45        	li	a0, 0x0
   1acb4: e6 60        	ld	ra, 0x58(sp)
   1acb6: 46 64        	ld	s0, 0x50(sp)
   1acb8: 42 7a        	ld	s4, 0x30(sp)
   1acba: 02 7b        	ld	s6, 0x20(sp)
   1acbc: 25 61        	addi	sp, sp, 0x60
   1acbe: 82 80        	ret
   1acc0: a2 85        	mv	a1, s0
   1acc2: 5a 85        	mv	a0, s6
   1acc4: ef 70 5f dc  	jal	0x12a88 <__swsetup_r>
   1acc8: 63 16 05 1e  	bnez	a0, 0x1aeb4 <__sfvwrite_r+0x27a>
   1accc: 03 17 04 01  	lh	a4, 0x10(s0)
   1acd0: a6 e4        	sd	s1, 0x48(sp)
   1acd2: ca e0        	sd	s2, 0x40(sp)
   1acd4: 4e fc        	sd	s3, 0x38(sp)
   1acd6: 56 f4        	sd	s5, 0x28(sp)
   1acd8: 93 77 27 00  	andi	a5, a4, 0x2
   1acdc: 83 34 0a 00  	ld	s1, 0x0(s4)
   1ace0: c1 fb        	bnez	a5, 0x1ac70 <__sfvwrite_r+0x36>
   1ace2: 5e ec        	sd	s7, 0x18(sp)
   1ace4: 62 e8        	sd	s8, 0x10(sp)
   1ace6: 66 e4        	sd	s9, 0x8(sp)
   1ace8: 93 77 17 00  	andi	a5, a4, 0x1
   1acec: fd e7        	bnez	a5, 0x1adda <__sfvwrite_r+0x1a0>
   1acee: b7 0b 00 80  	lui	s7, 0x80000
   1acf2: 93 cb fb ff  	not	s7, s7
   1acf6: 01 4c        	li	s8, 0x0
   1acf8: 01 49        	li	s2, 0x0
   1acfa: 63 02 09 0c  	beqz	s2, 0x1adbe <__sfvwrite_r+0x184>
   1acfe: 93 77 07 20  	andi	a5, a4, 0x200
   1ad02: 83 2a c4 00  	lw	s5, 0xc(s0)
   1ad06: 08 60        	ld	a0, 0x0(s0)
   1ad08: 63 88 07 1a  	beqz	a5, 0x1aeb8 <__sfvwrite_r+0x27e>
   1ad0c: 63 6e 59 07  	bltu	s2, s5, 0x1ad88 <__sfvwrite_r+0x14e>
   1ad10: 93 77 07 48  	andi	a5, a4, 0x480
   1ad14: 63 81 07 22  	beqz	a5, 0x1af36 <__sfvwrite_r+0x2fc>
   1ad18: 14 50        	lw	a3, 0x20(s0)
   1ad1a: 0c 6c        	ld	a1, 0x18(s0)
   1ad1c: 9b 97 16 00  	slliw	a5, a3, 0x1
   1ad20: b5 9f        	addw	a5, a5, a3
   1ad22: 0d 8d        	sub	a0, a0, a1
   1ad24: 9b d9 f7 01  	srliw	s3, a5, 0x1f
   1ad28: 9b 0a 05 00  	sext.w	s5, a0
   1ad2c: bb 89 f9 00  	addw	s3, s3, a5
   1ad30: 93 87 1a 00  	addi	a5, s5, 0x1
   1ad34: 9b d9 19 40  	sraiw	s3, s3, 0x1
   1ad38: ca 97        	add	a5, a5, s2
   1ad3a: 63 f5 f9 00  	bgeu	s3, a5, 0x1ad44 <__sfvwrite_r+0x10a>
   1ad3e: 05 25        	addiw	a0, a0, 0x1
   1ad40: bb 09 25 01  	addw	s3, a0, s2
   1ad44: 13 77 07 40  	andi	a4, a4, 0x400
   1ad48: 63 09 07 1e  	beqz	a4, 0x1af3a <__sfvwrite_r+0x300>
   1ad4c: ce 85        	mv	a1, s3
   1ad4e: 5a 85        	mv	a0, s6
   1ad50: ef a0 9f ec  	jal	0x15c18 <_malloc_r>
   1ad54: aa 8c        	mv	s9, a0
   1ad56: 63 0e 05 20  	beqz	a0, 0x1af72 <__sfvwrite_r+0x338>
   1ad5a: 0c 6c        	ld	a1, 0x18(s0)
   1ad5c: 56 86        	mv	a2, s5
   1ad5e: ef 00 a0 38  	jal	0x1b0e8 <memcpy>
   1ad62: 83 57 04 01  	lhu	a5, 0x10(s0)
   1ad66: 93 f7 f7 b7  	andi	a5, a5, -0x481
   1ad6a: 93 e7 07 08  	ori	a5, a5, 0x80
   1ad6e: 23 18 f4 00  	sh	a5, 0x10(s0)
   1ad72: 33 85 5c 01  	add	a0, s9, s5
   1ad76: bb 8a 59 41  	subw	s5, s3, s5
   1ad7a: 23 3c 94 01  	sd	s9, 0x18(s0)
   1ad7e: 08 e0        	sd	a0, 0x0(s0)
   1ad80: 23 26 54 01  	sw	s5, 0xc(s0)
   1ad84: 23 20 34 03  	sw	s3, 0x20(s0)
   1ad88: ca 8c        	mv	s9, s2
   1ad8a: ca 8a        	mv	s5, s2
   1ad8c: 56 86        	mv	a2, s5
   1ad8e: e2 85        	mv	a1, s8
   1ad90: ef 00 60 41  	jal	0x1b1a6 <memmove>
   1ad94: 58 44        	lw	a4, 0xc(s0)
   1ad96: 1c 60        	ld	a5, 0x0(s0)
   1ad98: ca 89        	mv	s3, s2
   1ad9a: 3b 07 97 41  	subw	a4, a4, s9
   1ad9e: d6 97        	add	a5, a5, s5
   1ada0: 58 c4        	sw	a4, 0xc(s0)
   1ada2: 1c e0        	sd	a5, 0x0(s0)
   1ada4: 01 49        	li	s2, 0x0
   1ada6: 83 37 0a 01  	ld	a5, 0x10(s4)
   1adaa: 4e 9c        	add	s8, s8, s3
   1adac: b3 87 37 41  	sub	a5, a5, s3
   1adb0: 23 38 fa 00  	sd	a5, 0x10(s4)
   1adb4: c1 c7        	beqz	a5, 0x1ae3c <__sfvwrite_r+0x202>
   1adb6: 03 17 04 01  	lh	a4, 0x10(s0)
   1adba: e3 12 09 f4  	bnez	s2, 0x1acfe <__sfvwrite_r+0xc4>
   1adbe: 03 bc 04 00  	ld	s8, 0x0(s1)
   1adc2: 03 b9 84 00  	ld	s2, 0x8(s1)
   1adc6: c1 04        	addi	s1, s1, 0x10
   1adc8: 0d bf        	j	0x1acfa <__sfvwrite_r+0xc0>
   1adca: 83 b9 04 00  	ld	s3, 0x0(s1)
   1adce: 03 b9 84 00  	ld	s2, 0x8(s1)
   1add2: c1 04        	addi	s1, s1, 0x10
   1add4: 65 b5        	j	0x1ac7c <__sfvwrite_r+0x42>
   1add6: 01 45        	li	a0, 0x0
   1add8: 82 80        	ret
   1adda: 81 49        	li	s3, 0x0
   1addc: 01 45        	li	a0, 0x0
   1adde: 81 4c        	li	s9, 0x0
   1ade0: 01 4c        	li	s8, 0x0
   1ade2: 63 01 0c 06  	beqz	s8, 0x1ae44 <__sfvwrite_r+0x20a>
   1ade6: 3d c5        	beqz	a0, 0x1ae54 <__sfvwrite_r+0x21a>
   1ade8: ce 8b        	mv	s7, s3
   1adea: 63 73 3c 01  	bgeu	s8, s3, 0x1adf0 <__sfvwrite_r+0x1b6>
   1adee: e2 8b        	mv	s7, s8
   1adf0: 08 60        	ld	a0, 0x0(s0)
   1adf2: 1c 6c        	ld	a5, 0x18(s0)
   1adf4: 14 50        	lw	a3, 0x20(s0)
   1adf6: 5e 89        	mv	s2, s7
   1adf8: 63 f7 a7 00  	bgeu	a5, a0, 0x1ae06 <__sfvwrite_r+0x1cc>
   1adfc: 5c 44        	lw	a5, 0xc(s0)
   1adfe: bb 8a d7 00  	addw	s5, a5, a3
   1ae02: 63 c4 7a 07  	blt	s5, s7, 0x1ae6a <__sfvwrite_r+0x230>
   1ae06: 63 ca db 10  	blt	s7, a3, 0x1af1a <__sfvwrite_r+0x2e0>
   1ae0a: 3c 60        	ld	a5, 0x40(s0)
   1ae0c: 0c 78        	ld	a1, 0x30(s0)
   1ae0e: 66 86        	mv	a2, s9
   1ae10: 5a 85        	mv	a0, s6
   1ae12: 82 97        	jalr	a5
   1ae14: 2a 89        	mv	s2, a0
   1ae16: 63 52 a0 08  	blez	a0, 0x1ae9a <__sfvwrite_r+0x260>
   1ae1a: 9b 07 05 00  	sext.w	a5, a0
   1ae1e: bb 89 f9 40  	subw	s3, s3, a5
   1ae22: 05 45        	li	a0, 0x1
   1ae24: 63 86 09 06  	beqz	s3, 0x1ae90 <__sfvwrite_r+0x256>
   1ae28: 83 37 0a 01  	ld	a5, 0x10(s4)
   1ae2c: ca 9c        	add	s9, s9, s2
   1ae2e: 33 0c 2c 41  	sub	s8, s8, s2
   1ae32: b3 87 27 41  	sub	a5, a5, s2
   1ae36: 23 38 fa 00  	sd	a5, 0x10(s4)
   1ae3a: c5 f7        	bnez	a5, 0x1ade2 <__sfvwrite_r+0x1a8>
   1ae3c: e2 6b        	ld	s7, 0x18(sp)
   1ae3e: 42 6c        	ld	s8, 0x10(sp)
   1ae40: a2 6c        	ld	s9, 0x8(sp)
   1ae42: a5 b5        	j	0x1acaa <__sfvwrite_r+0x70>
   1ae44: 03 bc 84 00  	ld	s8, 0x8(s1)
   1ae48: a6 87        	mv	a5, s1
   1ae4a: c1 04        	addi	s1, s1, 0x10
   1ae4c: e3 0c 0c fe  	beqz	s8, 0x1ae44 <__sfvwrite_r+0x20a>
   1ae50: 83 bc 07 00  	ld	s9, 0x0(a5)
   1ae54: 62 86        	mv	a2, s8
   1ae56: a9 45        	li	a1, 0xa
   1ae58: 66 85        	mv	a0, s9
   1ae5a: ef b0 cf c0  	jal	0x16266 <memchr>
   1ae5e: 63 04 05 10  	beqz	a0, 0x1af66 <__sfvwrite_r+0x32c>
   1ae62: 05 05        	addi	a0, a0, 0x1
   1ae64: bb 09 95 41  	subw	s3, a0, s9
   1ae68: 41 b7        	j	0x1ade8 <__sfvwrite_r+0x1ae>
   1ae6a: e6 85        	mv	a1, s9
   1ae6c: 56 86        	mv	a2, s5
   1ae6e: ef 00 80 33  	jal	0x1b1a6 <memmove>
   1ae72: 1c 60        	ld	a5, 0x0(s0)
   1ae74: a2 85        	mv	a1, s0
   1ae76: 5a 85        	mv	a0, s6
   1ae78: d6 97        	add	a5, a5, s5
   1ae7a: 1c e0        	sd	a5, 0x0(s0)
   1ae7c: ef 70 7f fb  	jal	0x12e32 <_fflush_r>
   1ae80: 09 ed        	bnez	a0, 0x1ae9a <__sfvwrite_r+0x260>
   1ae82: d6 87        	mv	a5, s5
   1ae84: bb 89 f9 40  	subw	s3, s3, a5
   1ae88: 56 89        	mv	s2, s5
   1ae8a: 05 45        	li	a0, 0x1
   1ae8c: e3 9e 09 f8  	bnez	s3, 0x1ae28 <__sfvwrite_r+0x1ee>
   1ae90: a2 85        	mv	a1, s0
   1ae92: 5a 85        	mv	a0, s6
   1ae94: ef 70 ff f9  	jal	0x12e32 <_fflush_r>
   1ae98: 41 d9        	beqz	a0, 0x1ae28 <__sfvwrite_r+0x1ee>
   1ae9a: 83 17 04 01  	lh	a5, 0x10(s0)
   1ae9e: e2 6b        	ld	s7, 0x18(sp)
   1aea0: 42 6c        	ld	s8, 0x10(sp)
   1aea2: a2 6c        	ld	s9, 0x8(sp)
   1aea4: a6 64        	ld	s1, 0x48(sp)
   1aea6: 06 69        	ld	s2, 0x40(sp)
   1aea8: e2 79        	ld	s3, 0x38(sp)
   1aeaa: a2 7a        	ld	s5, 0x28(sp)
   1aeac: 93 e7 07 04  	ori	a5, a5, 0x40
   1aeb0: 23 18 f4 00  	sh	a5, 0x10(s0)
   1aeb4: 7d 55        	li	a0, -0x1
   1aeb6: fd bb        	j	0x1acb4 <__sfvwrite_r+0x7a>
   1aeb8: 1c 6c        	ld	a5, 0x18(s0)
   1aeba: 63 e8 a7 02  	bltu	a5, a0, 0x1aeea <__sfvwrite_r+0x2b0>
   1aebe: 1c 50        	lw	a5, 0x20(s0)
   1aec0: 63 65 f9 02  	bltu	s2, a5, 0x1aeea <__sfvwrite_r+0x2b0>
   1aec4: ca 86        	mv	a3, s2
   1aec6: 63 f3 2b 01  	bgeu	s7, s2, 0x1aecc <__sfvwrite_r+0x292>
   1aeca: de 86        	mv	a3, s7
   1aecc: bb c6 f6 02  	divw	a3, a3, a5
   1aed0: 38 60        	ld	a4, 0x40(s0)
   1aed2: 0c 78        	ld	a1, 0x30(s0)
   1aed4: 62 86        	mv	a2, s8
   1aed6: 5a 85        	mv	a0, s6
   1aed8: bb 86 f6 02  	mulw	a3, a3, a5
   1aedc: 02 97        	jalr	a4
   1aede: aa 89        	mv	s3, a0
   1aee0: e3 5d a0 fa  	blez	a0, 0x1ae9a <__sfvwrite_r+0x260>
   1aee4: 33 09 39 41  	sub	s2, s2, s3
   1aee8: 7d bd        	j	0x1ada6 <__sfvwrite_r+0x16c>
   1aeea: d6 89        	mv	s3, s5
   1aeec: 63 73 59 01  	bgeu	s2, s5, 0x1aef2 <__sfvwrite_r+0x2b8>
   1aef0: ca 89        	mv	s3, s2
   1aef2: 4e 86        	mv	a2, s3
   1aef4: e2 85        	mv	a1, s8
   1aef6: ef 00 00 2b  	jal	0x1b1a6 <memmove>
   1aefa: 18 60        	ld	a4, 0x0(s0)
   1aefc: 5c 44        	lw	a5, 0xc(s0)
   1aefe: 4e 97        	add	a4, a4, s3
   1af00: bb 87 37 41  	subw	a5, a5, s3
   1af04: 18 e0        	sd	a4, 0x0(s0)
   1af06: 5c c4        	sw	a5, 0xc(s0)
   1af08: f1 ff        	bnez	a5, 0x1aee4 <__sfvwrite_r+0x2aa>
   1af0a: a2 85        	mv	a1, s0
   1af0c: 5a 85        	mv	a0, s6
   1af0e: ef 70 5f f2  	jal	0x12e32 <_fflush_r>
   1af12: 41 f5        	bnez	a0, 0x1ae9a <__sfvwrite_r+0x260>
   1af14: 33 09 39 41  	sub	s2, s2, s3
   1af18: 79 b5        	j	0x1ada6 <__sfvwrite_r+0x16c>
   1af1a: 5e 86        	mv	a2, s7
   1af1c: e6 85        	mv	a1, s9
   1af1e: ef 00 80 28  	jal	0x1b1a6 <memmove>
   1af22: 54 44        	lw	a3, 0xc(s0)
   1af24: 18 60        	ld	a4, 0x0(s0)
   1af26: 9b 87 0b 00  	sext.w	a5, s7
   1af2a: bb 86 76 41  	subw	a3, a3, s7
   1af2e: 5e 97        	add	a4, a4, s7
   1af30: 54 c4        	sw	a3, 0xc(s0)
   1af32: 18 e0        	sd	a4, 0x0(s0)
   1af34: ed b5        	j	0x1ae1e <__sfvwrite_r+0x1e4>
   1af36: d6 8c        	mv	s9, s5
   1af38: 91 bd        	j	0x1ad8c <__sfvwrite_r+0x152>
   1af3a: 4e 86        	mv	a2, s3
   1af3c: 5a 85        	mv	a0, s6
   1af3e: ef 00 40 38  	jal	0x1b2c2 <_realloc_r>
   1af42: aa 8c        	mv	s9, a0
   1af44: e3 17 05 e2  	bnez	a0, 0x1ad72 <__sfvwrite_r+0x138>
   1af48: 0c 6c        	ld	a1, 0x18(s0)
   1af4a: 5a 85        	mv	a0, s6
   1af4c: ef 80 2f c5  	jal	0x1339e <_free_r>
   1af50: 83 17 04 01  	lh	a5, 0x10(s0)
   1af54: 31 47        	li	a4, 0xc
   1af56: e2 6b        	ld	s7, 0x18(sp)
   1af58: 42 6c        	ld	s8, 0x10(sp)
   1af5a: a2 6c        	ld	s9, 0x8(sp)
   1af5c: 23 20 eb 00  	sw	a4, 0x0(s6)
   1af60: 93 f7 f7 f7  	andi	a5, a5, -0x81
   1af64: 81 b7        	j	0x1aea4 <__sfvwrite_r+0x26a>
   1af66: 9b 09 1c 00  	addiw	s3, s8, 0x1
   1af6a: bd bd        	j	0x1ade8 <__sfvwrite_r+0x1ae>
   1af6c: 83 17 04 01  	lh	a5, 0x10(s0)
   1af70: 15 bf        	j	0x1aea4 <__sfvwrite_r+0x26a>
   1af72: b1 47        	li	a5, 0xc
   1af74: 23 20 fb 00  	sw	a5, 0x0(s6)
   1af78: e2 6b        	ld	s7, 0x18(sp)
   1af7a: 83 17 04 01  	lh	a5, 0x10(s0)
   1af7e: 42 6c        	ld	s8, 0x10(sp)
   1af80: a2 6c        	ld	s9, 0x8(sp)
   1af82: 0d b7        	j	0x1aea4 <__sfvwrite_r+0x26a>

000000000001af84 <_isatty_r>:
   1af84: 41 11        	addi	sp, sp, -0x10
   1af86: 22 e0        	sd	s0, 0x0(sp)
   1af88: 2a 84        	mv	s0, a0
   1af8a: 2e 85        	mv	a0, a1
   1af8c: 23 a4 01 78  	sw	zero, 0x788(gp)
   1af90: 06 e4        	sd	ra, 0x8(sp)
   1af92: ef 10 d0 6f  	jal	0x1ce8e <_isatty>
   1af96: fd 57        	li	a5, -0x1
   1af98: 63 06 f5 00  	beq	a0, a5, 0x1afa4 <_isatty_r+0x20>
   1af9c: a2 60        	ld	ra, 0x8(sp)
   1af9e: 02 64        	ld	s0, 0x0(sp)
   1afa0: 41 01        	addi	sp, sp, 0x10
   1afa2: 82 80        	ret
   1afa4: 83 a7 81 78  	lw	a5, 0x788(gp)
   1afa8: f5 db        	beqz	a5, 0x1af9c <_isatty_r+0x18>
   1afaa: a2 60        	ld	ra, 0x8(sp)
   1afac: 1c c0        	sw	a5, 0x0(s0)
   1afae: 02 64        	ld	s0, 0x0(sp)
   1afb0: 41 01        	addi	sp, sp, 0x10
   1afb2: 82 80        	ret

000000000001afb4 <_setlocale_r>:
   1afb4: 0d c6        	beqz	a2, 0x1afde <_setlocale_r+0x2a>
   1afb6: 41 11        	addi	sp, sp, -0x10
   1afb8: 97 35 00 00  	auipc	a1, 0x3
   1afbc: 93 85 85 5f  	addi	a1, a1, 0x5f8
   1afc0: 32 85        	mv	a0, a2
   1afc2: 22 e0        	sd	s0, 0x0(sp)
   1afc4: 06 e4        	sd	ra, 0x8(sp)
   1afc6: 32 84        	mv	s0, a2
   1afc8: ef 00 80 72  	jal	0x1b6f0 <strcmp>
   1afcc: 11 ed        	bnez	a0, 0x1afe8 <_setlocale_r+0x34>
   1afce: 17 35 00 00  	auipc	a0, 0x3
   1afd2: 13 05 a5 5d  	addi	a0, a0, 0x5da
   1afd6: a2 60        	ld	ra, 0x8(sp)
   1afd8: 02 64        	ld	s0, 0x0(sp)
   1afda: 41 01        	addi	sp, sp, 0x10
   1afdc: 82 80        	ret
   1afde: 17 35 00 00  	auipc	a0, 0x3
   1afe2: 13 05 a5 5c  	addi	a0, a0, 0x5ca
   1afe6: 82 80        	ret
   1afe8: 97 35 00 00  	auipc	a1, 0x3
   1afec: 93 85 05 5c  	addi	a1, a1, 0x5c0
   1aff0: 22 85        	mv	a0, s0
   1aff2: ef 00 e0 6f  	jal	0x1b6f0 <strcmp>
   1aff6: 61 dd        	beqz	a0, 0x1afce <_setlocale_r+0x1a>
   1aff8: 22 85        	mv	a0, s0
   1affa: 97 35 00 00  	auipc	a1, 0x3
   1affe: 93 85 e5 4c  	addi	a1, a1, 0x4ce
   1b002: ef 00 e0 6e  	jal	0x1b6f0 <strcmp>
   1b006: 61 d5        	beqz	a0, 0x1afce <_setlocale_r+0x1a>
   1b008: 01 45        	li	a0, 0x0
   1b00a: f1 b7        	j	0x1afd6 <_setlocale_r+0x22>

000000000001b00c <__locale_mb_cur_max>:
   1b00c: 03 c5 81 67  	lbu	a0, 0x678(gp)
   1b010: 82 80        	ret

000000000001b012 <setlocale>:
   1b012: 8d c5        	beqz	a1, 0x1b03c <setlocale+0x2a>
   1b014: 41 11        	addi	sp, sp, -0x10
   1b016: 22 e0        	sd	s0, 0x0(sp)
   1b018: 2e 84        	mv	s0, a1
   1b01a: 22 85        	mv	a0, s0
   1b01c: 97 35 00 00  	auipc	a1, 0x3
   1b020: 93 85 45 59  	addi	a1, a1, 0x594
   1b024: 06 e4        	sd	ra, 0x8(sp)
   1b026: ef 00 a0 6c  	jal	0x1b6f0 <strcmp>
   1b02a: 11 ed        	bnez	a0, 0x1b046 <setlocale+0x34>
   1b02c: 17 35 00 00  	auipc	a0, 0x3
   1b030: 13 05 c5 57  	addi	a0, a0, 0x57c
   1b034: a2 60        	ld	ra, 0x8(sp)
   1b036: 02 64        	ld	s0, 0x0(sp)
   1b038: 41 01        	addi	sp, sp, 0x10
   1b03a: 82 80        	ret
   1b03c: 17 35 00 00  	auipc	a0, 0x3
   1b040: 13 05 c5 56  	addi	a0, a0, 0x56c
   1b044: 82 80        	ret
   1b046: 97 35 00 00  	auipc	a1, 0x3
   1b04a: 93 85 25 56  	addi	a1, a1, 0x562
   1b04e: 22 85        	mv	a0, s0
   1b050: ef 00 00 6a  	jal	0x1b6f0 <strcmp>
   1b054: 61 dd        	beqz	a0, 0x1b02c <setlocale+0x1a>
   1b056: 22 85        	mv	a0, s0
   1b058: 97 35 00 00  	auipc	a1, 0x3
   1b05c: 93 85 05 47  	addi	a1, a1, 0x470
   1b060: ef 00 00 69  	jal	0x1b6f0 <strcmp>
   1b064: 61 d5        	beqz	a0, 0x1b02c <setlocale+0x1a>
   1b066: 01 45        	li	a0, 0x0
   1b068: f1 b7        	j	0x1b034 <setlocale+0x22>

000000000001b06a <_lseek_r>:
   1b06a: 41 11        	addi	sp, sp, -0x10
   1b06c: 2e 87        	mv	a4, a1
   1b06e: 22 e0        	sd	s0, 0x0(sp)
   1b070: b2 85        	mv	a1, a2
   1b072: 2a 84        	mv	s0, a0
   1b074: 36 86        	mv	a2, a3
   1b076: 3a 85        	mv	a0, a4
   1b078: 23 a4 01 78  	sw	zero, 0x788(gp)
   1b07c: 06 e4        	sd	ra, 0x8(sp)
   1b07e: ef 10 b0 64  	jal	0x1cec8 <_lseek>
   1b082: fd 57        	li	a5, -0x1
   1b084: 63 06 f5 00  	beq	a0, a5, 0x1b090 <_lseek_r+0x26>
   1b088: a2 60        	ld	ra, 0x8(sp)
   1b08a: 02 64        	ld	s0, 0x0(sp)
   1b08c: 41 01        	addi	sp, sp, 0x10
   1b08e: 82 80        	ret
   1b090: 83 a7 81 78  	lw	a5, 0x788(gp)
   1b094: f5 db        	beqz	a5, 0x1b088 <_lseek_r+0x1e>
   1b096: a2 60        	ld	ra, 0x8(sp)
   1b098: 1c c0        	sw	a5, 0x0(s0)
   1b09a: 02 64        	ld	s0, 0x0(sp)
   1b09c: 41 01        	addi	sp, sp, 0x10
   1b09e: 82 80        	ret

000000000001b0a0 <_mbtowc_r>:
   1b0a0: 83 b7 01 60  	ld	a5, 0x600(gp)
   1b0a4: 82 87        	jr	a5

000000000001b0a6 <__ascii_mbtowc>:
   1b0a6: 99 c9        	beqz	a1, 0x1b0bc <__ascii_mbtowc+0x16>
   1b0a8: 1d c6        	beqz	a2, 0x1b0d6 <__ascii_mbtowc+0x30>
   1b0aa: 95 ca        	beqz	a3, 0x1b0de <__ascii_mbtowc+0x38>
   1b0ac: 83 47 06 00  	lbu	a5, 0x0(a2)
   1b0b0: 9c c1        	sw	a5, 0x0(a1)
   1b0b2: 03 45 06 00  	lbu	a0, 0x0(a2)
   1b0b6: 33 35 a0 00  	snez	a0, a0
   1b0ba: 82 80        	ret
   1b0bc: 41 11        	addi	sp, sp, -0x10
   1b0be: 6c 00        	addi	a1, sp, 0xc
   1b0c0: 09 ce        	beqz	a2, 0x1b0da <__ascii_mbtowc+0x34>
   1b0c2: 85 c2        	beqz	a3, 0x1b0e2 <__ascii_mbtowc+0x3c>
   1b0c4: 83 47 06 00  	lbu	a5, 0x0(a2)
   1b0c8: 9c c1        	sw	a5, 0x0(a1)
   1b0ca: 03 45 06 00  	lbu	a0, 0x0(a2)
   1b0ce: 33 35 a0 00  	snez	a0, a0
   1b0d2: 41 01        	addi	sp, sp, 0x10
   1b0d4: 82 80        	ret
   1b0d6: 01 45        	li	a0, 0x0
   1b0d8: 82 80        	ret
   1b0da: 01 45        	li	a0, 0x0
   1b0dc: dd bf        	j	0x1b0d2 <__ascii_mbtowc+0x2c>
   1b0de: 79 55        	li	a0, -0x2
   1b0e0: 82 80        	ret
   1b0e2: 79 55        	li	a0, -0x2
   1b0e4: fd b7        	j	0x1b0d2 <__ascii_mbtowc+0x2c>
   1b0e6: 00 00        	unimp

000000000001b0e8 <memcpy>:
   1b0e8: 93 36 86 00  	sltiu	a3, a2, 0x8
   1b0ec: aa 82        	mv	t0, a0
   1b0ee: 33 03 c5 00  	add	t1, a0, a2
   1b0f2: b5 ee        	bnez	a3, 0x1b16e <memcpy+0x86>
   1b0f4: b3 46 b5 00  	xor	a3, a0, a1
   1b0f8: 9d 8a        	andi	a3, a3, 0x7
   1b0fa: b5 ea        	bnez	a3, 0x1b16e <memcpy+0x86>
   1b0fc: 93 76 75 00  	andi	a3, a0, 0x7
   1b100: a1 43        	li	t2, 0x8
   1b102: c9 e2        	bnez	a3, 0x1b184 <memcpy+0x9c>
   1b104: 93 73 83 ff  	andi	t2, t1, -0x8
   1b108: 13 83 03 fc  	addi	t1, t2, -0x40
   1b10c: 63 62 a3 04  	bltu	t1, a0, 0x1b150 <memcpy+0x68>
   1b110: 13 76 f6 03  	andi	a2, a2, 0x3f
   1b114: 98 61        	ld	a4, 0x0(a1)
   1b116: 18 e1        	sd	a4, 0x0(a0)
   1b118: 9c 65        	ld	a5, 0x8(a1)
   1b11a: 1c e5        	sd	a5, 0x8(a0)
   1b11c: 03 b8 05 01  	ld	a6, 0x10(a1)
   1b120: 23 38 05 01  	sd	a6, 0x10(a0)
   1b124: 83 b8 85 01  	ld	a7, 0x18(a1)
   1b128: 23 3c 15 01  	sd	a7, 0x18(a0)
   1b12c: 98 71        	ld	a4, 0x20(a1)
   1b12e: 18 f1        	sd	a4, 0x20(a0)
   1b130: 9c 75        	ld	a5, 0x28(a1)
   1b132: 1c f5        	sd	a5, 0x28(a0)
   1b134: 03 b8 05 03  	ld	a6, 0x30(a1)
   1b138: 23 38 05 03  	sd	a6, 0x30(a0)
   1b13c: 83 b8 85 03  	ld	a7, 0x38(a1)
   1b140: 93 85 05 04  	addi	a1, a1, 0x40
   1b144: 23 3c 15 03  	sd	a7, 0x38(a0)
   1b148: 13 05 05 04  	addi	a0, a0, 0x40
   1b14c: e3 74 a3 fc  	bgeu	t1, a0, 0x1b114 <memcpy+0x2c>
   1b150: 93 73 83 ff  	andi	t2, t1, -0x8
   1b154: 13 83 83 ff  	addi	t1, t2, -0x8
   1b158: 63 69 a3 00  	bltu	t1, a0, 0x1b16a <memcpy+0x82>
   1b15c: 0d 8a        	andi	a2, a2, 0x3
   1b15e: 98 41        	lw	a4, 0x0(a1)
   1b160: 91 05        	addi	a1, a1, 0x4
   1b162: 18 c1        	sw	a4, 0x0(a0)
   1b164: 11 05        	addi	a0, a0, 0x4
   1b166: e3 7c a3 fe  	bgeu	t1, a0, 0x1b15e <memcpy+0x76>
   1b16a: 33 03 c5 00  	add	t1, a0, a2
   1b16e: 09 ca        	beqz	a2, 0x1b180 <memcpy+0x98>
   1b170: 03 87 05 00  	lb	a4, 0x0(a1)
   1b174: 85 05        	addi	a1, a1, 0x1
   1b176: 23 00 e5 00  	sb	a4, 0x0(a0)
   1b17a: 05 05        	addi	a0, a0, 0x1
   1b17c: e3 6a 65 fe  	bltu	a0, t1, 0x1b170 <memcpy+0x88>
   1b180: 16 85        	mv	a0, t0
   1b182: 82 80        	ret
   1b184: b3 86 d3 40  	sub	a3, t2, a3
   1b188: b6 83        	mv	t2, a3
   1b18a: 03 87 05 00  	lb	a4, 0x0(a1)
   1b18e: 85 05        	addi	a1, a1, 0x1
   1b190: fd 16        	addi	a3, a3, -0x1
   1b192: 23 00 e5 00  	sb	a4, 0x0(a0)
   1b196: 05 05        	addi	a0, a0, 0x1
   1b198: ed fa        	bnez	a3, 0x1b18a <memcpy+0xa2>
   1b19a: 33 06 76 40  	sub	a2, a2, t2
   1b19e: 93 36 26 00  	sltiu	a3, a2, 0x2
   1b1a2: f1 f6        	bnez	a3, 0x1b16e <memcpy+0x86>
   1b1a4: 85 b7        	j	0x1b104 <memcpy+0x1c>

000000000001b1a6 <memmove>:
   1b1a6: 63 f2 a5 02  	bgeu	a1, a0, 0x1b1ca <memmove+0x24>
   1b1aa: 33 87 c5 00  	add	a4, a1, a2
   1b1ae: 63 7e e5 00  	bgeu	a0, a4, 0x1b1ca <memmove+0x24>
   1b1b2: b3 07 c5 00  	add	a5, a0, a2
   1b1b6: 1d ca        	beqz	a2, 0x1b1ec <memmove+0x46>
   1b1b8: 83 46 f7 ff  	lbu	a3, -0x1(a4)
   1b1bc: fd 17        	addi	a5, a5, -0x1
   1b1be: 7d 17        	addi	a4, a4, -0x1
   1b1c0: 23 80 d7 00  	sb	a3, 0x0(a5)
   1b1c4: e3 1a f5 fe  	bne	a0, a5, 0x1b1b8 <memmove+0x12>
   1b1c8: 82 80        	ret
   1b1ca: fd 47        	li	a5, 0x1f
   1b1cc: 63 e1 c7 02  	bltu	a5, a2, 0x1b1ee <memmove+0x48>
   1b1d0: aa 87        	mv	a5, a0
   1b1d2: 93 06 f6 ff  	addi	a3, a2, -0x1
   1b1d6: 45 ca        	beqz	a2, 0x1b286 <memmove+0xe0>
   1b1d8: 85 06        	addi	a3, a3, 0x1
   1b1da: be 96        	add	a3, a3, a5
   1b1dc: 03 c7 05 00  	lbu	a4, 0x0(a1)
   1b1e0: 85 07        	addi	a5, a5, 0x1
   1b1e2: 85 05        	addi	a1, a1, 0x1
   1b1e4: a3 8f e7 fe  	sb	a4, -0x1(a5)
   1b1e8: e3 9a d7 fe  	bne	a5, a3, 0x1b1dc <memmove+0x36>
   1b1ec: 82 80        	ret
   1b1ee: b3 67 b5 00  	or	a5, a0, a1
   1b1f2: 9d 8b        	andi	a5, a5, 0x7
   1b1f4: ae 88        	mv	a7, a1
   1b1f6: c1 e7        	bnez	a5, 0x1b27e <memmove+0xd8>
   1b1f8: 93 07 06 fe  	addi	a5, a2, -0x20
   1b1fc: 13 f8 07 fe  	andi	a6, a5, -0x20
   1b200: 13 08 08 02  	addi	a6, a6, 0x20
   1b204: 2a 98        	add	a6, a6, a0
   1b206: 2a 87        	mv	a4, a0
   1b208: 94 61        	ld	a3, 0x0(a1)
   1b20a: 93 85 05 02  	addi	a1, a1, 0x20
   1b20e: 13 07 07 02  	addi	a4, a4, 0x20
   1b212: 23 30 d7 fe  	sd	a3, -0x20(a4)
   1b216: 83 b6 85 fe  	ld	a3, -0x18(a1)
   1b21a: 23 34 d7 fe  	sd	a3, -0x18(a4)
   1b21e: 83 b6 05 ff  	ld	a3, -0x10(a1)
   1b222: 23 38 d7 fe  	sd	a3, -0x10(a4)
   1b226: 83 b6 85 ff  	ld	a3, -0x8(a1)
   1b22a: 23 3c d7 fe  	sd	a3, -0x8(a4)
   1b22e: e3 1d 07 fd  	bne	a4, a6, 0x1b208 <memmove+0x62>
   1b232: 81 9b        	andi	a5, a5, -0x20
   1b234: 33 87 17 01  	add	a4, a5, a7
   1b238: 93 05 07 02  	addi	a1, a4, 0x20
   1b23c: aa 97        	add	a5, a5, a0
   1b23e: 13 78 86 01  	andi	a6, a2, 0x18
   1b242: 93 87 07 02  	addi	a5, a5, 0x20
   1b246: 2e 8e        	mv	t3, a1
   1b248: 93 76 f6 01  	andi	a3, a2, 0x1f
   1b24c: 63 0e 08 02  	beqz	a6, 0x1b288 <memmove+0xe2>
   1b250: e1 16        	addi	a3, a3, -0x8
   1b252: e1 9a        	andi	a3, a3, -0x8
   1b254: 36 97        	add	a4, a4, a3
   1b256: 13 07 87 02  	addi	a4, a4, 0x28
   1b25a: 33 08 15 41  	sub	a6, a0, a7
   1b25e: 03 b3 05 00  	ld	t1, 0x0(a1)
   1b262: b3 88 05 01  	add	a7, a1, a6
   1b266: a1 05        	addi	a1, a1, 0x8
   1b268: 23 b0 68 00  	sd	t1, 0x0(a7)
   1b26c: e3 99 e5 fe  	bne	a1, a4, 0x1b25e <memmove+0xb8>
   1b270: 13 87 86 00  	addi	a4, a3, 0x8
   1b274: b3 05 c7 01  	add	a1, a4, t3
   1b278: ba 97        	add	a5, a5, a4
   1b27a: 1d 8a        	andi	a2, a2, 0x7
   1b27c: 99 bf        	j	0x1b1d2 <memmove+0x2c>
   1b27e: 93 06 f6 ff  	addi	a3, a2, -0x1
   1b282: aa 87        	mv	a5, a0
   1b284: 91 bf        	j	0x1b1d8 <memmove+0x32>
   1b286: 82 80        	ret
   1b288: 36 86        	mv	a2, a3
   1b28a: a1 b7        	j	0x1b1d2 <memmove+0x2c>

000000000001b28c <_read_r>:
   1b28c: 41 11        	addi	sp, sp, -0x10
   1b28e: 2e 87        	mv	a4, a1
   1b290: 22 e0        	sd	s0, 0x0(sp)
   1b292: b2 85        	mv	a1, a2
   1b294: 2a 84        	mv	s0, a0
   1b296: 36 86        	mv	a2, a3
   1b298: 3a 85        	mv	a0, a4
   1b29a: 23 a4 01 78  	sw	zero, 0x788(gp)
   1b29e: 06 e4        	sd	ra, 0x8(sp)
   1b2a0: ef 10 b0 45  	jal	0x1cefa <_read>
   1b2a4: fd 57        	li	a5, -0x1
   1b2a6: 63 06 f5 00  	beq	a0, a5, 0x1b2b2 <_read_r+0x26>
   1b2aa: a2 60        	ld	ra, 0x8(sp)
   1b2ac: 02 64        	ld	s0, 0x0(sp)
   1b2ae: 41 01        	addi	sp, sp, 0x10
   1b2b0: 82 80        	ret
   1b2b2: 83 a7 81 78  	lw	a5, 0x788(gp)
   1b2b6: f5 db        	beqz	a5, 0x1b2aa <_read_r+0x1e>
   1b2b8: a2 60        	ld	ra, 0x8(sp)
   1b2ba: 1c c0        	sw	a5, 0x0(s0)
   1b2bc: 02 64        	ld	s0, 0x0(sp)
   1b2be: 41 01        	addi	sp, sp, 0x10
   1b2c0: 82 80        	ret

000000000001b2c2 <_realloc_r>:
   1b2c2: 5d 71        	addi	sp, sp, -0x50
   1b2c4: 4a f8        	sd	s2, 0x30(sp)
   1b2c6: 86 e4        	sd	ra, 0x48(sp)
   1b2c8: 32 89        	mv	s2, a2
   1b2ca: 63 84 05 16  	beqz	a1, 0x1b432 <_realloc_r+0x170>
   1b2ce: a2 e0        	sd	s0, 0x40(sp)
   1b2d0: 26 fc        	sd	s1, 0x38(sp)
   1b2d2: 2e 84        	mv	s0, a1
   1b2d4: 4e f4        	sd	s3, 0x28(sp)
   1b2d6: 52 f0        	sd	s4, 0x20(sp)
   1b2d8: 56 ec        	sd	s5, 0x18(sp)
   1b2da: aa 89        	mv	s3, a0
   1b2dc: ef b0 af 82  	jal	0x16306 <__malloc_lock>
   1b2e0: 83 37 84 ff  	ld	a5, -0x8(s0)
   1b2e4: 93 04 79 01  	addi	s1, s2, 0x17
   1b2e8: 13 07 e0 02  	li	a4, 0x2e
   1b2ec: 13 fa c7 ff  	andi	s4, a5, -0x4
   1b2f0: 93 0a 04 ff  	addi	s5, s0, -0x10
   1b2f4: 63 74 97 0c  	bgeu	a4, s1, 0x1b3bc <_realloc_r+0xfa>
   1b2f8: 37 07 00 80  	lui	a4, 0x80000
   1b2fc: c1 98        	andi	s1, s1, -0x10
   1b2fe: 13 47 f7 ff  	not	a4, a4
   1b302: 63 61 97 0c  	bltu	a4, s1, 0x1b3c4 <_realloc_r+0x102>
   1b306: 63 ef 24 0b  	bltu	s1, s2, 0x1b3c4 <_realloc_r+0x102>
   1b30a: 63 51 9a 0e  	bge	s4, s1, 0x1b3ec <_realloc_r+0x12a>
   1b30e: 62 e0        	sd	s8, 0x0(sp)
   1b310: 17 5c 00 00  	auipc	s8, 0x5
   1b314: 13 0c 8c 6a  	addi	s8, s8, 0x6a8
   1b318: 03 36 0c 01  	ld	a2, 0x10(s8)
   1b31c: b3 86 4a 01  	add	a3, s5, s4
   1b320: 98 66        	ld	a4, 0x8(a3)
   1b322: 63 0f d6 12  	beq	a2, a3, 0x1b460 <_realloc_r+0x19e>
   1b326: 13 76 e7 ff  	andi	a2, a4, -0x2
   1b32a: 36 96        	add	a2, a2, a3
   1b32c: 10 66        	ld	a2, 0x8(a2)
   1b32e: 05 8a        	andi	a2, a2, 0x1
   1b330: 6d e6        	bnez	a2, 0x1b41a <_realloc_r+0x158>
   1b332: 71 9b        	andi	a4, a4, -0x4
   1b334: 33 06 ea 00  	add	a2, s4, a4
   1b338: 63 54 96 0a  	bge	a2, s1, 0x1b3e0 <_realloc_r+0x11e>
   1b33c: 85 8b        	andi	a5, a5, 0x1
   1b33e: 8d e7        	bnez	a5, 0x1b368 <_realloc_r+0xa6>
   1b340: 5e e4        	sd	s7, 0x8(sp)
   1b342: 83 3b 04 ff  	ld	s7, -0x10(s0)
   1b346: 5a e8        	sd	s6, 0x10(sp)
   1b348: b3 8b 7a 41  	sub	s7, s5, s7
   1b34c: 83 b7 8b 00  	ld	a5, 0x8(s7)
   1b350: f1 9b        	andi	a5, a5, -0x4
   1b352: 3e 97        	add	a4, a4, a5
   1b354: 33 0b 47 01  	add	s6, a4, s4
   1b358: 63 5c 9b 22  	bge	s6, s1, 0x1b590 <_realloc_r+0x2ce>
   1b35c: 33 0b fa 00  	add	s6, s4, a5
   1b360: 63 57 9b 1c  	bge	s6, s1, 0x1b52e <_realloc_r+0x26c>
   1b364: 42 6b        	ld	s6, 0x10(sp)
   1b366: a2 6b        	ld	s7, 0x8(sp)
   1b368: ca 85        	mv	a1, s2
   1b36a: 4e 85        	mv	a0, s3
   1b36c: ef a0 df 8a  	jal	0x15c18 <_malloc_r>
   1b370: 2a 89        	mv	s2, a0
   1b372: 63 0c 05 2c  	beqz	a0, 0x1b64a <_realloc_r+0x388>
   1b376: 83 37 84 ff  	ld	a5, -0x8(s0)
   1b37a: 13 07 05 ff  	addi	a4, a0, -0x10
   1b37e: f9 9b        	andi	a5, a5, -0x2
   1b380: d6 97        	add	a5, a5, s5
   1b382: 63 80 e7 1a  	beq	a5, a4, 0x1b522 <_realloc_r+0x260>
   1b386: 13 06 8a ff  	addi	a2, s4, -0x8
   1b38a: 93 07 80 04  	li	a5, 0x48
   1b38e: 63 ed c7 1e  	bltu	a5, a2, 0x1b588 <_realloc_r+0x2c6>
   1b392: 13 07 70 02  	li	a4, 0x27
   1b396: 63 69 c7 16  	bltu	a4, a2, 0x1b508 <_realloc_r+0x246>
   1b39a: aa 87        	mv	a5, a0
   1b39c: 22 87        	mv	a4, s0
   1b39e: 14 63        	ld	a3, 0x0(a4)
   1b3a0: 94 e3        	sd	a3, 0x0(a5)
   1b3a2: 14 67        	ld	a3, 0x8(a4)
   1b3a4: 94 e7        	sd	a3, 0x8(a5)
   1b3a6: 18 6b        	ld	a4, 0x10(a4)
   1b3a8: 98 eb        	sd	a4, 0x10(a5)
   1b3aa: a2 85        	mv	a1, s0
   1b3ac: 4e 85        	mv	a0, s3
   1b3ae: ef 70 1f ff  	jal	0x1339e <_free_r>
   1b3b2: 4e 85        	mv	a0, s3
   1b3b4: ef a0 bf f5  	jal	0x1630e <__malloc_unlock>
   1b3b8: 02 6c        	ld	s8, 0x0(sp)
   1b3ba: 09 a8        	j	0x1b3cc <_realloc_r+0x10a>
   1b3bc: 93 04 00 02  	li	s1, 0x20
   1b3c0: e3 f5 24 f5  	bgeu	s1, s2, 0x1b30a <_realloc_r+0x48>
   1b3c4: b1 47        	li	a5, 0xc
   1b3c6: 23 a0 f9 00  	sw	a5, 0x0(s3)
   1b3ca: 01 49        	li	s2, 0x0
   1b3cc: 06 64        	ld	s0, 0x40(sp)
   1b3ce: a6 60        	ld	ra, 0x48(sp)
   1b3d0: e2 74        	ld	s1, 0x38(sp)
   1b3d2: a2 79        	ld	s3, 0x28(sp)
   1b3d4: 02 7a        	ld	s4, 0x20(sp)
   1b3d6: e2 6a        	ld	s5, 0x18(sp)
   1b3d8: 4a 85        	mv	a0, s2
   1b3da: 42 79        	ld	s2, 0x30(sp)
   1b3dc: 61 61        	addi	sp, sp, 0x50
   1b3de: 82 80        	ret
   1b3e0: 9c 6e        	ld	a5, 0x18(a3)
   1b3e2: 98 6a        	ld	a4, 0x10(a3)
   1b3e4: 02 6c        	ld	s8, 0x0(sp)
   1b3e6: 32 8a        	mv	s4, a2
   1b3e8: 1c ef        	sd	a5, 0x18(a4)
   1b3ea: 98 eb        	sd	a4, 0x10(a5)
   1b3ec: 83 b7 8a 00  	ld	a5, 0x8(s5)
   1b3f0: b3 06 9a 40  	sub	a3, s4, s1
   1b3f4: 7d 46        	li	a2, 0x1f
   1b3f6: 85 8b        	andi	a5, a5, 0x1
   1b3f8: 33 87 4a 01  	add	a4, s5, s4
   1b3fc: 63 61 d6 04  	bltu	a2, a3, 0x1b43e <_realloc_r+0x17c>
   1b400: b3 e7 47 01  	or	a5, a5, s4
   1b404: 23 b4 fa 00  	sd	a5, 0x8(s5)
   1b408: 1c 67        	ld	a5, 0x8(a4)
   1b40a: 93 e7 17 00  	ori	a5, a5, 0x1
   1b40e: 1c e7        	sd	a5, 0x8(a4)
   1b410: 4e 85        	mv	a0, s3
   1b412: ef a0 df ef  	jal	0x1630e <__malloc_unlock>
   1b416: 22 89        	mv	s2, s0
   1b418: 55 bf        	j	0x1b3cc <_realloc_r+0x10a>
   1b41a: 85 8b        	andi	a5, a5, 0x1
   1b41c: b1 f7        	bnez	a5, 0x1b368 <_realloc_r+0xa6>
   1b41e: 5e e4        	sd	s7, 0x8(sp)
   1b420: 83 3b 04 ff  	ld	s7, -0x10(s0)
   1b424: 5a e8        	sd	s6, 0x10(sp)
   1b426: b3 8b 7a 41  	sub	s7, s5, s7
   1b42a: 83 b7 8b 00  	ld	a5, 0x8(s7)
   1b42e: f1 9b        	andi	a5, a5, -0x4
   1b430: 35 b7        	j	0x1b35c <_realloc_r+0x9a>
   1b432: a6 60        	ld	ra, 0x48(sp)
   1b434: 42 79        	ld	s2, 0x30(sp)
   1b436: b2 85        	mv	a1, a2
   1b438: 61 61        	addi	sp, sp, 0x50
   1b43a: 6f a0 ef fd  	j	0x15c18 <_malloc_r>
   1b43e: c5 8f        	or	a5, a5, s1
   1b440: 23 b4 fa 00  	sd	a5, 0x8(s5)
   1b444: b3 85 9a 00  	add	a1, s5, s1
   1b448: 93 e6 16 00  	ori	a3, a3, 0x1
   1b44c: 94 e5        	sd	a3, 0x8(a1)
   1b44e: 1c 67        	ld	a5, 0x8(a4)
   1b450: c1 05        	addi	a1, a1, 0x10
   1b452: 4e 85        	mv	a0, s3
   1b454: 93 e7 17 00  	ori	a5, a5, 0x1
   1b458: 1c e7        	sd	a5, 0x8(a4)
   1b45a: ef 70 5f f4  	jal	0x1339e <_free_r>
   1b45e: 4d bf        	j	0x1b410 <_realloc_r+0x14e>
   1b460: 71 9b        	andi	a4, a4, -0x4
   1b462: b3 06 47 01  	add	a3, a4, s4
   1b466: 13 86 04 02  	addi	a2, s1, 0x20
   1b46a: 63 de c6 18  	bge	a3, a2, 0x1b606 <_realloc_r+0x344>
   1b46e: 85 8b        	andi	a5, a5, 0x1
   1b470: e3 9c 07 ee  	bnez	a5, 0x1b368 <_realloc_r+0xa6>
   1b474: 5e e4        	sd	s7, 0x8(sp)
   1b476: 83 3b 04 ff  	ld	s7, -0x10(s0)
   1b47a: 5a e8        	sd	s6, 0x10(sp)
   1b47c: b3 8b 7a 41  	sub	s7, s5, s7
   1b480: 83 b7 8b 00  	ld	a5, 0x8(s7)
   1b484: f1 9b        	andi	a5, a5, -0x4
   1b486: 3e 97        	add	a4, a4, a5
   1b488: 33 0b 47 01  	add	s6, a4, s4
   1b48c: e3 48 cb ec  	blt	s6, a2, 0x1b35c <_realloc_r+0x9a>
   1b490: 83 b7 8b 01  	ld	a5, 0x18(s7)
   1b494: 03 b7 0b 01  	ld	a4, 0x10(s7)
   1b498: 13 06 8a ff  	addi	a2, s4, -0x8
   1b49c: 93 06 80 04  	li	a3, 0x48
   1b4a0: 1c ef        	sd	a5, 0x18(a4)
   1b4a2: 98 eb        	sd	a4, 0x10(a5)
   1b4a4: 13 89 0b 01  	addi	s2, s7, 0x10
   1b4a8: 63 ee c6 1c  	bltu	a3, a2, 0x1b684 <_realloc_r+0x3c2>
   1b4ac: 13 07 70 02  	li	a4, 0x27
   1b4b0: ca 87        	mv	a5, s2
   1b4b2: 63 7f c7 00  	bgeu	a4, a2, 0x1b4d0 <_realloc_r+0x20e>
   1b4b6: 18 60        	ld	a4, 0x0(s0)
   1b4b8: 93 07 70 03  	li	a5, 0x37
   1b4bc: 23 b8 eb 00  	sd	a4, 0x10(s7)
   1b4c0: 18 64        	ld	a4, 0x8(s0)
   1b4c2: 23 bc eb 00  	sd	a4, 0x18(s7)
   1b4c6: 63 e0 c7 1e  	bltu	a5, a2, 0x1b6a6 <_realloc_r+0x3e4>
   1b4ca: 41 04        	addi	s0, s0, 0x10
   1b4cc: 93 87 0b 02  	addi	a5, s7, 0x20
   1b4d0: 18 60        	ld	a4, 0x0(s0)
   1b4d2: 98 e3        	sd	a4, 0x0(a5)
   1b4d4: 18 64        	ld	a4, 0x8(s0)
   1b4d6: 98 e7        	sd	a4, 0x8(a5)
   1b4d8: 18 68        	ld	a4, 0x10(s0)
   1b4da: 98 eb        	sd	a4, 0x10(a5)
   1b4dc: 33 87 9b 00  	add	a4, s7, s1
   1b4e0: b3 07 9b 40  	sub	a5, s6, s1
   1b4e4: 23 38 ec 00  	sd	a4, 0x10(s8)
   1b4e8: 93 e7 17 00  	ori	a5, a5, 0x1
   1b4ec: 1c e7        	sd	a5, 0x8(a4)
   1b4ee: 83 b7 8b 00  	ld	a5, 0x8(s7)
   1b4f2: 4e 85        	mv	a0, s3
   1b4f4: 85 8b        	andi	a5, a5, 0x1
   1b4f6: c5 8f        	or	a5, a5, s1
   1b4f8: 23 b4 fb 00  	sd	a5, 0x8(s7)
   1b4fc: ef a0 3f e1  	jal	0x1630e <__malloc_unlock>
   1b500: 42 6b        	ld	s6, 0x10(sp)
   1b502: a2 6b        	ld	s7, 0x8(sp)
   1b504: 02 6c        	ld	s8, 0x0(sp)
   1b506: d9 b5        	j	0x1b3cc <_realloc_r+0x10a>
   1b508: 14 60        	ld	a3, 0x0(s0)
   1b50a: 13 07 70 03  	li	a4, 0x37
   1b50e: 14 e1        	sd	a3, 0x0(a0)
   1b510: 14 64        	ld	a3, 0x8(s0)
   1b512: 14 e5        	sd	a3, 0x8(a0)
   1b514: 63 6e c7 0c  	bltu	a4, a2, 0x1b5f0 <_realloc_r+0x32e>
   1b518: 13 07 04 01  	addi	a4, s0, 0x10
   1b51c: 93 07 05 01  	addi	a5, a0, 0x10
   1b520: bd bd        	j	0x1b39e <_realloc_r+0xdc>
   1b522: 83 37 85 ff  	ld	a5, -0x8(a0)
   1b526: 02 6c        	ld	s8, 0x0(sp)
   1b528: f1 9b        	andi	a5, a5, -0x4
   1b52a: 3e 9a        	add	s4, s4, a5
   1b52c: c1 b5        	j	0x1b3ec <_realloc_r+0x12a>
   1b52e: 03 b7 8b 01  	ld	a4, 0x18(s7)
   1b532: 83 b6 0b 01  	ld	a3, 0x10(s7)
   1b536: 13 06 8a ff  	addi	a2, s4, -0x8
   1b53a: 93 05 80 04  	li	a1, 0x48
   1b53e: 98 ee        	sd	a4, 0x18(a3)
   1b540: 14 eb        	sd	a3, 0x10(a4)
   1b542: 13 89 0b 01  	addi	s2, s7, 0x10
   1b546: 63 e0 c5 0a  	bltu	a1, a2, 0x1b5e6 <_realloc_r+0x324>
   1b54a: 93 06 70 02  	li	a3, 0x27
   1b54e: 4a 87        	mv	a4, s2
   1b550: 63 ff c6 00  	bgeu	a3, a2, 0x1b56e <_realloc_r+0x2ac>
   1b554: 18 60        	ld	a4, 0x0(s0)
   1b556: 93 07 70 03  	li	a5, 0x37
   1b55a: 23 b8 eb 00  	sd	a4, 0x10(s7)
   1b55e: 18 64        	ld	a4, 0x8(s0)
   1b560: 23 bc eb 00  	sd	a4, 0x18(s7)
   1b564: 63 e6 c7 0c  	bltu	a5, a2, 0x1b630 <_realloc_r+0x36e>
   1b568: 41 04        	addi	s0, s0, 0x10
   1b56a: 13 87 0b 02  	addi	a4, s7, 0x20
   1b56e: 14 60        	ld	a3, 0x0(s0)
   1b570: 14 e3        	sd	a3, 0x0(a4)
   1b572: 14 64        	ld	a3, 0x8(s0)
   1b574: 14 e7        	sd	a3, 0x8(a4)
   1b576: 14 68        	ld	a3, 0x10(s0)
   1b578: 14 eb        	sd	a3, 0x10(a4)
   1b57a: 5a 8a        	mv	s4, s6
   1b57c: de 8a        	mv	s5, s7
   1b57e: 42 6b        	ld	s6, 0x10(sp)
   1b580: a2 6b        	ld	s7, 0x8(sp)
   1b582: 02 6c        	ld	s8, 0x0(sp)
   1b584: 4a 84        	mv	s0, s2
   1b586: 9d b5        	j	0x1b3ec <_realloc_r+0x12a>
   1b588: a2 85        	mv	a1, s0
   1b58a: ef f0 df c1  	jal	0x1b1a6 <memmove>
   1b58e: 31 bd        	j	0x1b3aa <_realloc_r+0xe8>
   1b590: 9c 6e        	ld	a5, 0x18(a3)
   1b592: 98 6a        	ld	a4, 0x10(a3)
   1b594: 13 06 8a ff  	addi	a2, s4, -0x8
   1b598: 93 06 80 04  	li	a3, 0x48
   1b59c: 1c ef        	sd	a5, 0x18(a4)
   1b59e: 98 eb        	sd	a4, 0x10(a5)
   1b5a0: 03 b7 0b 01  	ld	a4, 0x10(s7)
   1b5a4: 83 b7 8b 01  	ld	a5, 0x18(s7)
   1b5a8: 13 89 0b 01  	addi	s2, s7, 0x10
   1b5ac: 1c ef        	sd	a5, 0x18(a4)
   1b5ae: 98 eb        	sd	a4, 0x10(a5)
   1b5b0: 63 eb c6 02  	bltu	a3, a2, 0x1b5e6 <_realloc_r+0x324>
   1b5b4: 13 07 70 02  	li	a4, 0x27
   1b5b8: ca 87        	mv	a5, s2
   1b5ba: 63 7f c7 00  	bgeu	a4, a2, 0x1b5d8 <_realloc_r+0x316>
   1b5be: 18 60        	ld	a4, 0x0(s0)
   1b5c0: 93 07 70 03  	li	a5, 0x37
   1b5c4: 23 b8 eb 00  	sd	a4, 0x10(s7)
   1b5c8: 18 64        	ld	a4, 0x8(s0)
   1b5ca: 23 bc eb 00  	sd	a4, 0x18(s7)
   1b5ce: 63 ec c7 08  	bltu	a5, a2, 0x1b666 <_realloc_r+0x3a4>
   1b5d2: 41 04        	addi	s0, s0, 0x10
   1b5d4: 93 87 0b 02  	addi	a5, s7, 0x20
   1b5d8: 18 60        	ld	a4, 0x0(s0)
   1b5da: 98 e3        	sd	a4, 0x0(a5)
   1b5dc: 18 64        	ld	a4, 0x8(s0)
   1b5de: 98 e7        	sd	a4, 0x8(a5)
   1b5e0: 18 68        	ld	a4, 0x10(s0)
   1b5e2: 98 eb        	sd	a4, 0x10(a5)
   1b5e4: 59 bf        	j	0x1b57a <_realloc_r+0x2b8>
   1b5e6: a2 85        	mv	a1, s0
   1b5e8: 4a 85        	mv	a0, s2
   1b5ea: ef f0 df bb  	jal	0x1b1a6 <memmove>
   1b5ee: 71 b7        	j	0x1b57a <_realloc_r+0x2b8>
   1b5f0: 18 68        	ld	a4, 0x10(s0)
   1b5f2: 18 e9        	sd	a4, 0x10(a0)
   1b5f4: 18 6c        	ld	a4, 0x18(s0)
   1b5f6: 18 ed        	sd	a4, 0x18(a0)
   1b5f8: 63 0e f6 04  	beq	a2, a5, 0x1b654 <_realloc_r+0x392>
   1b5fc: 13 07 04 02  	addi	a4, s0, 0x20
   1b600: 93 07 05 02  	addi	a5, a0, 0x20
   1b604: 69 bb        	j	0x1b39e <_realloc_r+0xdc>
   1b606: a6 9a        	add	s5, s5, s1
   1b608: b3 87 96 40  	sub	a5, a3, s1
   1b60c: 23 38 5c 01  	sd	s5, 0x10(s8)
   1b610: 93 e7 17 00  	ori	a5, a5, 0x1
   1b614: 23 b4 fa 00  	sd	a5, 0x8(s5)
   1b618: 83 37 84 ff  	ld	a5, -0x8(s0)
   1b61c: 4e 85        	mv	a0, s3
   1b61e: 22 89        	mv	s2, s0
   1b620: 85 8b        	andi	a5, a5, 0x1
   1b622: c5 8f        	or	a5, a5, s1
   1b624: 23 3c f4 fe  	sd	a5, -0x8(s0)
   1b628: ef a0 7f ce  	jal	0x1630e <__malloc_unlock>
   1b62c: 02 6c        	ld	s8, 0x0(sp)
   1b62e: 79 bb        	j	0x1b3cc <_realloc_r+0x10a>
   1b630: 1c 68        	ld	a5, 0x10(s0)
   1b632: 23 b0 fb 02  	sd	a5, 0x20(s7)
   1b636: 1c 6c        	ld	a5, 0x18(s0)
   1b638: 23 b4 fb 02  	sd	a5, 0x28(s7)
   1b63c: 63 09 b6 04  	beq	a2, a1, 0x1b68e <_realloc_r+0x3cc>
   1b640: 13 04 04 02  	addi	s0, s0, 0x20
   1b644: 13 87 0b 03  	addi	a4, s7, 0x30
   1b648: 1d b7        	j	0x1b56e <_realloc_r+0x2ac>
   1b64a: 4e 85        	mv	a0, s3
   1b64c: ef a0 3f cc  	jal	0x1630e <__malloc_unlock>
   1b650: 02 6c        	ld	s8, 0x0(sp)
   1b652: a5 bb        	j	0x1b3ca <_realloc_r+0x108>
   1b654: 14 70        	ld	a3, 0x20(s0)
   1b656: 13 07 04 03  	addi	a4, s0, 0x30
   1b65a: 93 07 05 03  	addi	a5, a0, 0x30
   1b65e: 14 f1        	sd	a3, 0x20(a0)
   1b660: 14 74        	ld	a3, 0x28(s0)
   1b662: 14 f5        	sd	a3, 0x28(a0)
   1b664: 2d bb        	j	0x1b39e <_realloc_r+0xdc>
   1b666: 18 68        	ld	a4, 0x10(s0)
   1b668: 93 07 80 04  	li	a5, 0x48
   1b66c: 23 b0 eb 02  	sd	a4, 0x20(s7)
   1b670: 18 6c        	ld	a4, 0x18(s0)
   1b672: 23 b4 eb 02  	sd	a4, 0x28(s7)
   1b676: 63 05 f6 04  	beq	a2, a5, 0x1b6c0 <_realloc_r+0x3fe>
   1b67a: 13 04 04 02  	addi	s0, s0, 0x20
   1b67e: 93 87 0b 03  	addi	a5, s7, 0x30
   1b682: 99 bf        	j	0x1b5d8 <_realloc_r+0x316>
   1b684: a2 85        	mv	a1, s0
   1b686: 4a 85        	mv	a0, s2
   1b688: ef f0 ff b1  	jal	0x1b1a6 <memmove>
   1b68c: 81 bd        	j	0x1b4dc <_realloc_r+0x21a>
   1b68e: 1c 70        	ld	a5, 0x20(s0)
   1b690: 13 87 0b 04  	addi	a4, s7, 0x40
   1b694: 13 04 04 03  	addi	s0, s0, 0x30
   1b698: 23 b8 fb 02  	sd	a5, 0x30(s7)
   1b69c: 83 37 84 ff  	ld	a5, -0x8(s0)
   1b6a0: 23 bc fb 02  	sd	a5, 0x38(s7)
   1b6a4: e9 b5        	j	0x1b56e <_realloc_r+0x2ac>
   1b6a6: 1c 68        	ld	a5, 0x10(s0)
   1b6a8: 23 b0 fb 02  	sd	a5, 0x20(s7)
   1b6ac: 1c 6c        	ld	a5, 0x18(s0)
   1b6ae: 23 b4 fb 02  	sd	a5, 0x28(s7)
   1b6b2: 63 03 d6 02  	beq	a2, a3, 0x1b6d8 <_realloc_r+0x416>
   1b6b6: 13 04 04 02  	addi	s0, s0, 0x20
   1b6ba: 93 87 0b 03  	addi	a5, s7, 0x30
   1b6be: 09 bd        	j	0x1b4d0 <_realloc_r+0x20e>
   1b6c0: 18 70        	ld	a4, 0x20(s0)
   1b6c2: 93 87 0b 04  	addi	a5, s7, 0x40
   1b6c6: 13 04 04 03  	addi	s0, s0, 0x30
   1b6ca: 23 b8 eb 02  	sd	a4, 0x30(s7)
   1b6ce: 03 37 84 ff  	ld	a4, -0x8(s0)
   1b6d2: 23 bc eb 02  	sd	a4, 0x38(s7)
   1b6d6: 09 b7        	j	0x1b5d8 <_realloc_r+0x316>
   1b6d8: 18 70        	ld	a4, 0x20(s0)
   1b6da: 93 87 0b 04  	addi	a5, s7, 0x40
   1b6de: 13 04 04 03  	addi	s0, s0, 0x30
   1b6e2: 23 b8 eb 02  	sd	a4, 0x30(s7)
   1b6e6: 03 37 84 ff  	ld	a4, -0x8(s0)
   1b6ea: 23 bc eb 02  	sd	a4, 0x38(s7)
   1b6ee: cd b3        	j	0x1b4d0 <_realloc_r+0x20e>

000000000001b6f0 <strcmp>:
   1b6f0: 33 67 b5 00  	or	a4, a0, a1
   1b6f4: fd 53        	li	t2, -0x1
   1b6f6: 1d 8b        	andi	a4, a4, 0x7
   1b6f8: 4d eb        	bnez	a4, 0x1b7aa <strcmp+0xba>
   1b6fa: 97 67 00 00  	auipc	a5, 0x6
   1b6fe: 83 b7 67 ca  	ld	a5, -0x35a(a5)
   1b702: 10 61        	ld	a2, 0x0(a0)
   1b704: 94 61        	ld	a3, 0x0(a1)
   1b706: b3 72 f6 00  	and	t0, a2, a5
   1b70a: 33 63 f6 00  	or	t1, a2, a5
   1b70e: be 92        	add	t0, t0, a5
   1b710: b3 e2 62 00  	or	t0, t0, t1
   1b714: 63 99 72 0a  	bne	t0, t2, 0x1b7c6 <strcmp+0xd6>
   1b718: 63 1e d6 02  	bne	a2, a3, 0x1b754 <strcmp+0x64>
   1b71c: 10 65        	ld	a2, 0x8(a0)
   1b71e: 94 65        	ld	a3, 0x8(a1)
   1b720: b3 72 f6 00  	and	t0, a2, a5
   1b724: 33 63 f6 00  	or	t1, a2, a5
   1b728: be 92        	add	t0, t0, a5
   1b72a: b3 e2 62 00  	or	t0, t0, t1
   1b72e: 63 9a 72 08  	bne	t0, t2, 0x1b7c2 <strcmp+0xd2>
   1b732: 63 11 d6 02  	bne	a2, a3, 0x1b754 <strcmp+0x64>
   1b736: 10 69        	ld	a2, 0x10(a0)
   1b738: 94 69        	ld	a3, 0x10(a1)
   1b73a: b3 72 f6 00  	and	t0, a2, a5
   1b73e: 33 63 f6 00  	or	t1, a2, a5
   1b742: be 92        	add	t0, t0, a5
   1b744: b3 e2 62 00  	or	t0, t0, t1
   1b748: 63 93 72 08  	bne	t0, t2, 0x1b7ce <strcmp+0xde>
   1b74c: 61 05        	addi	a0, a0, 0x18
   1b74e: e1 05        	addi	a1, a1, 0x18
   1b750: e3 09 d6 fa  	beq	a2, a3, 0x1b702 <strcmp+0x12>
   1b754: 13 17 06 03  	slli	a4, a2, 0x30
   1b758: 93 97 06 03  	slli	a5, a3, 0x30
   1b75c: 63 18 f7 02  	bne	a4, a5, 0x1b78c <strcmp+0x9c>
   1b760: 13 17 06 02  	slli	a4, a2, 0x20
   1b764: 93 97 06 02  	slli	a5, a3, 0x20
   1b768: 63 12 f7 02  	bne	a4, a5, 0x1b78c <strcmp+0x9c>
   1b76c: 13 17 06 01  	slli	a4, a2, 0x10
   1b770: 93 97 06 01  	slli	a5, a3, 0x10
   1b774: 63 1c f7 00  	bne	a4, a5, 0x1b78c <strcmp+0x9c>
   1b778: 13 57 06 03  	srli	a4, a2, 0x30
   1b77c: 93 d7 06 03  	srli	a5, a3, 0x30
   1b780: 33 05 f7 40  	sub	a0, a4, a5
   1b784: 93 75 f5 0f  	andi	a1, a0, 0xff
   1b788: 91 e9        	bnez	a1, 0x1b79c <strcmp+0xac>
   1b78a: 82 80        	ret
   1b78c: 41 93        	srli	a4, a4, 0x30
   1b78e: c1 93        	srli	a5, a5, 0x30
   1b790: 33 05 f7 40  	sub	a0, a4, a5
   1b794: 93 75 f5 0f  	andi	a1, a0, 0xff
   1b798: 91 e1        	bnez	a1, 0x1b79c <strcmp+0xac>
   1b79a: 82 80        	ret
   1b79c: 13 77 f7 0f  	andi	a4, a4, 0xff
   1b7a0: 93 f7 f7 0f  	andi	a5, a5, 0xff
   1b7a4: 33 05 f7 40  	sub	a0, a4, a5
   1b7a8: 82 80        	ret
   1b7aa: 03 46 05 00  	lbu	a2, 0x0(a0)
   1b7ae: 83 c6 05 00  	lbu	a3, 0x0(a1)
   1b7b2: 05 05        	addi	a0, a0, 0x1
   1b7b4: 85 05        	addi	a1, a1, 0x1
   1b7b6: 63 13 d6 00  	bne	a2, a3, 0x1b7bc <strcmp+0xcc>
   1b7ba: 65 fa        	bnez	a2, 0x1b7aa <strcmp+0xba>
   1b7bc: 33 05 d6 40  	sub	a0, a2, a3
   1b7c0: 82 80        	ret
   1b7c2: 21 05        	addi	a0, a0, 0x8
   1b7c4: a1 05        	addi	a1, a1, 0x8
   1b7c6: e3 12 d6 fe  	bne	a2, a3, 0x1b7aa <strcmp+0xba>
   1b7ca: 01 45        	li	a0, 0x0
   1b7cc: 82 80        	ret
   1b7ce: 41 05        	addi	a0, a0, 0x10
   1b7d0: c1 05        	addi	a1, a1, 0x10
   1b7d2: e3 1c d6 fc  	bne	a2, a3, 0x1b7aa <strcmp+0xba>
   1b7d6: 01 45        	li	a0, 0x0
   1b7d8: 82 80        	ret

000000000001b7da <__ssprint_r>:
   1b7da: 1c 6a        	ld	a5, 0x10(a2)
   1b7dc: 5d 71        	addi	sp, sp, -0x50
   1b7de: 56 ec        	sd	s5, 0x18(sp)
   1b7e0: 86 e4        	sd	ra, 0x48(sp)
   1b7e2: b2 8a        	mv	s5, a2
   1b7e4: bd c7        	beqz	a5, 0x1b852 <__ssprint_r+0x78>
   1b7e6: 4e f4        	sd	s3, 0x28(sp)
   1b7e8: 9c 61        	ld	a5, 0x0(a1)
   1b7ea: 83 39 06 00  	ld	s3, 0x0(a2)
   1b7ee: a2 e0        	sd	s0, 0x40(sp)
   1b7f0: 26 fc        	sd	s1, 0x38(sp)
   1b7f2: 52 f0        	sd	s4, 0x20(sp)
   1b7f4: 5a e8        	sd	s6, 0x10(sp)
   1b7f6: 4a f8        	sd	s2, 0x30(sp)
   1b7f8: 5e e4        	sd	s7, 0x8(sp)
   1b7fa: 62 e0        	sd	s8, 0x0(sp)
   1b7fc: 2a 8b        	mv	s6, a0
   1b7fe: ae 84        	mv	s1, a1
   1b800: 01 4a        	li	s4, 0x0
   1b802: 01 44        	li	s0, 0x0
   1b804: 31 cc        	beqz	s0, 0x1b860 <__ssprint_r+0x86>
   1b806: 03 a9 c4 00  	lw	s2, 0xc(s1)
   1b80a: 63 71 24 07  	bgeu	s0, s2, 0x1b86c <__ssprint_r+0x92>
   1b80e: 1b 07 04 00  	sext.w	a4, s0
   1b812: 3a 89        	mv	s2, a4
   1b814: 3e 85        	mv	a0, a5
   1b816: ba 8b        	mv	s7, a4
   1b818: d2 85        	mv	a1, s4
   1b81a: 4a 86        	mv	a2, s2
   1b81c: ef f0 bf 98  	jal	0x1b1a6 <memmove>
   1b820: d4 44        	lw	a3, 0xc(s1)
   1b822: 9c 60        	ld	a5, 0x0(s1)
   1b824: 03 b7 0a 01  	ld	a4, 0x10(s5)
   1b828: bb 86 26 41  	subw	a3, a3, s2
   1b82c: ca 97        	add	a5, a5, s2
   1b82e: d4 c4        	sw	a3, 0xc(s1)
   1b830: 9c e0        	sd	a5, 0x0(s1)
   1b832: 33 07 77 41  	sub	a4, a4, s7
   1b836: 23 b8 ea 00  	sd	a4, 0x10(s5)
   1b83a: 5e 9a        	add	s4, s4, s7
   1b83c: 33 04 74 41  	sub	s0, s0, s7
   1b840: 71 f3        	bnez	a4, 0x1b804 <__ssprint_r+0x2a>
   1b842: 06 64        	ld	s0, 0x40(sp)
   1b844: e2 74        	ld	s1, 0x38(sp)
   1b846: 42 79        	ld	s2, 0x30(sp)
   1b848: a2 79        	ld	s3, 0x28(sp)
   1b84a: 02 7a        	ld	s4, 0x20(sp)
   1b84c: 42 6b        	ld	s6, 0x10(sp)
   1b84e: a2 6b        	ld	s7, 0x8(sp)
   1b850: 02 6c        	ld	s8, 0x0(sp)
   1b852: a6 60        	ld	ra, 0x48(sp)
   1b854: 23 a4 0a 00  	sw	zero, 0x8(s5)
   1b858: 01 45        	li	a0, 0x0
   1b85a: e2 6a        	ld	s5, 0x18(sp)
   1b85c: 61 61        	addi	sp, sp, 0x50
   1b85e: 82 80        	ret
   1b860: 03 ba 09 00  	ld	s4, 0x0(s3)
   1b864: 03 b4 89 00  	ld	s0, 0x8(s3)
   1b868: c1 09        	addi	s3, s3, 0x10
   1b86a: 69 bf        	j	0x1b804 <__ssprint_r+0x2a>
   1b86c: 03 97 04 01  	lh	a4, 0x10(s1)
   1b870: 3e 85        	mv	a0, a5
   1b872: 9b 0b 04 00  	sext.w	s7, s0
   1b876: 93 76 07 48  	andi	a3, a4, 0x480
   1b87a: d9 de        	beqz	a3, 0x1b818 <__ssprint_r+0x3e>
   1b87c: 90 50        	lw	a2, 0x20(s1)
   1b87e: 8c 6c        	ld	a1, 0x18(s1)
   1b880: 9b 16 16 00  	slliw	a3, a2, 0x1
   1b884: b1 9e        	addw	a3, a3, a2
   1b886: 8d 8f        	sub	a5, a5, a1
   1b888: 1b d9 f6 01  	srliw	s2, a3, 0x1f
   1b88c: 9b 8b 07 00  	sext.w	s7, a5
   1b890: 3b 09 d9 00  	addw	s2, s2, a3
   1b894: 93 86 1b 00  	addi	a3, s7, 0x1
   1b898: 1b 59 19 40  	sraiw	s2, s2, 0x1
   1b89c: a2 96        	add	a3, a3, s0
   1b89e: 63 75 d9 00  	bgeu	s2, a3, 0x1b8a8 <__ssprint_r+0xce>
   1b8a2: 85 27        	addiw	a5, a5, 0x1
   1b8a4: 3b 89 87 00  	addw	s2, a5, s0
   1b8a8: 13 77 07 40  	andi	a4, a4, 0x400
   1b8ac: 31 c7        	beqz	a4, 0x1b8f8 <__ssprint_r+0x11e>
   1b8ae: ca 85        	mv	a1, s2
   1b8b0: 5a 85        	mv	a0, s6
   1b8b2: ef a0 6f b6  	jal	0x15c18 <_malloc_r>
   1b8b6: 2a 8c        	mv	s8, a0
   1b8b8: 31 c9        	beqz	a0, 0x1b90c <__ssprint_r+0x132>
   1b8ba: 8c 6c        	ld	a1, 0x18(s1)
   1b8bc: 5e 86        	mv	a2, s7
   1b8be: ef f0 bf 82  	jal	0x1b0e8 <memcpy>
   1b8c2: 83 d7 04 01  	lhu	a5, 0x10(s1)
   1b8c6: 93 f7 f7 b7  	andi	a5, a5, -0x481
   1b8ca: 93 e7 07 08  	ori	a5, a5, 0x80
   1b8ce: 23 98 f4 00  	sh	a5, 0x10(s1)
   1b8d2: 33 05 7c 01  	add	a0, s8, s7
   1b8d6: bb 0b 79 41  	subw	s7, s2, s7
   1b8da: 1b 07 04 00  	sext.w	a4, s0
   1b8de: 23 a6 74 01  	sw	s7, 0xc(s1)
   1b8e2: 23 a0 24 03  	sw	s2, 0x20(s1)
   1b8e6: 23 bc 84 01  	sd	s8, 0x18(s1)
   1b8ea: 88 e0        	sd	a0, 0x0(s1)
   1b8ec: 3a 89        	mv	s2, a4
   1b8ee: ba 8b        	mv	s7, a4
   1b8f0: aa 87        	mv	a5, a0
   1b8f2: e3 73 e4 f2  	bgeu	s0, a4, 0x1b818 <__ssprint_r+0x3e>
   1b8f6: 31 bf        	j	0x1b812 <__ssprint_r+0x38>
   1b8f8: 4a 86        	mv	a2, s2
   1b8fa: 5a 85        	mv	a0, s6
   1b8fc: ef f0 7f 9c  	jal	0x1b2c2 <_realloc_r>
   1b900: 2a 8c        	mv	s8, a0
   1b902: 61 f9        	bnez	a0, 0x1b8d2 <__ssprint_r+0xf8>
   1b904: 8c 6c        	ld	a1, 0x18(s1)
   1b906: 5a 85        	mv	a0, s6
   1b908: ef 70 7f a9  	jal	0x1339e <_free_r>
   1b90c: 83 d7 04 01  	lhu	a5, 0x10(s1)
   1b910: 31 47        	li	a4, 0xc
   1b912: 23 20 eb 00  	sw	a4, 0x0(s6)
   1b916: 06 64        	ld	s0, 0x40(sp)
   1b918: a6 60        	ld	ra, 0x48(sp)
   1b91a: 93 e7 07 04  	ori	a5, a5, 0x40
   1b91e: 23 98 f4 00  	sh	a5, 0x10(s1)
   1b922: 42 79        	ld	s2, 0x30(sp)
   1b924: e2 74        	ld	s1, 0x38(sp)
   1b926: a2 79        	ld	s3, 0x28(sp)
   1b928: 02 7a        	ld	s4, 0x20(sp)
   1b92a: 42 6b        	ld	s6, 0x10(sp)
   1b92c: a2 6b        	ld	s7, 0x8(sp)
   1b92e: 02 6c        	ld	s8, 0x0(sp)
   1b930: 23 b8 0a 00  	sd	zero, 0x10(s5)
   1b934: 23 a4 0a 00  	sw	zero, 0x8(s5)
   1b938: 7d 55        	li	a0, -0x1
   1b93a: e2 6a        	ld	s5, 0x18(sp)
   1b93c: 61 61        	addi	sp, sp, 0x50
   1b93e: 82 80        	ret

000000000001b940 <_svfiprintf_r>:
   1b940: 83 d7 05 01  	lhu	a5, 0x10(a1)
   1b944: 05 71        	addi	sp, sp, -0x1e0
   1b946: 5a f3        	sd	s6, 0x1a0(sp)
   1b948: 66 e7        	sd	s9, 0x188(sp)
   1b94a: 86 ef        	sd	ra, 0x1d8(sp)
   1b94c: 93 f7 07 08  	andi	a5, a5, 0x80
   1b950: 2a e0        	sd	a0, 0x0(sp)
   1b952: 2e 8b        	mv	s6, a1
   1b954: 32 87        	mv	a4, a2
   1b956: b6 8c        	mv	s9, a3
   1b958: 81 c7        	beqz	a5, 0x1b960 <_svfiprintf_r+0x20>
   1b95a: 9c 6d        	ld	a5, 0x18(a1)
   1b95c: e3 85 07 38  	beqz	a5, 0x1c4e6 <_svfiprintf_r+0xba6>
   1b960: a2 eb        	sd	s0, 0x1d0(sp)
   1b962: a6 e7        	sd	s1, 0x1c8(sp)
   1b964: ca e3        	sd	s2, 0x1c0(sp)
   1b966: 4e ff        	sd	s3, 0x1b8(sp)
   1b968: 52 fb        	sd	s4, 0x1b0(sp)
   1b96a: 56 f7        	sd	s5, 0x1a8(sp)
   1b96c: 5e ef        	sd	s7, 0x198(sp)
   1b96e: 62 eb        	sd	s8, 0x190(sp)
   1b970: 6a e3        	sd	s10, 0x180(sp)
   1b972: ee fe        	sd	s11, 0x178(sp)
   1b974: 93 0b 01 0f  	addi	s7, sp, 0xf0
   1b978: de f8        	sd	s7, 0x70(sp)
   1b97a: de 84        	mv	s1, s7
   1b97c: 01 49        	li	s2, 0x0
   1b97e: 01 44        	li	s0, 0x0
   1b980: 02 fc        	sd	zero, 0x38(sp)
   1b982: 02 f8        	sd	zero, 0x30(sp)
   1b984: 82 e0        	sd	zero, 0x40(sp)
   1b986: 02 e4        	sd	zero, 0x8(sp)
   1b988: 13 0c 50 02  	li	s8, 0x25
   1b98c: 9d 4a        	li	s5, 0x7
   1b98e: 17 3d 00 00  	auipc	s10, 0x3
   1b992: 13 0d 2d 4a  	addi	s10, s10, 0x4a2
   1b996: 41 4a        	li	s4, 0x10
   1b998: ba 8d        	mv	s11, a4
   1b99a: e6 8e        	mv	t4, s9
   1b99c: 83 c7 0d 00  	lbu	a5, 0x0(s11)
   1b9a0: 63 84 07 12  	beqz	a5, 0x1bac8 <_svfiprintf_r+0x188>
   1b9a4: ee 89        	mv	s3, s11
   1b9a6: 63 8c 87 17  	beq	a5, s8, 0x1bb1e <_svfiprintf_r+0x1de>
   1b9aa: 83 c7 19 00  	lbu	a5, 0x1(s3)
   1b9ae: 85 09        	addi	s3, s3, 0x1
   1b9b0: fd fb        	bnez	a5, 0x1b9a6 <_svfiprintf_r+0x66>
   1b9b2: bb 8c b9 41  	subw	s9, s3, s11
   1b9b6: 63 89 0c 10  	beqz	s9, 0x1bac8 <_svfiprintf_r+0x188>
   1b9ba: 23 b0 b4 01  	sd	s11, 0x0(s1)
   1b9be: 23 b4 94 01  	sd	s9, 0x8(s1)
   1b9c2: 05 24        	addiw	s0, s0, 0x1
   1b9c4: 66 99        	add	s2, s2, s9
   1b9c6: c1 04        	addi	s1, s1, 0x10
   1b9c8: 63 c2 8a 16  	blt	s5, s0, 0x1bb2c <_svfiprintf_r+0x1ec>
   1b9cc: 22 67        	ld	a4, 0x8(sp)
   1b9ce: 83 c7 09 00  	lbu	a5, 0x0(s3)
   1b9d2: 3b 07 97 01  	addw	a4, a4, s9
   1b9d6: 3a e4        	sd	a4, 0x8(sp)
   1b9d8: e5 cb        	beqz	a5, 0x1bac8 <_svfiprintf_r+0x188>
   1b9da: 03 c6 19 00  	lbu	a2, 0x1(s3)
   1b9de: 93 8d 19 00  	addi	s11, s3, 0x1
   1b9e2: a3 03 01 06  	sb	zero, 0x67(sp)
   1b9e6: fd 59        	li	s3, -0x1
   1b9e8: 81 46        	li	a3, 0x0
   1b9ea: 81 47        	li	a5, 0x0
   1b9ec: 93 0c a0 05  	li	s9, 0x5a
   1b9f0: 85 0d        	addi	s11, s11, 0x1
   1b9f2: 1b 07 06 fe  	addiw	a4, a2, -0x20
   1b9f6: 63 e1 ec 04  	bltu	s9, a4, 0x1ba38 <_svfiprintf_r+0xf8>
   1b9fa: 93 15 07 02  	slli	a1, a4, 0x20
   1b9fe: 13 d7 e5 01  	srli	a4, a1, 0x1e
   1ba02: 6a 97        	add	a4, a4, s10
   1ba04: 18 43        	lw	a4, 0x0(a4)
   1ba06: 6a 97        	add	a4, a4, s10
   1ba08: 02 87        	jr	a4
   1ba0a: 81 46        	li	a3, 0x0
   1ba0c: 25 45        	li	a0, 0x9
   1ba0e: 83 c5 0d 00  	lbu	a1, 0x0(s11)
   1ba12: 1b 97 26 00  	slliw	a4, a3, 0x2
   1ba16: b9 9e        	addw	a3, a3, a4
   1ba18: 1b 06 06 fd  	addiw	a2, a2, -0x30
   1ba1c: 9b 96 16 00  	slliw	a3, a3, 0x1
   1ba20: 1b 87 05 fd  	addiw	a4, a1, -0x30
   1ba24: 85 0d        	addi	s11, s11, 0x1
   1ba26: b1 9e        	addw	a3, a3, a2
   1ba28: 1b 86 05 00  	sext.w	a2, a1
   1ba2c: e3 71 e5 fe  	bgeu	a0, a4, 0x1ba0e <_svfiprintf_r+0xce>
   1ba30: 1b 07 06 fe  	addiw	a4, a2, -0x20
   1ba34: e3 f3 ec fc  	bgeu	s9, a4, 0x1b9fa <_svfiprintf_r+0xba>
   1ba38: 41 ca        	beqz	a2, 0x1bac8 <_svfiprintf_r+0x188>
   1ba3a: 05 43        	li	t1, 0x1
   1ba3c: 23 04 c1 08  	sb	a2, 0x88(sp)
   1ba40: a3 03 01 06  	sb	zero, 0x67(sp)
   1ba44: 9a 88        	mv	a7, t1
   1ba46: 81 49        	li	s3, 0x0
   1ba48: 93 0c 81 08  	addi	s9, sp, 0x88
   1ba4c: 13 ff 47 08  	andi	t5, a5, 0x84
   1ba50: 63 01 0f 16  	beqz	t5, 0x1bbb2 <_svfiprintf_r+0x272>
   1ba54: 03 46 71 06  	lbu	a2, 0x67(sp)
   1ba58: 11 ce        	beqz	a2, 0x1ba74 <_svfiprintf_r+0x134>
   1ba5a: 05 46        	li	a2, 0x1
   1ba5c: 93 05 71 06  	addi	a1, sp, 0x67
   1ba60: 90 e4        	sd	a2, 0x8(s1)
   1ba62: 8c e0        	sd	a1, 0x0(s1)
   1ba64: 19 46        	li	a2, 0x6
   1ba66: 05 09        	addi	s2, s2, 0x1
   1ba68: 1b 05 14 00  	addiw	a0, s0, 0x1
   1ba6c: e3 41 86 0e  	blt	a2, s0, 0x1c34e <_svfiprintf_r+0xa0e>
   1ba70: c1 04        	addi	s1, s1, 0x10
   1ba72: 2a 84        	mv	s0, a0
   1ba74: 13 06 00 08  	li	a2, 0x80
   1ba78: 63 16 cf 00  	bne	t5, a2, 0x1ba84 <_svfiprintf_r+0x144>
   1ba7c: 3b 8e 16 41  	subw	t3, a3, a7
   1ba80: e3 4a c0 01  	bgtz	t3, 0x1c294 <_svfiprintf_r+0x954>
   1ba84: bb 89 69 40  	subw	s3, s3, t1
   1ba88: 63 4c 30 15  	bgtz	s3, 0x1bbe0 <_svfiprintf_r+0x2a0>
   1ba8c: 23 b0 94 01  	sd	s9, 0x0(s1)
   1ba90: 23 b4 64 00  	sd	t1, 0x8(s1)
   1ba94: 05 24        	addiw	s0, s0, 0x1
   1ba96: 1a 99        	add	s2, s2, t1
   1ba98: c1 04        	addi	s1, s1, 0x10
   1ba9a: 63 c0 8a 20  	blt	s5, s0, 0x1bc9a <_svfiprintf_r+0x35a>
   1ba9e: 91 8b        	andi	a5, a5, 0x4
   1baa0: 89 c7        	beqz	a5, 0x1baaa <_svfiprintf_r+0x16a>
   1baa2: bb 89 16 41  	subw	s3, a3, a7
   1baa6: 63 4d 30 73  	bgtz	s3, 0x1c1e0 <_svfiprintf_r+0x8a0>
   1baaa: c6 87        	mv	a5, a7
   1baac: 63 d3 d8 00  	bge	a7, a3, 0x1bab2 <_svfiprintf_r+0x172>
   1bab0: b6 87        	mv	a5, a3
   1bab2: 22 67        	ld	a4, 0x8(sp)
   1bab4: b9 9f        	addw	a5, a5, a4
   1bab6: 3e e4        	sd	a5, 0x8(sp)
   1bab8: 63 1a 09 62  	bnez	s2, 0x1c0ec <_svfiprintf_r+0x7ac>
   1babc: 83 c7 0d 00  	lbu	a5, 0x0(s11)
   1bac0: 01 44        	li	s0, 0x0
   1bac2: de 84        	mv	s1, s7
   1bac4: e3 90 07 ee  	bnez	a5, 0x1b9a4 <_svfiprintf_r+0x64>
   1bac8: e3 17 09 50  	bnez	s2, 0x1c7d6 <_svfiprintf_r+0xe96>
   1bacc: 83 57 0b 01  	lhu	a5, 0x10(s6)
   1bad0: 5e 64        	ld	s0, 0x1d0(sp)
   1bad2: be 64        	ld	s1, 0x1c8(sp)
   1bad4: 93 f7 07 04  	andi	a5, a5, 0x40
   1bad8: 1e 69        	ld	s2, 0x1c0(sp)
   1bada: fa 79        	ld	s3, 0x1b8(sp)
   1badc: 5a 7a        	ld	s4, 0x1b0(sp)
   1bade: ba 7a        	ld	s5, 0x1a8(sp)
   1bae0: fa 6b        	ld	s7, 0x198(sp)
   1bae2: 5a 6c        	ld	s8, 0x190(sp)
   1bae4: 1a 6d        	ld	s10, 0x180(sp)
   1bae6: f6 7d        	ld	s11, 0x178(sp)
   1bae8: e3 94 07 56  	bnez	a5, 0x1c850 <_svfiprintf_r+0xf10>
   1baec: fe 60        	ld	ra, 0x1d8(sp)
   1baee: 22 65        	ld	a0, 0x8(sp)
   1baf0: 1a 7b        	ld	s6, 0x1a0(sp)
   1baf2: ba 6c        	ld	s9, 0x188(sp)
   1baf4: 3d 61        	addi	sp, sp, 0x1e0
   1baf6: 82 80        	ret
   1baf8: 93 e7 07 01  	ori	a5, a5, 0x10
   1bafc: 03 c6 0d 00  	lbu	a2, 0x0(s11)
   1bb00: 81 27        	sext.w	a5, a5
   1bb02: fd b5        	j	0x1b9f0 <_svfiprintf_r+0xb0>
   1bb04: 83 a6 0e 00  	lw	a3, 0x0(t4)
   1bb08: a1 0e        	addi	t4, t4, 0x8
   1bb0a: 63 d2 06 2a  	bgez	a3, 0x1bdae <_svfiprintf_r+0x46e>
   1bb0e: bb 06 d0 40  	negw	a3, a3
   1bb12: 93 e7 47 00  	ori	a5, a5, 0x4
   1bb16: 03 c6 0d 00  	lbu	a2, 0x0(s11)
   1bb1a: 81 27        	sext.w	a5, a5
   1bb1c: d1 bd        	j	0x1b9f0 <_svfiprintf_r+0xb0>
   1bb1e: bb 8c b9 41  	subw	s9, s3, s11
   1bb22: e3 9c 0c e8  	bnez	s9, 0x1b9ba <_svfiprintf_r+0x7a>
   1bb26: 83 c7 09 00  	lbu	a5, 0x0(s3)
   1bb2a: 7d b5        	j	0x1b9d8 <_svfiprintf_r+0x98>
   1bb2c: 02 65        	ld	a0, 0x0(sp)
   1bb2e: 90 18        	addi	a2, sp, 0x70
   1bb30: da 85        	mv	a1, s6
   1bb32: a2 dc        	sw	s0, 0x78(sp)
   1bb34: 4a e1        	sd	s2, 0x80(sp)
   1bb36: 76 e8        	sd	t4, 0x10(sp)
   1bb38: ef f0 3f ca  	jal	0x1b7da <__ssprint_r>
   1bb3c: 66 54        	lw	s0, 0x78(sp)
   1bb3e: 0a 69        	ld	s2, 0x80(sp)
   1bb40: 51 f5        	bnez	a0, 0x1bacc <_svfiprintf_r+0x18c>
   1bb42: c2 6e        	ld	t4, 0x10(sp)
   1bb44: de 84        	mv	s1, s7
   1bb46: 59 b5        	j	0x1b9cc <_svfiprintf_r+0x8c>
   1bb48: 13 f6 07 02  	andi	a2, a5, 0x20
   1bb4c: 93 85 8e 00  	addi	a1, t4, 0x8
   1bb50: e3 11 06 08  	bnez	a2, 0x1c3d2 <_svfiprintf_r+0xa92>
   1bb54: 13 f6 07 01  	andi	a2, a5, 0x10
   1bb58: e3 1d 06 06  	bnez	a2, 0x1c3d2 <_svfiprintf_r+0xa92>
   1bb5c: 13 f6 07 04  	andi	a2, a5, 0x40
   1bb60: 03 a8 0e 00  	lw	a6, 0x0(t4)
   1bb64: e3 0e 06 38  	beqz	a2, 0x1c700 <_svfiprintf_r+0xdc0>
   1bb68: 1b 18 08 01  	slliw	a6, a6, 0x10
   1bb6c: 1b 58 08 41  	sraiw	a6, a6, 0x10
   1bb70: ae 8e        	mv	t4, a1
   1bb72: 42 86        	mv	a2, a6
   1bb74: 63 43 06 3e  	bltz	a2, 0x1bf5a <_svfiprintf_r+0x61a>
   1bb78: 63 cf 09 1a  	bltz	s3, 0x1bd36 <_svfiprintf_r+0x3f6>
   1bb7c: 13 f6 f7 f7  	andi	a2, a5, -0x81
   1bb80: 01 26        	sext.w	a2, a2
   1bb82: e3 12 08 06  	bnez	a6, 0x1c3e6 <_svfiprintf_r+0xaa6>
   1bb86: e3 87 09 3e  	beqz	s3, 0x1c774 <_svfiprintf_r+0xe34>
   1bb8a: b2 87        	mv	a5, a2
   1bb8c: 13 06 00 03  	li	a2, 0x30
   1bb90: 55 aa        	j	0x1bd44 <_svfiprintf_r+0x404>
   1bb92: 03 a6 0e 00  	lw	a2, 0x0(t4)
   1bb96: 05 43        	li	t1, 0x1
   1bb98: a3 03 01 06  	sb	zero, 0x67(sp)
   1bb9c: 23 04 c1 08  	sb	a2, 0x88(sp)
   1bba0: 13 ff 47 08  	andi	t5, a5, 0x84
   1bba4: a1 0e        	addi	t4, t4, 0x8
   1bba6: 9a 88        	mv	a7, t1
   1bba8: 81 49        	li	s3, 0x0
   1bbaa: 93 0c 81 08  	addi	s9, sp, 0x88
   1bbae: e3 13 0f ea  	bnez	t5, 0x1ba54 <_svfiprintf_r+0x114>
   1bbb2: 3b 88 16 41  	subw	a6, a3, a7
   1bbb6: 63 49 00 55  	bgtz	a6, 0x1c108 <_svfiprintf_r+0x7c8>
   1bbba: 03 46 71 06  	lbu	a2, 0x67(sp)
   1bbbe: e3 03 06 ec  	beqz	a2, 0x1ba84 <_svfiprintf_r+0x144>
   1bbc2: 05 46        	li	a2, 0x1
   1bbc4: 93 05 71 06  	addi	a1, sp, 0x67
   1bbc8: 90 e4        	sd	a2, 0x8(s1)
   1bbca: 05 24        	addiw	s0, s0, 0x1
   1bbcc: 8c e0        	sd	a1, 0x0(s1)
   1bbce: 1d 46        	li	a2, 0x7
   1bbd0: 05 09        	addi	s2, s2, 0x1
   1bbd2: 63 4d 86 76  	blt	a2, s0, 0x1c34c <_svfiprintf_r+0xa0c>
   1bbd6: bb 89 69 40  	subw	s3, s3, t1
   1bbda: c1 04        	addi	s1, s1, 0x10
   1bbdc: e3 58 30 eb  	blez	s3, 0x1ba8c <_svfiprintf_r+0x14c>
   1bbe0: 17 38 00 00  	auipc	a6, 0x3
   1bbe4: 13 08 08 3c  	addi	a6, a6, 0x3c0
   1bbe8: 63 51 3a 07  	bge	s4, s3, 0x1bc4a <_svfiprintf_r+0x30a>
   1bbec: 46 e8        	sd	a7, 0x10(sp)
   1bbee: 26 87        	mv	a4, s1
   1bbf0: ca 88        	mv	a7, s2
   1bbf2: 36 ec        	sd	a3, 0x18(sp)
   1bbf4: 3e 89        	mv	s2, a5
   1bbf6: 1a f0        	sd	t1, 0x20(sp)
   1bbf8: a2 87        	mv	a5, s0
   1bbfa: c2 84        	mv	s1, a6
   1bbfc: 4e 84        	mv	s0, s3
   1bbfe: f6 89        	mv	s3, t4
   1bc00: 21 a0        	j	0x1bc08 <_svfiprintf_r+0x2c8>
   1bc02: 41 34        	addiw	s0, s0, -0x10
   1bc04: 63 59 8a 02  	bge	s4, s0, 0x1bc36 <_svfiprintf_r+0x2f6>
   1bc08: 04 e3        	sd	s1, 0x0(a4)
   1bc0a: 23 34 47 01  	sd	s4, 0x8(a4)
   1bc0e: 85 27        	addiw	a5, a5, 0x1
   1bc10: c1 08        	addi	a7, a7, 0x10
   1bc12: 41 07        	addi	a4, a4, 0x10
   1bc14: e3 d7 fa fe  	bge	s5, a5, 0x1bc02 <_svfiprintf_r+0x2c2>
   1bc18: 02 65        	ld	a0, 0x0(sp)
   1bc1a: 90 18        	addi	a2, sp, 0x70
   1bc1c: da 85        	mv	a1, s6
   1bc1e: be dc        	sw	a5, 0x78(sp)
   1bc20: 46 e1        	sd	a7, 0x80(sp)
   1bc22: ef f0 9f bb  	jal	0x1b7da <__ssprint_r>
   1bc26: e6 57        	lw	a5, 0x78(sp)
   1bc28: 8a 68        	ld	a7, 0x80(sp)
   1bc2a: e3 11 05 ea  	bnez	a0, 0x1bacc <_svfiprintf_r+0x18c>
   1bc2e: 41 34        	addiw	s0, s0, -0x10
   1bc30: 5e 87        	mv	a4, s7
   1bc32: e3 4b 8a fc  	blt	s4, s0, 0x1bc08 <_svfiprintf_r+0x2c8>
   1bc36: ce 8e        	mv	t4, s3
   1bc38: e2 66        	ld	a3, 0x18(sp)
   1bc3a: a2 89        	mv	s3, s0
   1bc3c: 02 73        	ld	t1, 0x20(sp)
   1bc3e: 3e 84        	mv	s0, a5
   1bc40: ca 87        	mv	a5, s2
   1bc42: 46 89        	mv	s2, a7
   1bc44: c2 68        	ld	a7, 0x10(sp)
   1bc46: 26 88        	mv	a6, s1
   1bc48: ba 84        	mv	s1, a4
   1bc4a: 23 b0 04 01  	sd	a6, 0x0(s1)
   1bc4e: 23 b4 34 01  	sd	s3, 0x8(s1)
   1bc52: 05 24        	addiw	s0, s0, 0x1
   1bc54: 4e 99        	add	s2, s2, s3
   1bc56: c1 04        	addi	s1, s1, 0x10
   1bc58: e3 da 8a e2  	bge	s5, s0, 0x1ba8c <_svfiprintf_r+0x14c>
   1bc5c: 02 65        	ld	a0, 0x0(sp)
   1bc5e: 90 18        	addi	a2, sp, 0x70
   1bc60: da 85        	mv	a1, s6
   1bc62: a2 dc        	sw	s0, 0x78(sp)
   1bc64: 4a e1        	sd	s2, 0x80(sp)
   1bc66: f6 e4        	sd	t4, 0x48(sp)
   1bc68: 3e f4        	sd	a5, 0x28(sp)
   1bc6a: 1a f0        	sd	t1, 0x20(sp)
   1bc6c: 36 ec        	sd	a3, 0x18(sp)
   1bc6e: 46 e8        	sd	a7, 0x10(sp)
   1bc70: ef f0 bf b6  	jal	0x1b7da <__ssprint_r>
   1bc74: 66 54        	lw	s0, 0x78(sp)
   1bc76: 0a 69        	ld	s2, 0x80(sp)
   1bc78: e3 1a 05 e4  	bnez	a0, 0x1bacc <_svfiprintf_r+0x18c>
   1bc7c: 02 73        	ld	t1, 0x20(sp)
   1bc7e: de 84        	mv	s1, s7
   1bc80: 23 b0 94 01  	sd	s9, 0x0(s1)
   1bc84: 23 b4 64 00  	sd	t1, 0x8(s1)
   1bc88: 05 24        	addiw	s0, s0, 0x1
   1bc8a: a6 6e        	ld	t4, 0x48(sp)
   1bc8c: a2 77        	ld	a5, 0x28(sp)
   1bc8e: e2 66        	ld	a3, 0x18(sp)
   1bc90: c2 68        	ld	a7, 0x10(sp)
   1bc92: 1a 99        	add	s2, s2, t1
   1bc94: c1 04        	addi	s1, s1, 0x10
   1bc96: e3 d4 8a e0  	bge	s5, s0, 0x1ba9e <_svfiprintf_r+0x15e>
   1bc9a: 02 65        	ld	a0, 0x0(sp)
   1bc9c: 90 18        	addi	a2, sp, 0x70
   1bc9e: da 85        	mv	a1, s6
   1bca0: a2 dc        	sw	s0, 0x78(sp)
   1bca2: 4a e1        	sd	s2, 0x80(sp)
   1bca4: 76 f4        	sd	t4, 0x28(sp)
   1bca6: 3e f0        	sd	a5, 0x20(sp)
   1bca8: 36 ec        	sd	a3, 0x18(sp)
   1bcaa: 46 e8        	sd	a7, 0x10(sp)
   1bcac: ef f0 ff b2  	jal	0x1b7da <__ssprint_r>
   1bcb0: 66 54        	lw	s0, 0x78(sp)
   1bcb2: 0a 69        	ld	s2, 0x80(sp)
   1bcb4: e3 1c 05 e0  	bnez	a0, 0x1bacc <_svfiprintf_r+0x18c>
   1bcb8: a2 7e        	ld	t4, 0x28(sp)
   1bcba: 82 77        	ld	a5, 0x20(sp)
   1bcbc: e2 66        	ld	a3, 0x18(sp)
   1bcbe: c2 68        	ld	a7, 0x10(sp)
   1bcc0: de 84        	mv	s1, s7
   1bcc2: f1 bb        	j	0x1ba9e <_svfiprintf_r+0x15e>
   1bcc4: 83 bc 0e 00  	ld	s9, 0x0(t4)
   1bcc8: a3 03 01 06  	sb	zero, 0x67(sp)
   1bccc: a1 0e        	addi	t4, t4, 0x8
   1bcce: e3 81 0c 20  	beqz	s9, 0x1c6d0 <_svfiprintf_r+0xd90>
   1bcd2: 3e f0        	sd	a5, 0x20(sp)
   1bcd4: 76 ec        	sd	t4, 0x18(sp)
   1bcd6: 36 e8        	sd	a3, 0x10(sp)
   1bcd8: 63 c5 09 7c  	bltz	s3, 0x1c4a2 <_svfiprintf_r+0xb62>
   1bcdc: 4e 86        	mv	a2, s3
   1bcde: 81 45        	li	a1, 0x0
   1bce0: 66 85        	mv	a0, s9
   1bce2: ef a0 4f d8  	jal	0x16266 <memchr>
   1bce6: 03 46 71 06  	lbu	a2, 0x67(sp)
   1bcea: c2 66        	ld	a3, 0x10(sp)
   1bcec: e2 6e        	ld	t4, 0x18(sp)
   1bcee: 82 77        	ld	a5, 0x20(sp)
   1bcf0: e3 0c 05 2e  	beqz	a0, 0x1c7e8 <_svfiprintf_r+0xea8>
   1bcf4: 3b 03 95 41  	subw	t1, a0, s9
   1bcf8: 9a 85        	mv	a1, t1
   1bcfa: 63 53 03 00  	bgez	t1, 0x1bd00 <_svfiprintf_r+0x3c0>
   1bcfe: 81 45        	li	a1, 0x0
   1bd00: ae 88        	mv	a7, a1
   1bd02: e3 04 06 1a  	beqz	a2, 0x1c6aa <_svfiprintf_r+0xd6a>
   1bd06: 9b 88 15 00  	addiw	a7, a1, 0x1
   1bd0a: 81 49        	li	s3, 0x0
   1bd0c: 81 b3        	j	0x1ba4c <_svfiprintf_r+0x10c>
   1bd0e: 13 e6 07 01  	ori	a2, a5, 0x10
   1bd12: 01 26        	sext.w	a2, a2
   1bd14: a3 03 01 06  	sb	zero, 0x67(sp)
   1bd18: 93 85 8e 00  	addi	a1, t4, 0x8
   1bd1c: 03 b8 0e 00  	ld	a6, 0x0(t4)
   1bd20: b2 87        	mv	a5, a2
   1bd22: ae 8e        	mv	t4, a1
   1bd24: 63 c9 09 00  	bltz	s3, 0x1bd36 <_svfiprintf_r+0x3f6>
   1bd28: 13 76 f6 f7  	andi	a2, a2, -0x81
   1bd2c: 9b 07 06 00  	sext.w	a5, a2
   1bd30: 63 07 08 06  	beqz	a6, 0x1bd9e <_svfiprintf_r+0x45e>
   1bd34: ae 8e        	mv	t4, a1
   1bd36: 25 4e        	li	t3, 0x9
   1bd38: 63 6f 0e 23  	bltu	t3, a6, 0x1bf76 <_svfiprintf_r+0x636>
   1bd3c: 1b 06 08 03  	addiw	a2, a6, 0x30
   1bd40: 13 76 f6 0f  	andi	a2, a2, 0xff
   1bd44: a3 05 c1 0e  	sb	a2, 0xeb(sp)
   1bd48: 4e 86        	mv	a2, s3
   1bd4a: 63 43 30 01  	bgtz	s3, 0x1bd50 <_svfiprintf_r+0x410>
   1bd4e: 05 46        	li	a2, 0x1
   1bd50: 83 45 71 06  	lbu	a1, 0x67(sp)
   1bd54: 9b 08 06 00  	sext.w	a7, a2
   1bd58: 99 c1        	beqz	a1, 0x1bd5e <_svfiprintf_r+0x41e>
   1bd5a: 9b 08 16 00  	addiw	a7, a2, 0x1
   1bd5e: 05 43        	li	t1, 0x1
   1bd60: 93 0c b1 0e  	addi	s9, sp, 0xeb
   1bd64: e5 b1        	j	0x1ba4c <_svfiprintf_r+0x10c>
   1bd66: 13 f6 07 02  	andi	a2, a5, 0x20
   1bd6a: 63 12 06 66  	bnez	a2, 0x1c3ce <_svfiprintf_r+0xa8e>
   1bd6e: 13 f6 07 01  	andi	a2, a5, 0x10
   1bd72: 63 1e 06 64  	bnez	a2, 0x1c3ce <_svfiprintf_r+0xa8e>
   1bd76: 13 f6 07 04  	andi	a2, a5, 0x40
   1bd7a: 03 a8 0e 00  	lw	a6, 0x0(t4)
   1bd7e: 93 85 8e 00  	addi	a1, t4, 0x8
   1bd82: e3 0a 06 18  	beqz	a2, 0x1c716 <_svfiprintf_r+0xdd6>
   1bd86: 42 18        	slli	a6, a6, 0x30
   1bd88: a3 03 01 06  	sb	zero, 0x67(sp)
   1bd8c: 13 58 08 03  	srli	a6, a6, 0x30
   1bd90: e3 c2 09 fa  	bltz	s3, 0x1bd34 <_svfiprintf_r+0x3f4>
   1bd94: 93 f7 f7 f7  	andi	a5, a5, -0x81
   1bd98: 81 27        	sext.w	a5, a5
   1bd9a: e3 1d 08 f8  	bnez	a6, 0x1bd34 <_svfiprintf_r+0x3f4>
   1bd9e: ae 8e        	mv	t4, a1
   1bda0: e3 83 09 0c  	beqz	s3, 0x1c666 <_svfiprintf_r+0xd26>
   1bda4: 01 48        	li	a6, 0x0
   1bda6: 59 bf        	j	0x1bd3c <_svfiprintf_r+0x3fc>
   1bda8: 93 e7 07 02  	ori	a5, a5, 0x20
   1bdac: 81 27        	sext.w	a5, a5
   1bdae: 03 c6 0d 00  	lbu	a2, 0x0(s11)
   1bdb2: 3d b9        	j	0x1b9f0 <_svfiprintf_r+0xb0>
   1bdb4: 21 66        	lui	a2, 0x8
   1bdb6: 13 06 06 83  	addi	a2, a2, -0x7d0
   1bdba: a3 03 01 06  	sb	zero, 0x67(sp)
   1bdbe: 23 14 c1 06  	sh	a2, 0x68(sp)
   1bdc2: 83 b5 0e 00  	ld	a1, 0x0(t4)
   1bdc6: 13 88 8e 00  	addi	a6, t4, 0x8
   1bdca: e3 c4 09 0a  	bltz	s3, 0x1c672 <_svfiprintf_r+0xd32>
   1bdce: 93 f7 f7 f7  	andi	a5, a5, -0x81
   1bdd2: 81 27        	sext.w	a5, a5
   1bdd4: 93 e7 27 00  	ori	a5, a5, 0x2
   1bdd8: 63 8b 05 6e  	beqz	a1, 0x1c4ce <_svfiprintf_r+0xb8e>
   1bddc: 13 f6 f5 00  	andi	a2, a1, 0xf
   1bde0: 17 25 00 00  	auipc	a0, 0x2
   1bde4: 13 05 05 6c  	addi	a0, a0, 0x6c0
   1bde8: 2a 96        	add	a2, a2, a0
   1bdea: 03 46 06 00  	lbu	a2, 0x0(a2)
   1bdee: c2 8e        	mv	t4, a6
   1bdf0: 89 48        	li	a7, 0x2
   1bdf2: a3 05 c1 0e  	sb	a2, 0xeb(sp)
   1bdf6: 13 d6 45 00  	srli	a2, a1, 0x4
   1bdfa: e3 0d 06 22  	beqz	a2, 0x1c834 <_svfiprintf_r+0xef4>
   1bdfe: 93 0c b1 0e  	addi	s9, sp, 0xeb
   1be02: 13 77 f6 00  	andi	a4, a2, 0xf
   1be06: 2a 97        	add	a4, a4, a0
   1be08: 03 47 07 00  	lbu	a4, 0x0(a4)
   1be0c: 11 82        	srli	a2, a2, 0x4
   1be0e: fd 1c        	addi	s9, s9, -0x1
   1be10: 23 80 ec 00  	sb	a4, 0x0(s9)
   1be14: 7d f6        	bnez	a2, 0x1be02 <_svfiprintf_r+0x4c2>
   1be16: 13 03 c1 0e  	addi	t1, sp, 0xec
   1be1a: 3b 03 93 41  	subw	t1, t1, s9
   1be1e: 1b 86 09 00  	sext.w	a2, s3
   1be22: 63 d3 69 00  	bge	s3, t1, 0x1be28 <_svfiprintf_r+0x4e8>
   1be26: 1a 86        	mv	a2, t1
   1be28: e3 8e 08 20  	beqz	a7, 0x1c844 <_svfiprintf_r+0xf04>
   1be2c: 13 ff 47 08  	andi	t5, a5, 0x84
   1be30: 9b 08 26 00  	addiw	a7, a2, 0x2
   1be34: 63 19 0f 54  	bnez	t5, 0x1c386 <_svfiprintf_r+0xa46>
   1be38: 3b 88 16 41  	subw	a6, a3, a7
   1be3c: 63 45 00 2d  	bgtz	a6, 0x1c106 <_svfiprintf_r+0x7c6>
   1be40: 09 46        	li	a2, 0x2
   1be42: ac 10        	addi	a1, sp, 0x68
   1be44: 90 e4        	sd	a2, 0x8(s1)
   1be46: 05 24        	addiw	s0, s0, 0x1
   1be48: 8c e0        	sd	a1, 0x0(s1)
   1be4a: 1d 46        	li	a2, 0x7
   1be4c: 09 09        	addi	s2, s2, 0x2
   1be4e: e3 54 86 d8  	bge	a2, s0, 0x1bbd6 <_svfiprintf_r+0x296>
   1be52: 90 18        	addi	a2, sp, 0x70
   1be54: 02 65        	ld	a0, 0x0(sp)
   1be56: da 85        	mv	a1, s6
   1be58: a2 dc        	sw	s0, 0x78(sp)
   1be5a: 4a e1        	sd	s2, 0x80(sp)
   1be5c: f6 e8        	sd	t4, 0x50(sp)
   1be5e: be e4        	sd	a5, 0x48(sp)
   1be60: 1a f4        	sd	t1, 0x28(sp)
   1be62: 7a f0        	sd	t5, 0x20(sp)
   1be64: 36 ec        	sd	a3, 0x18(sp)
   1be66: 46 e8        	sd	a7, 0x10(sp)
   1be68: ef f0 3f 97  	jal	0x1b7da <__ssprint_r>
   1be6c: 66 54        	lw	s0, 0x78(sp)
   1be6e: 0a 69        	ld	s2, 0x80(sp)
   1be70: e3 1e 05 c4  	bnez	a0, 0x1bacc <_svfiprintf_r+0x18c>
   1be74: c6 6e        	ld	t4, 0x50(sp)
   1be76: a6 67        	ld	a5, 0x48(sp)
   1be78: 22 73        	ld	t1, 0x28(sp)
   1be7a: 02 7f        	ld	t5, 0x20(sp)
   1be7c: e2 66        	ld	a3, 0x18(sp)
   1be7e: c2 68        	ld	a7, 0x10(sp)
   1be80: de 84        	mv	s1, s7
   1be82: cd be        	j	0x1ba74 <_svfiprintf_r+0x134>
   1be84: 13 f6 07 02  	andi	a2, a5, 0x20
   1be88: 93 85 8e 00  	addi	a1, t4, 0x8
   1be8c: 63 1f 06 52  	bnez	a2, 0x1c3ca <_svfiprintf_r+0xa8a>
   1be90: 13 f6 07 01  	andi	a2, a5, 0x10
   1be94: 63 1b 06 52  	bnez	a2, 0x1c3ca <_svfiprintf_r+0xa8a>
   1be98: 13 f5 07 04  	andi	a0, a5, 0x40
   1be9c: 03 a6 0e 00  	lw	a2, 0x0(t4)
   1bea0: e3 07 05 08  	beqz	a0, 0x1c72e <_svfiprintf_r+0xdee>
   1bea4: 42 16        	slli	a2, a2, 0x30
   1bea6: 41 92        	srli	a2, a2, 0x30
   1bea8: ae 8e        	mv	t4, a1
   1beaa: be 88        	mv	a7, a5
   1beac: 91 a0        	j	0x1bef0 <_svfiprintf_r+0x5b0>
   1beae: 93 f6 07 02  	andi	a3, a5, 0x20
   1beb2: 03 b6 0e 00  	ld	a2, 0x0(t4)
   1beb6: 8d e2        	bnez	a3, 0x1bed8 <_svfiprintf_r+0x598>
   1beb8: 93 f6 07 01  	andi	a3, a5, 0x10
   1bebc: 91 ee        	bnez	a3, 0x1bed8 <_svfiprintf_r+0x598>
   1bebe: 93 f6 07 04  	andi	a3, a5, 0x40
   1bec2: e3 9a 06 0c  	bnez	a3, 0x1c796 <_svfiprintf_r+0xe56>
   1bec6: 93 f7 07 20  	andi	a5, a5, 0x200
   1beca: e3 87 07 12  	beqz	a5, 0x1c7f8 <_svfiprintf_r+0xeb8>
   1bece: a2 67        	ld	a5, 0x8(sp)
   1bed0: a1 0e        	addi	t4, t4, 0x8
   1bed2: 23 00 f6 00  	sb	a5, 0x0(a2)
   1bed6: d9 b4        	j	0x1b99c <_svfiprintf_r+0x5c>
   1bed8: a2 67        	ld	a5, 0x8(sp)
   1beda: a1 0e        	addi	t4, t4, 0x8
   1bedc: 1c e2        	sd	a5, 0x0(a2)
   1bede: 7d bc        	j	0x1b99c <_svfiprintf_r+0x5c>
   1bee0: 93 e8 07 01  	ori	a7, a5, 0x10
   1bee4: 81 28        	sext.w	a7, a7
   1bee6: 93 85 8e 00  	addi	a1, t4, 0x8
   1beea: 03 b6 0e 00  	ld	a2, 0x0(t4)
   1beee: ae 8e        	mv	t4, a1
   1bef0: a3 03 01 06  	sb	zero, 0x67(sp)
   1bef4: 63 c3 09 4a  	bltz	s3, 0x1c39a <_svfiprintf_r+0xa5a>
   1bef8: 93 f7 f8 b7  	andi	a5, a7, -0x481
   1befc: 81 27        	sext.w	a5, a5
   1befe: 63 0a 06 6a  	beqz	a2, 0x1c5b2 <_svfiprintf_r+0xc72>
   1bf02: 13 03 c1 0e  	addi	t1, sp, 0xec
   1bf06: 9a 8c        	mv	s9, t1
   1bf08: 93 75 76 00  	andi	a1, a2, 0x7
   1bf0c: 66 85        	mv	a0, s9
   1bf0e: 93 85 05 03  	addi	a1, a1, 0x30
   1bf12: 0d 82        	srli	a2, a2, 0x3
   1bf14: a3 8f bc fe  	sb	a1, -0x1(s9)
   1bf18: fd 1c        	addi	s9, s9, -0x1
   1bf1a: 7d f6        	bnez	a2, 0x1bf08 <_svfiprintf_r+0x5c8>
   1bf1c: 13 f6 17 00  	andi	a2, a5, 0x1
   1bf20: 63 01 06 36  	beqz	a2, 0x1c282 <_svfiprintf_r+0x942>
   1bf24: 13 06 00 03  	li	a2, 0x30
   1bf28: 63 8d c5 34  	beq	a1, a2, 0x1c282 <_svfiprintf_r+0x942>
   1bf2c: 79 15        	addi	a0, a0, -0x2
   1bf2e: 3b 03 a3 40  	subw	t1, t1, a0
   1bf32: a3 8f cc fe  	sb	a2, -0x1(s9)
   1bf36: 9b 88 09 00  	sext.w	a7, s3
   1bf3a: 63 ce 69 48  	blt	s3, t1, 0x1c3d6 <_svfiprintf_r+0xa96>
   1bf3e: aa 8c        	mv	s9, a0
   1bf40: 31 b6        	j	0x1ba4c <_svfiprintf_r+0x10c>
   1bf42: 13 e5 07 01  	ori	a0, a5, 0x10
   1bf46: 01 25        	sext.w	a0, a0
   1bf48: 93 85 8e 00  	addi	a1, t4, 0x8
   1bf4c: 03 b6 0e 00  	ld	a2, 0x0(t4)
   1bf50: aa 87        	mv	a5, a0
   1bf52: ae 8e        	mv	t4, a1
   1bf54: 32 88        	mv	a6, a2
   1bf56: e3 51 06 c2  	bgez	a2, 0x1bb78 <_svfiprintf_r+0x238>
   1bf5a: 13 06 d0 02  	li	a2, 0x2d
   1bf5e: a3 03 c1 06  	sb	a2, 0x67(sp)
   1bf62: 33 08 00 41  	neg	a6, a6
   1bf66: e3 c8 09 dc  	bltz	s3, 0x1bd36 <_svfiprintf_r+0x3f6>
   1bf6a: 93 f7 f7 f7  	andi	a5, a5, -0x81
   1bf6e: 25 4e        	li	t3, 0x9
   1bf70: 81 27        	sext.w	a5, a5
   1bf72: e3 75 0e dd  	bgeu	t3, a6, 0x1bd3c <_svfiprintf_r+0x3fc>
   1bf76: 37 d6 cc cc  	lui	a2, 0xccccd
   1bf7a: 13 06 d6 cc  	addi	a2, a2, -0x333
   1bf7e: 93 18 06 02  	slli	a7, a2, 0x20
   1bf82: 13 03 c1 0e  	addi	t1, sp, 0xec
   1bf86: e2 7f        	ld	t6, 0x38(sp)
   1bf88: b2 98        	add	a7, a7, a2
   1bf8a: 1a 85        	mv	a0, t1
   1bf8c: 93 f2 07 40  	andi	t0, a5, 0x400
   1bf90: 81 45        	li	a1, 0x0
   1bf92: 13 0f f0 0f  	li	t5, 0xff
   1bf96: 09 a8        	j	0x1bfa8 <_svfiprintf_r+0x668>
   1bf98: 42 87        	mv	a4, a6
   1bf9a: 33 38 18 03  	mulhu	a6, a6, a7
   1bf9e: 66 85        	mv	a0, s9
   1bfa0: 13 58 38 00  	srli	a6, a6, 0x3
   1bfa4: 63 7c ee 02  	bgeu	t3, a4, 0x1bfdc <_svfiprintf_r+0x69c>
   1bfa8: 33 36 18 03  	mulhu	a2, a6, a7
   1bfac: 85 25        	addiw	a1, a1, 0x1
   1bfae: 93 0c f5 ff  	addi	s9, a0, -0x1
   1bfb2: 0d 82        	srli	a2, a2, 0x3
   1bfb4: 13 17 26 00  	slli	a4, a2, 0x2
   1bfb8: 32 97        	add	a4, a4, a2
   1bfba: 06 07        	slli	a4, a4, 0x1
   1bfbc: 33 07 e8 40  	sub	a4, a6, a4
   1bfc0: 1b 07 07 03  	addiw	a4, a4, 0x30
   1bfc4: a3 0f e5 fe  	sb	a4, -0x1(a0)
   1bfc8: e3 88 02 fc  	beqz	t0, 0x1bf98 <_svfiprintf_r+0x658>
   1bfcc: 03 c7 0f 00  	lbu	a4, 0x0(t6)
   1bfd0: e3 14 b7 fc  	bne	a4, a1, 0x1bf98 <_svfiprintf_r+0x658>
   1bfd4: e3 02 e7 fd  	beq	a4, t5, 0x1bf98 <_svfiprintf_r+0x658>
   1bfd8: 63 63 0e 55  	bltu	t3, a6, 0x1c51e <_svfiprintf_r+0xbde>
   1bfdc: 7e fc        	sd	t6, 0x38(sp)
   1bfde: 3b 03 93 41  	subw	t1, t1, s9
   1bfe2: 4e 86        	mv	a2, s3
   1bfe4: 63 c6 69 4a  	blt	s3, t1, 0x1c490 <_svfiprintf_r+0xb50>
   1bfe8: 83 45 71 06  	lbu	a1, 0x67(sp)
   1bfec: 9b 08 06 00  	sext.w	a7, a2
   1bff0: e3 8e 05 a4  	beqz	a1, 0x1ba4c <_svfiprintf_r+0x10c>
   1bff4: 9b 08 16 00  	addiw	a7, a2, 0x1
   1bff8: 91 bc        	j	0x1ba4c <_svfiprintf_r+0x10c>
   1bffa: 03 c6 0d 00  	lbu	a2, 0x0(s11)
   1bffe: 13 07 c0 06  	li	a4, 0x6c
   1c002: 63 0f e6 6a  	beq	a2, a4, 0x1c6c0 <_svfiprintf_r+0xd80>
   1c006: 93 e7 07 01  	ori	a5, a5, 0x10
   1c00a: 81 27        	sext.w	a5, a5
   1c00c: d5 b2        	j	0x1b9f0 <_svfiprintf_r+0xb0>
   1c00e: 03 c6 0d 00  	lbu	a2, 0x0(s11)
   1c012: 13 07 80 06  	li	a4, 0x68
   1c016: 63 0d e6 68  	beq	a2, a4, 0x1c6b0 <_svfiprintf_r+0xd70>
   1c01a: 93 e7 07 04  	ori	a5, a5, 0x40
   1c01e: 81 27        	sext.w	a5, a5
   1c020: c1 ba        	j	0x1b9f0 <_svfiprintf_r+0xb0>
   1c022: 93 e7 07 08  	ori	a5, a5, 0x80
   1c026: 03 c6 0d 00  	lbu	a2, 0x0(s11)
   1c02a: 81 27        	sext.w	a5, a5
   1c02c: d1 b2        	j	0x1b9f0 <_svfiprintf_r+0xb0>
   1c02e: 03 c6 0d 00  	lbu	a2, 0x0(s11)
   1c032: 13 07 a0 02  	li	a4, 0x2a
   1c036: 13 88 1d 00  	addi	a6, s11, 0x1
   1c03a: 63 04 e6 7c  	beq	a2, a4, 0x1c802 <_svfiprintf_r+0xec2>
   1c03e: 9b 05 06 fd  	addiw	a1, a2, -0x30
   1c042: a5 48        	li	a7, 0x9
   1c044: 01 45        	li	a0, 0x0
   1c046: c2 8d        	mv	s11, a6
   1c048: 81 49        	li	s3, 0x0
   1c04a: e3 e4 b8 9a  	bltu	a7, a1, 0x1b9f2 <_svfiprintf_r+0xb2>
   1c04e: 1b 17 25 00  	slliw	a4, a0, 0x2
   1c052: 03 46 08 00  	lbu	a2, 0x0(a6)
   1c056: 29 9f        	addw	a4, a4, a0
   1c058: 1b 17 17 00  	slliw	a4, a4, 0x1
   1c05c: 3b 05 b7 00  	addw	a0, a4, a1
   1c060: 9b 05 06 fd  	addiw	a1, a2, -0x30
   1c064: 05 08        	addi	a6, a6, 0x1
   1c066: e3 f4 b8 fe  	bgeu	a7, a1, 0x1c04e <_svfiprintf_r+0x70e>
   1c06a: aa 89        	mv	s3, a0
   1c06c: 63 49 05 36  	bltz	a0, 0x1c3de <_svfiprintf_r+0xa9e>
   1c070: c2 8d        	mv	s11, a6
   1c072: 41 b2        	j	0x1b9f2 <_svfiprintf_r+0xb2>
   1c074: 13 07 b0 02  	li	a4, 0x2b
   1c078: 03 c6 0d 00  	lbu	a2, 0x0(s11)
   1c07c: a3 03 e1 06  	sb	a4, 0x67(sp)
   1c080: 85 ba        	j	0x1b9f0 <_svfiprintf_r+0xb0>
   1c082: 02 65        	ld	a0, 0x0(sp)
   1c084: 76 f0        	sd	t4, 0x20(sp)
   1c086: 36 e8        	sd	a3, 0x10(sp)
   1c088: 3e ec        	sd	a5, 0x18(sp)
   1c08a: ef 90 1f 9d  	jal	0x15a5a <_localeconv_r>
   1c08e: 1c 65        	ld	a5, 0x8(a0)
   1c090: 3e 85        	mv	a0, a5
   1c092: be e0        	sd	a5, 0x40(sp)
   1c094: ef b0 0f b6  	jal	0x173f4 <strlen>
   1c098: 2a 87        	mv	a4, a0
   1c09a: 02 65        	ld	a0, 0x0(sp)
   1c09c: 3a f8        	sd	a4, 0x30(sp)
   1c09e: ef 90 df 9b  	jal	0x15a5a <_localeconv_r>
   1c0a2: 0c 69        	ld	a1, 0x10(a0)
   1c0a4: 42 77        	ld	a4, 0x30(sp)
   1c0a6: 03 c6 0d 00  	lbu	a2, 0x0(s11)
   1c0aa: 2e fc        	sd	a1, 0x38(sp)
   1c0ac: c2 66        	ld	a3, 0x10(sp)
   1c0ae: e2 67        	ld	a5, 0x18(sp)
   1c0b0: 82 7e        	ld	t4, 0x20(sp)
   1c0b2: e3 0f 07 92  	beqz	a4, 0x1b9f0 <_svfiprintf_r+0xb0>
   1c0b6: e3 8d 05 92  	beqz	a1, 0x1b9f0 <_svfiprintf_r+0xb0>
   1c0ba: 03 c7 05 00  	lbu	a4, 0x0(a1)
   1c0be: e3 09 07 92  	beqz	a4, 0x1b9f0 <_svfiprintf_r+0xb0>
   1c0c2: 93 e7 07 40  	ori	a5, a5, 0x400
   1c0c6: 81 27        	sext.w	a5, a5
   1c0c8: 25 b2        	j	0x1b9f0 <_svfiprintf_r+0xb0>
   1c0ca: 93 e7 17 00  	ori	a5, a5, 0x1
   1c0ce: 03 c6 0d 00  	lbu	a2, 0x0(s11)
   1c0d2: 81 27        	sext.w	a5, a5
   1c0d4: 31 ba        	j	0x1b9f0 <_svfiprintf_r+0xb0>
   1c0d6: 03 47 71 06  	lbu	a4, 0x67(sp)
   1c0da: 03 c6 0d 00  	lbu	a2, 0x0(s11)
   1c0de: e3 19 07 90  	bnez	a4, 0x1b9f0 <_svfiprintf_r+0xb0>
   1c0e2: 13 07 00 02  	li	a4, 0x20
   1c0e6: a3 03 e1 06  	sb	a4, 0x67(sp)
   1c0ea: 19 b2        	j	0x1b9f0 <_svfiprintf_r+0xb0>
   1c0ec: 02 65        	ld	a0, 0x0(sp)
   1c0ee: 90 18        	addi	a2, sp, 0x70
   1c0f0: da 85        	mv	a1, s6
   1c0f2: 76 e8        	sd	t4, 0x10(sp)
   1c0f4: 4a e1        	sd	s2, 0x80(sp)
   1c0f6: a2 dc        	sw	s0, 0x78(sp)
   1c0f8: ef f0 2f ee  	jal	0x1b7da <__ssprint_r>
   1c0fc: c2 6e        	ld	t4, 0x10(sp)
   1c0fe: 0a 69        	ld	s2, 0x80(sp)
   1c100: e3 0e 05 9a  	beqz	a0, 0x1babc <_svfiprintf_r+0x17c>
   1c104: e1 b2        	j	0x1bacc <_svfiprintf_r+0x18c>
   1c106: 09 4f        	li	t5, 0x2
   1c108: c1 4f        	li	t6, 0x10
   1c10a: 17 3e 00 00  	auipc	t3, 0x3
   1c10e: 13 0e 6e ea  	addi	t3, t3, -0x15a
   1c112: 63 d8 0f 07  	bge	t6, a6, 0x1c182 <_svfiprintf_r+0x842>
   1c116: 36 ec        	sd	a3, 0x18(sp)
   1c118: 26 87        	mv	a4, s1
   1c11a: ca 86        	mv	a3, s2
   1c11c: be e4        	sd	a5, 0x48(sp)
   1c11e: fe 83        	mv	t2, t6
   1c120: a2 87        	mv	a5, s0
   1c122: 9d 42        	li	t0, 0x7
   1c124: 46 e8        	sd	a7, 0x10(sp)
   1c126: 7a f0        	sd	t5, 0x20(sp)
   1c128: 1a f4        	sd	t1, 0x28(sp)
   1c12a: 42 84        	mv	s0, a6
   1c12c: 76 89        	mv	s2, t4
   1c12e: f2 84        	mv	s1, t3
   1c130: 21 a0        	j	0x1c138 <_svfiprintf_r+0x7f8>
   1c132: 41 34        	addiw	s0, s0, -0x10
   1c134: 63 dc 83 02  	bge	t2, s0, 0x1c16c <_svfiprintf_r+0x82c>
   1c138: 04 e3        	sd	s1, 0x0(a4)
   1c13a: 23 34 f7 01  	sd	t6, 0x8(a4)
   1c13e: 85 27        	addiw	a5, a5, 0x1
   1c140: c1 06        	addi	a3, a3, 0x10
   1c142: 41 07        	addi	a4, a4, 0x10
   1c144: e3 d7 f2 fe  	bge	t0, a5, 0x1c132 <_svfiprintf_r+0x7f2>
   1c148: 02 65        	ld	a0, 0x0(sp)
   1c14a: 90 18        	addi	a2, sp, 0x70
   1c14c: da 85        	mv	a1, s6
   1c14e: be dc        	sw	a5, 0x78(sp)
   1c150: 36 e1        	sd	a3, 0x80(sp)
   1c152: ef f0 8f e8  	jal	0x1b7da <__ssprint_r>
   1c156: e6 57        	lw	a5, 0x78(sp)
   1c158: 8a 66        	ld	a3, 0x80(sp)
   1c15a: e3 19 05 96  	bnez	a0, 0x1bacc <_svfiprintf_r+0x18c>
   1c15e: c1 43        	li	t2, 0x10
   1c160: 41 34        	addiw	s0, s0, -0x10
   1c162: 5e 87        	mv	a4, s7
   1c164: 9d 42        	li	t0, 0x7
   1c166: 9e 8f        	mv	t6, t2
   1c168: e3 c8 83 fc  	blt	t2, s0, 0x1c138 <_svfiprintf_r+0x7f8>
   1c16c: 22 88        	mv	a6, s0
   1c16e: ca 8e        	mv	t4, s2
   1c170: 3e 84        	mv	s0, a5
   1c172: 36 89        	mv	s2, a3
   1c174: c2 68        	ld	a7, 0x10(sp)
   1c176: 02 7f        	ld	t5, 0x20(sp)
   1c178: 22 73        	ld	t1, 0x28(sp)
   1c17a: a6 67        	ld	a5, 0x48(sp)
   1c17c: e2 66        	ld	a3, 0x18(sp)
   1c17e: 26 8e        	mv	t3, s1
   1c180: ba 84        	mv	s1, a4
   1c182: 23 b0 c4 01  	sd	t3, 0x0(s1)
   1c186: 23 b4 04 01  	sd	a6, 0x8(s1)
   1c18a: 1b 0e 14 00  	addiw	t3, s0, 0x1
   1c18e: 1d 46        	li	a2, 0x7
   1c190: 4a 98        	add	a6, a6, s2
   1c192: 63 44 c6 45  	blt	a2, t3, 0x1c5da <_svfiprintf_r+0xc9a>
   1c196: 83 45 71 06  	lbu	a1, 0x67(sp)
   1c19a: 13 86 04 01  	addi	a2, s1, 0x10
   1c19e: 63 86 05 20  	beqz	a1, 0x1c3aa <_svfiprintf_r+0xa6a>
   1c1a2: 13 05 71 06  	addi	a0, sp, 0x67
   1c1a6: 85 45        	li	a1, 0x1
   1c1a8: 08 e2        	sd	a0, 0x0(a2)
   1c1aa: 0c e6        	sd	a1, 0x8(a2)
   1c1ac: 1b 05 1e 00  	addiw	a0, t3, 0x1
   1c1b0: 9d 45        	li	a1, 0x7
   1c1b2: 13 09 18 00  	addi	s2, a6, 0x1
   1c1b6: 63 c7 a5 1e  	blt	a1, a0, 0x1c3a4 <_svfiprintf_r+0xa64>
   1c1ba: 93 04 06 01  	addi	s1, a2, 0x10
   1c1be: 63 07 0f 52  	beqz	t5, 0x1c6ec <_svfiprintf_r+0xdac>
   1c1c2: ac 10        	addi	a1, sp, 0x68
   1c1c4: 0c ea        	sd	a1, 0x10(a2)
   1c1c6: 89 45        	li	a1, 0x2
   1c1c8: 8c e4        	sd	a1, 0x8(s1)
   1c1ca: 1b 04 2e 00  	addiw	s0, t3, 0x2
   1c1ce: a1 45        	li	a1, 0x8
   1c1d0: 13 09 38 00  	addi	s2, a6, 0x3
   1c1d4: 93 04 06 02  	addi	s1, a2, 0x20
   1c1d8: e3 16 b4 8a  	bne	s0, a1, 0x1ba84 <_svfiprintf_r+0x144>
   1c1dc: 01 4f        	li	t5, 0x0
   1c1de: 95 b9        	j	0x1be52 <_svfiprintf_r+0x512>
   1c1e0: c1 4c        	li	s9, 0x10
   1c1e2: 17 3e 00 00  	auipc	t3, 0x3
   1c1e6: 13 0e ee dc  	addi	t3, t3, -0x232
   1c1ea: 63 d1 3c 07  	bge	s9, s3, 0x1c24c <_svfiprintf_r+0x90c>
   1c1ee: 22 87        	mv	a4, s0
   1c1f0: 4a 83        	mv	t1, s2
   1c1f2: 4e 84        	mv	s0, s3
   1c1f4: 36 89        	mv	s2, a3
   1c1f6: 66 88        	mv	a6, s9
   1c1f8: a6 86        	mv	a3, s1
   1c1fa: 9d 47        	li	a5, 0x7
   1c1fc: 46 e8        	sd	a7, 0x10(sp)
   1c1fe: f6 89        	mv	s3, t4
   1c200: f2 84        	mv	s1, t3
   1c202: 21 a0        	j	0x1c20a <_svfiprintf_r+0x8ca>
   1c204: 41 34        	addiw	s0, s0, -0x10
   1c206: 63 5b 88 02  	bge	a6, s0, 0x1c23c <_svfiprintf_r+0x8fc>
   1c20a: 84 e2        	sd	s1, 0x0(a3)
   1c20c: 23 b4 96 01  	sd	s9, 0x8(a3)
   1c210: 05 27        	addiw	a4, a4, 0x1
   1c212: 41 03        	addi	t1, t1, 0x10
   1c214: c1 06        	addi	a3, a3, 0x10
   1c216: e3 d7 e7 fe  	bge	a5, a4, 0x1c204 <_svfiprintf_r+0x8c4>
   1c21a: 02 65        	ld	a0, 0x0(sp)
   1c21c: 90 18        	addi	a2, sp, 0x70
   1c21e: da 85        	mv	a1, s6
   1c220: ba dc        	sw	a4, 0x78(sp)
   1c222: 1a e1        	sd	t1, 0x80(sp)
   1c224: ef f0 6f db  	jal	0x1b7da <__ssprint_r>
   1c228: 66 57        	lw	a4, 0x78(sp)
   1c22a: 0a 63        	ld	t1, 0x80(sp)
   1c22c: e3 10 05 8a  	bnez	a0, 0x1bacc <_svfiprintf_r+0x18c>
   1c230: 41 48        	li	a6, 0x10
   1c232: 41 34        	addiw	s0, s0, -0x10
   1c234: de 86        	mv	a3, s7
   1c236: 9d 47        	li	a5, 0x7
   1c238: e3 49 88 fc  	blt	a6, s0, 0x1c20a <_svfiprintf_r+0x8ca>
   1c23c: c2 68        	ld	a7, 0x10(sp)
   1c23e: ce 8e        	mv	t4, s3
   1c240: 26 8e        	mv	t3, s1
   1c242: a2 89        	mv	s3, s0
   1c244: b6 84        	mv	s1, a3
   1c246: 3a 84        	mv	s0, a4
   1c248: ca 86        	mv	a3, s2
   1c24a: 1a 89        	mv	s2, t1
   1c24c: 23 b0 c4 01  	sd	t3, 0x0(s1)
   1c250: 23 b4 34 01  	sd	s3, 0x8(s1)
   1c254: 05 24        	addiw	s0, s0, 0x1
   1c256: 9d 47        	li	a5, 0x7
   1c258: 4e 99        	add	s2, s2, s3
   1c25a: e3 d8 87 84  	bge	a5, s0, 0x1baaa <_svfiprintf_r+0x16a>
   1c25e: 02 65        	ld	a0, 0x0(sp)
   1c260: 90 18        	addi	a2, sp, 0x70
   1c262: da 85        	mv	a1, s6
   1c264: 76 f0        	sd	t4, 0x20(sp)
   1c266: 36 ec        	sd	a3, 0x18(sp)
   1c268: 46 e8        	sd	a7, 0x10(sp)
   1c26a: a2 dc        	sw	s0, 0x78(sp)
   1c26c: 4a e1        	sd	s2, 0x80(sp)
   1c26e: ef f0 cf d6  	jal	0x1b7da <__ssprint_r>
   1c272: c2 68        	ld	a7, 0x10(sp)
   1c274: 66 54        	lw	s0, 0x78(sp)
   1c276: 0a 69        	ld	s2, 0x80(sp)
   1c278: e2 66        	ld	a3, 0x18(sp)
   1c27a: 82 7e        	ld	t4, 0x20(sp)
   1c27c: e3 07 05 82  	beqz	a0, 0x1baaa <_svfiprintf_r+0x16a>
   1c280: b1 b0        	j	0x1bacc <_svfiprintf_r+0x18c>
   1c282: 3b 03 93 41  	subw	t1, t1, s9
   1c286: 9b 88 09 00  	sext.w	a7, s3
   1c28a: 63 d1 69 fc  	bge	s3, t1, 0x1ba4c <_svfiprintf_r+0x10c>
   1c28e: 9a 88        	mv	a7, t1
   1c290: 6f f0 cf fb  	j	0x1ba4c <_svfiprintf_r+0x10c>
   1c294: 41 4f        	li	t5, 0x10
   1c296: 17 38 00 00  	auipc	a6, 0x3
   1c29a: 13 08 a8 d0  	addi	a6, a6, -0x2f6
   1c29e: 63 56 cf 07  	bge	t5, t3, 0x1c30a <_svfiprintf_r+0x9ca>
   1c2a2: 36 ec        	sd	a3, 0x18(sp)
   1c2a4: 3e f4        	sd	a5, 0x28(sp)
   1c2a6: ca 86        	mv	a3, s2
   1c2a8: a6 87        	mv	a5, s1
   1c2aa: 22 87        	mv	a4, s0
   1c2ac: fa 82        	mv	t0, t5
   1c2ae: 9d 4f        	li	t6, 0x7
   1c2b0: 46 e8        	sd	a7, 0x10(sp)
   1c2b2: 1a f0        	sd	t1, 0x20(sp)
   1c2b4: 72 84        	mv	s0, t3
   1c2b6: 76 89        	mv	s2, t4
   1c2b8: c2 84        	mv	s1, a6
   1c2ba: 21 a0        	j	0x1c2c2 <_svfiprintf_r+0x982>
   1c2bc: 41 34        	addiw	s0, s0, -0x10
   1c2be: 63 dc 82 02  	bge	t0, s0, 0x1c2f6 <_svfiprintf_r+0x9b6>
   1c2c2: 84 e3        	sd	s1, 0x0(a5)
   1c2c4: 23 b4 e7 01  	sd	t5, 0x8(a5)
   1c2c8: 05 27        	addiw	a4, a4, 0x1
   1c2ca: c1 06        	addi	a3, a3, 0x10
   1c2cc: c1 07        	addi	a5, a5, 0x10
   1c2ce: e3 d7 ef fe  	bge	t6, a4, 0x1c2bc <_svfiprintf_r+0x97c>
   1c2d2: 02 65        	ld	a0, 0x0(sp)
   1c2d4: 90 18        	addi	a2, sp, 0x70
   1c2d6: da 85        	mv	a1, s6
   1c2d8: ba dc        	sw	a4, 0x78(sp)
   1c2da: 36 e1        	sd	a3, 0x80(sp)
   1c2dc: ef f0 ef cf  	jal	0x1b7da <__ssprint_r>
   1c2e0: 66 57        	lw	a4, 0x78(sp)
   1c2e2: 8a 66        	ld	a3, 0x80(sp)
   1c2e4: 63 14 05 fe  	bnez	a0, 0x1bacc <_svfiprintf_r+0x18c>
   1c2e8: c1 42        	li	t0, 0x10
   1c2ea: 41 34        	addiw	s0, s0, -0x10
   1c2ec: de 87        	mv	a5, s7
   1c2ee: 9d 4f        	li	t6, 0x7
   1c2f0: 16 8f        	mv	t5, t0
   1c2f2: e3 c8 82 fc  	blt	t0, s0, 0x1c2c2 <_svfiprintf_r+0x982>
   1c2f6: ca 8e        	mv	t4, s2
   1c2f8: 26 88        	mv	a6, s1
   1c2fa: 36 89        	mv	s2, a3
   1c2fc: be 84        	mv	s1, a5
   1c2fe: c2 68        	ld	a7, 0x10(sp)
   1c300: 02 73        	ld	t1, 0x20(sp)
   1c302: e2 66        	ld	a3, 0x18(sp)
   1c304: a2 77        	ld	a5, 0x28(sp)
   1c306: 22 8e        	mv	t3, s0
   1c308: 3a 84        	mv	s0, a4
   1c30a: 23 b0 04 01  	sd	a6, 0x0(s1)
   1c30e: 23 b4 c4 01  	sd	t3, 0x8(s1)
   1c312: 05 24        	addiw	s0, s0, 0x1
   1c314: 1d 46        	li	a2, 0x7
   1c316: 72 99        	add	s2, s2, t3
   1c318: e3 5f 86 8a  	bge	a2, s0, 0x1bbd6 <_svfiprintf_r+0x296>
   1c31c: 02 65        	ld	a0, 0x0(sp)
   1c31e: 90 18        	addi	a2, sp, 0x70
   1c320: da 85        	mv	a1, s6
   1c322: a2 dc        	sw	s0, 0x78(sp)
   1c324: 4a e1        	sd	s2, 0x80(sp)
   1c326: f6 e4        	sd	t4, 0x48(sp)
   1c328: 3e f4        	sd	a5, 0x28(sp)
   1c32a: 1a f0        	sd	t1, 0x20(sp)
   1c32c: 36 ec        	sd	a3, 0x18(sp)
   1c32e: 46 e8        	sd	a7, 0x10(sp)
   1c330: ef f0 af ca  	jal	0x1b7da <__ssprint_r>
   1c334: 66 54        	lw	s0, 0x78(sp)
   1c336: 0a 69        	ld	s2, 0x80(sp)
   1c338: 63 1a 05 f8  	bnez	a0, 0x1bacc <_svfiprintf_r+0x18c>
   1c33c: c2 68        	ld	a7, 0x10(sp)
   1c33e: e2 66        	ld	a3, 0x18(sp)
   1c340: 02 73        	ld	t1, 0x20(sp)
   1c342: a2 77        	ld	a5, 0x28(sp)
   1c344: a6 6e        	ld	t4, 0x48(sp)
   1c346: de 84        	mv	s1, s7
   1c348: 6f f0 cf f3  	j	0x1ba84 <_svfiprintf_r+0x144>
   1c34c: 22 85        	mv	a0, s0
   1c34e: 82 ec        	sd	zero, 0x58(sp)
   1c350: aa dc        	sw	a0, 0x78(sp)
   1c352: 02 65        	ld	a0, 0x0(sp)
   1c354: 90 18        	addi	a2, sp, 0x70
   1c356: da 85        	mv	a1, s6
   1c358: 4a e1        	sd	s2, 0x80(sp)
   1c35a: f6 e8        	sd	t4, 0x50(sp)
   1c35c: be e4        	sd	a5, 0x48(sp)
   1c35e: 1a f4        	sd	t1, 0x28(sp)
   1c360: 7a f0        	sd	t5, 0x20(sp)
   1c362: 36 ec        	sd	a3, 0x18(sp)
   1c364: 46 e8        	sd	a7, 0x10(sp)
   1c366: ef f0 4f c7  	jal	0x1b7da <__ssprint_r>
   1c36a: 66 54        	lw	s0, 0x78(sp)
   1c36c: 0a 69        	ld	s2, 0x80(sp)
   1c36e: 63 1f 05 f4  	bnez	a0, 0x1bacc <_svfiprintf_r+0x18c>
   1c372: 66 67        	ld	a4, 0x58(sp)
   1c374: c2 68        	ld	a7, 0x10(sp)
   1c376: e2 66        	ld	a3, 0x18(sp)
   1c378: 02 7f        	ld	t5, 0x20(sp)
   1c37a: 22 73        	ld	t1, 0x28(sp)
   1c37c: a6 67        	ld	a5, 0x48(sp)
   1c37e: c6 6e        	ld	t4, 0x50(sp)
   1c380: de 84        	mv	s1, s7
   1c382: 63 09 07 ee  	beqz	a4, 0x1ba74 <_svfiprintf_r+0x134>
   1c386: 09 46        	li	a2, 0x2
   1c388: ac 10        	addi	a1, sp, 0x68
   1c38a: 8c e0        	sd	a1, 0x0(s1)
   1c38c: 90 e4        	sd	a2, 0x8(s1)
   1c38e: 05 24        	addiw	s0, s0, 0x1
   1c390: 32 99        	add	s2, s2, a2
   1c392: c1 04        	addi	s1, s1, 0x10
   1c394: 63 d0 8a ee  	bge	s5, s0, 0x1ba74 <_svfiprintf_r+0x134>
   1c398: 6d bc        	j	0x1be52 <_svfiprintf_r+0x512>
   1c39a: 93 f8 f8 bf  	andi	a7, a7, -0x401
   1c39e: 9b 87 08 00  	sext.w	a5, a7
   1c3a2: 85 b6        	j	0x1bf02 <_svfiprintf_r+0x5c2>
   1c3a4: fa ec        	sd	t5, 0x58(sp)
   1c3a6: 01 4f        	li	t5, 0x0
   1c3a8: 65 b7        	j	0x1c350 <_svfiprintf_r+0xa10>
   1c3aa: 63 06 0f 34  	beqz	t5, 0x1c6f6 <_svfiprintf_r+0xdb6>
   1c3ae: 09 46        	li	a2, 0x2
   1c3b0: ac 10        	addi	a1, sp, 0x68
   1c3b2: 90 ec        	sd	a2, 0x18(s1)
   1c3b4: 8c e8        	sd	a1, 0x10(s1)
   1c3b6: 09 24        	addiw	s0, s0, 0x2
   1c3b8: 21 46        	li	a2, 0x8
   1c3ba: 13 09 28 00  	addi	s2, a6, 0x2
   1c3be: 93 84 04 02  	addi	s1, s1, 0x20
   1c3c2: 63 11 c4 ec  	bne	s0, a2, 0x1ba84 <_svfiprintf_r+0x144>
   1c3c6: 01 4f        	li	t5, 0x0
   1c3c8: 69 b4        	j	0x1be52 <_svfiprintf_r+0x512>
   1c3ca: be 88        	mv	a7, a5
   1c3cc: 39 be        	j	0x1beea <_svfiprintf_r+0x5aa>
   1c3ce: 3e 86        	mv	a2, a5
   1c3d0: 91 b2        	j	0x1bd14 <_svfiprintf_r+0x3d4>
   1c3d2: 3e 85        	mv	a0, a5
   1c3d4: a5 be        	j	0x1bf4c <_svfiprintf_r+0x60c>
   1c3d6: 9a 88        	mv	a7, t1
   1c3d8: aa 8c        	mv	s9, a0
   1c3da: 6f f0 2f e7  	j	0x1ba4c <_svfiprintf_r+0x10c>
   1c3de: fd 59        	li	s3, -0x1
   1c3e0: c2 8d        	mv	s11, a6
   1c3e2: 6f f0 0f e1  	j	0x1b9f2 <_svfiprintf_r+0xb2>
   1c3e6: b2 87        	mv	a5, a2
   1c3e8: b9 b2        	j	0x1bd36 <_svfiprintf_r+0x3f6>
   1c3ea: 93 f5 07 02  	andi	a1, a5, 0x20
   1c3ee: 17 25 00 00  	auipc	a0, 0x2
   1c3f2: 13 05 a5 0c  	addi	a0, a0, 0xca
   1c3f6: 13 88 8e 00  	addi	a6, t4, 0x8
   1c3fa: b9 ed        	bnez	a1, 0x1c458 <_svfiprintf_r+0xb18>
   1c3fc: 93 f5 07 01  	andi	a1, a5, 0x10
   1c400: a1 ed        	bnez	a1, 0x1c458 <_svfiprintf_r+0xb18>
   1c402: 93 f8 07 04  	andi	a7, a5, 0x40
   1c406: 83 a5 0e 00  	lw	a1, 0x0(t4)
   1c40a: 63 8b 08 32  	beqz	a7, 0x1c740 <_svfiprintf_r+0xe00>
   1c40e: c2 15        	slli	a1, a1, 0x30
   1c410: c1 91        	srli	a1, a1, 0x30
   1c412: 93 f8 17 00  	andi	a7, a5, 0x1
   1c416: 63 87 08 04  	beqz	a7, 0x1c464 <_svfiprintf_r+0xb24>
   1c41a: 63 9d 05 20  	bnez	a1, 0x1c634 <_svfiprintf_r+0xcf4>
   1c41e: a3 03 01 06  	sb	zero, 0x67(sp)
   1c422: 63 cc 09 32  	bltz	s3, 0x1c75a <_svfiprintf_r+0xe1a>
   1c426: 93 f7 f7 b7  	andi	a5, a5, -0x481
   1c42a: 81 27        	sext.w	a5, a5
   1c42c: 63 8c 09 22  	beqz	s3, 0x1c664 <_svfiprintf_r+0xd24>
   1c430: 03 46 05 00  	lbu	a2, 0x0(a0)
   1c434: 46 83        	mv	t1, a7
   1c436: c2 8e        	mv	t4, a6
   1c438: a3 05 c1 0e  	sb	a2, 0xeb(sp)
   1c43c: ce 88        	mv	a7, s3
   1c43e: 93 0c b1 0e  	addi	s9, sp, 0xeb
   1c442: 6f f0 af e0  	j	0x1ba4c <_svfiprintf_r+0x10c>
   1c446: 93 f5 07 02  	andi	a1, a5, 0x20
   1c44a: 17 25 00 00  	auipc	a0, 0x2
   1c44e: 13 05 65 05  	addi	a0, a0, 0x56
   1c452: 13 88 8e 00  	addi	a6, t4, 0x8
   1c456: dd d1        	beqz	a1, 0x1c3fc <_svfiprintf_r+0xabc>
   1c458: 93 f8 17 00  	andi	a7, a5, 0x1
   1c45c: 83 b5 0e 00  	ld	a1, 0x0(t4)
   1c460: e3 9d 08 fa  	bnez	a7, 0x1c41a <_svfiprintf_r+0xada>
   1c464: a3 03 01 06  	sb	zero, 0x67(sp)
   1c468: 63 c8 09 12  	bltz	s3, 0x1c598 <_svfiprintf_r+0xc58>
   1c46c: 93 f7 f7 b7  	andi	a5, a5, -0x481
   1c470: 81 27        	sext.w	a5, a5
   1c472: 63 91 05 1e  	bnez	a1, 0x1c654 <_svfiprintf_r+0xd14>
   1c476: 63 8c 09 2c  	beqz	s3, 0x1c74e <_svfiprintf_r+0xe0e>
   1c47a: 03 46 05 00  	lbu	a2, 0x0(a0)
   1c47e: c2 8e        	mv	t4, a6
   1c480: ce 88        	mv	a7, s3
   1c482: a3 05 c1 0e  	sb	a2, 0xeb(sp)
   1c486: 05 43        	li	t1, 0x1
   1c488: 93 0c b1 0e  	addi	s9, sp, 0xeb
   1c48c: 6f f0 0f dc  	j	0x1ba4c <_svfiprintf_r+0x10c>
   1c490: 83 45 71 06  	lbu	a1, 0x67(sp)
   1c494: 1a 86        	mv	a2, t1
   1c496: 9b 08 06 00  	sext.w	a7, a2
   1c49a: e3 9d 05 b4  	bnez	a1, 0x1bff4 <_svfiprintf_r+0x6b4>
   1c49e: 6f f0 ef da  	j	0x1ba4c <_svfiprintf_r+0x10c>
   1c4a2: 66 85        	mv	a0, s9
   1c4a4: ef a0 1f f5  	jal	0x173f4 <strlen>
   1c4a8: 1b 03 05 00  	sext.w	t1, a0
   1c4ac: c2 66        	ld	a3, 0x10(sp)
   1c4ae: e2 6e        	ld	t4, 0x18(sp)
   1c4b0: 82 77        	ld	a5, 0x20(sp)
   1c4b2: 1a 86        	mv	a2, t1
   1c4b4: 63 53 03 00  	bgez	t1, 0x1c4ba <_svfiprintf_r+0xb7a>
   1c4b8: 01 46        	li	a2, 0x0
   1c4ba: 83 45 71 06  	lbu	a1, 0x67(sp)
   1c4be: b2 88        	mv	a7, a2
   1c4c0: 63 85 05 1e  	beqz	a1, 0x1c6aa <_svfiprintf_r+0xd6a>
   1c4c4: 9b 08 16 00  	addiw	a7, a2, 0x1
   1c4c8: 81 49        	li	s3, 0x0
   1c4ca: 6f f0 2f d8  	j	0x1ba4c <_svfiprintf_r+0x10c>
   1c4ce: 63 8d 09 2a  	beqz	s3, 0x1c788 <_svfiprintf_r+0xe48>
   1c4d2: 13 06 00 03  	li	a2, 0x30
   1c4d6: a3 05 c1 0e  	sb	a2, 0xeb(sp)
   1c4da: c2 8e        	mv	t4, a6
   1c4dc: 4e 86        	mv	a2, s3
   1c4de: 05 43        	li	t1, 0x1
   1c4e0: 93 0c b1 0e  	addi	s9, sp, 0xeb
   1c4e4: a1 b2        	j	0x1be2c <_svfiprintf_r+0x4ec>
   1c4e6: 93 05 00 04  	li	a1, 0x40
   1c4ea: 32 e4        	sd	a2, 0x8(sp)
   1c4ec: ef 90 cf f2  	jal	0x15c18 <_malloc_r>
   1c4f0: 23 30 ab 00  	sd	a0, 0x0(s6)
   1c4f4: 23 3c ab 00  	sd	a0, 0x18(s6)
   1c4f8: 22 67        	ld	a4, 0x8(sp)
   1c4fa: 63 08 05 34  	beqz	a0, 0x1c84a <_svfiprintf_r+0xf0a>
   1c4fe: a2 eb        	sd	s0, 0x1d0(sp)
   1c500: a6 e7        	sd	s1, 0x1c8(sp)
   1c502: ca e3        	sd	s2, 0x1c0(sp)
   1c504: 4e ff        	sd	s3, 0x1b8(sp)
   1c506: 52 fb        	sd	s4, 0x1b0(sp)
   1c508: 56 f7        	sd	s5, 0x1a8(sp)
   1c50a: 5e ef        	sd	s7, 0x198(sp)
   1c50c: 62 eb        	sd	s8, 0x190(sp)
   1c50e: 6a e3        	sd	s10, 0x180(sp)
   1c510: ee fe        	sd	s11, 0x178(sp)
   1c512: 93 07 00 04  	li	a5, 0x40
   1c516: 23 20 fb 02  	sw	a5, 0x20(s6)
   1c51a: 6f f0 af c5  	j	0x1b974 <_svfiprintf_r+0x34>
   1c51e: 42 76        	ld	a2, 0x30(sp)
   1c520: 86 65        	ld	a1, 0x40(sp)
   1c522: 9a ec        	sd	t1, 0x58(sp)
   1c524: b3 83 cc 40  	sub	t2, s9, a2
   1c528: 1e 85        	mv	a0, t2
   1c52a: f6 e8        	sd	t4, 0x50(sp)
   1c52c: 96 e4        	sd	t0, 0x48(sp)
   1c52e: 42 fc        	sd	a6, 0x38(sp)
   1c530: 3e f4        	sd	a5, 0x28(sp)
   1c532: 36 f0        	sd	a3, 0x20(sp)
   1c534: 7e ec        	sd	t6, 0x18(sp)
   1c536: 1e e8        	sd	t2, 0x10(sp)
   1c538: ef a0 7f f5  	jal	0x1748e <strncpy>
   1c53c: 97 57 00 00  	auipc	a5, 0x5
   1c540: 93 87 c7 e5  	addi	a5, a5, -0x1a4
   1c544: 83 b8 07 00  	ld	a7, 0x0(a5)
   1c548: 62 78        	ld	a6, 0x38(sp)
   1c54a: e2 6f        	ld	t6, 0x18(sp)
   1c54c: c2 63        	ld	t2, 0x10(sp)
   1c54e: 33 38 18 03  	mulhu	a6, a6, a7
   1c552: 03 c7 1f 00  	lbu	a4, 0x1(t6)
   1c556: 82 76        	ld	a3, 0x20(sp)
   1c558: a2 77        	ld	a5, 0x28(sp)
   1c55a: 33 37 e0 00  	snez	a4, a4
   1c55e: ba 9f        	add	t6, t6, a4
   1c560: a6 62        	ld	t0, 0x48(sp)
   1c562: c6 6e        	ld	t4, 0x50(sp)
   1c564: 66 63        	ld	t1, 0x58(sp)
   1c566: 93 8c f3 ff  	addi	s9, t2, -0x1
   1c56a: 13 58 38 00  	srli	a6, a6, 0x3
   1c56e: 33 36 18 03  	mulhu	a2, a6, a7
   1c572: 85 45        	li	a1, 0x1
   1c574: 13 0f f0 0f  	li	t5, 0xff
   1c578: 25 4e        	li	t3, 0x9
   1c57a: 0d 82        	srli	a2, a2, 0x3
   1c57c: 13 17 26 00  	slli	a4, a2, 0x2
   1c580: 32 97        	add	a4, a4, a2
   1c582: 06 07        	slli	a4, a4, 0x1
   1c584: 33 07 e8 40  	sub	a4, a6, a4
   1c588: 1b 07 07 03  	addiw	a4, a4, 0x30
   1c58c: a3 8f e3 fe  	sb	a4, -0x1(t2)
   1c590: 35 bc        	j	0x1bfcc <_svfiprintf_r+0x68c>
   1c592: 93 e7 27 00  	ori	a5, a5, 0x2
   1c596: 81 27        	sext.w	a5, a5
   1c598: 13 f6 f5 00  	andi	a2, a1, 0xf
   1c59c: 2a 96        	add	a2, a2, a0
   1c59e: 13 f3 f7 bf  	andi	t1, a5, -0x401
   1c5a2: 93 f8 27 00  	andi	a7, a5, 0x2
   1c5a6: 03 46 06 00  	lbu	a2, 0x0(a2)
   1c5aa: c2 8e        	mv	t4, a6
   1c5ac: 9b 07 03 00  	sext.w	a5, t1
   1c5b0: 89 b0        	j	0x1bdf2 <_svfiprintf_r+0x4b2>
   1c5b2: e3 98 09 94  	bnez	s3, 0x1bf02 <_svfiprintf_r+0x5c2>
   1c5b6: 93 f8 18 00  	andi	a7, a7, 0x1
   1c5ba: 63 8b 08 00  	beqz	a7, 0x1c5d0 <_svfiprintf_r+0xc90>
   1c5be: 13 06 00 03  	li	a2, 0x30
   1c5c2: a3 05 c1 0e  	sb	a2, 0xeb(sp)
   1c5c6: 46 83        	mv	t1, a7
   1c5c8: 93 0c b1 0e  	addi	s9, sp, 0xeb
   1c5cc: 6f f0 0f c8  	j	0x1ba4c <_svfiprintf_r+0x10c>
   1c5d0: 01 43        	li	t1, 0x0
   1c5d2: 93 0c c1 0e  	addi	s9, sp, 0xec
   1c5d6: 6f f0 6f c7  	j	0x1ba4c <_svfiprintf_r+0x10c>
   1c5da: 02 65        	ld	a0, 0x0(sp)
   1c5dc: 90 18        	addi	a2, sp, 0x70
   1c5de: da 85        	mv	a1, s6
   1c5e0: f2 dc        	sw	t3, 0x78(sp)
   1c5e2: 42 e1        	sd	a6, 0x80(sp)
   1c5e4: f6 e8        	sd	t4, 0x50(sp)
   1c5e6: be e4        	sd	a5, 0x48(sp)
   1c5e8: 1a f4        	sd	t1, 0x28(sp)
   1c5ea: 7a f0        	sd	t5, 0x20(sp)
   1c5ec: 36 ec        	sd	a3, 0x18(sp)
   1c5ee: 46 e8        	sd	a7, 0x10(sp)
   1c5f0: b2 ec        	sd	a2, 0x58(sp)
   1c5f2: ef f0 8f 9e  	jal	0x1b7da <__ssprint_r>
   1c5f6: 66 5e        	lw	t3, 0x78(sp)
   1c5f8: 0a 68        	ld	a6, 0x80(sp)
   1c5fa: 63 19 05 cc  	bnez	a0, 0x1bacc <_svfiprintf_r+0x18c>
   1c5fe: 83 45 71 06  	lbu	a1, 0x67(sp)
   1c602: c2 68        	ld	a7, 0x10(sp)
   1c604: e2 66        	ld	a3, 0x18(sp)
   1c606: 02 7f        	ld	t5, 0x20(sp)
   1c608: 22 73        	ld	t1, 0x28(sp)
   1c60a: a6 67        	ld	a5, 0x48(sp)
   1c60c: c6 6e        	ld	t4, 0x50(sp)
   1c60e: f5 e1        	bnez	a1, 0x1c6f2 <_svfiprintf_r+0xdb2>
   1c610: 63 0e 0f 1a  	beqz	t5, 0x1c7cc <_svfiprintf_r+0xe8c>
   1c614: 89 45        	li	a1, 0x2
   1c616: a8 10        	addi	a0, sp, 0x68
   1c618: ae fd        	sd	a1, 0xf8(sp)
   1c61a: aa f9        	sd	a0, 0xf0(sp)
   1c61c: 99 45        	li	a1, 0x6
   1c61e: 66 66        	ld	a2, 0x58(sp)
   1c620: 13 09 28 00  	addi	s2, a6, 0x2
   1c624: 1b 04 1e 00  	addiw	s0, t3, 0x1
   1c628: 04 02        	addi	s1, sp, 0x100
   1c62a: 63 dd c5 c5  	bge	a1, t3, 0x1ba84 <_svfiprintf_r+0x144>
   1c62e: 01 4f        	li	t5, 0x0
   1c630: 6f f0 5f 82  	j	0x1be54 <_svfiprintf_r+0x514>
   1c634: 93 08 00 03  	li	a7, 0x30
   1c638: a3 04 c1 06  	sb	a2, 0x69(sp)
   1c63c: a3 03 01 06  	sb	zero, 0x67(sp)
   1c640: 23 04 11 07  	sb	a7, 0x68(sp)
   1c644: e3 c7 09 f4  	bltz	s3, 0x1c592 <_svfiprintf_r+0xc52>
   1c648: 93 f7 f7 b7  	andi	a5, a5, -0x481
   1c64c: 81 27        	sext.w	a5, a5
   1c64e: 93 e7 27 00  	ori	a5, a5, 0x2
   1c652: 89 48        	li	a7, 0x2
   1c654: 13 f6 f5 00  	andi	a2, a1, 0xf
   1c658: 2a 96        	add	a2, a2, a0
   1c65a: 03 46 06 00  	lbu	a2, 0x0(a2)
   1c65e: c2 8e        	mv	t4, a6
   1c660: 6f f0 2f f9  	j	0x1bdf2 <_svfiprintf_r+0x4b2>
   1c664: c2 8e        	mv	t4, a6
   1c666: 01 43        	li	t1, 0x0
   1c668: 81 48        	li	a7, 0x0
   1c66a: 93 0c c1 0e  	addi	s9, sp, 0xec
   1c66e: 6f f0 ef bd  	j	0x1ba4c <_svfiprintf_r+0x10c>
   1c672: 13 f6 f5 00  	andi	a2, a1, 0xf
   1c676: 17 25 00 00  	auipc	a0, 0x2
   1c67a: 13 05 a5 e2  	addi	a0, a0, -0x1d6
   1c67e: 2a 96        	add	a2, a2, a0
   1c680: 83 48 06 00  	lbu	a7, 0x0(a2)
   1c684: 93 e7 27 00  	ori	a5, a5, 0x2
   1c688: 13 d6 45 00  	srli	a2, a1, 0x4
   1c68c: a3 05 11 0f  	sb	a7, 0xeb(sp)
   1c690: 81 27        	sext.w	a5, a5
   1c692: c2 8e        	mv	t4, a6
   1c694: 89 48        	li	a7, 0x2
   1c696: 63 14 06 f6  	bnez	a2, 0x1bdfe <_svfiprintf_r+0x4be>
   1c69a: 05 46        	li	a2, 0x1
   1c69c: 32 83        	mv	t1, a2
   1c69e: 93 0c b1 0e  	addi	s9, sp, 0xeb
   1c6a2: 6f f0 af f8  	j	0x1be2c <_svfiprintf_r+0x4ec>
   1c6a6: 4e 83        	mv	t1, s3
   1c6a8: ce 88        	mv	a7, s3
   1c6aa: 81 49        	li	s3, 0x0
   1c6ac: 6f f0 0f ba  	j	0x1ba4c <_svfiprintf_r+0x10c>
   1c6b0: 93 e7 07 20  	ori	a5, a5, 0x200
   1c6b4: 03 c6 1d 00  	lbu	a2, 0x1(s11)
   1c6b8: 81 27        	sext.w	a5, a5
   1c6ba: 85 0d        	addi	s11, s11, 0x1
   1c6bc: 6f f0 4f b3  	j	0x1b9f0 <_svfiprintf_r+0xb0>
   1c6c0: 93 e7 07 02  	ori	a5, a5, 0x20
   1c6c4: 03 c6 1d 00  	lbu	a2, 0x1(s11)
   1c6c8: 81 27        	sext.w	a5, a5
   1c6ca: 85 0d        	addi	s11, s11, 0x1
   1c6cc: 6f f0 4f b2  	j	0x1b9f0 <_svfiprintf_r+0xb0>
   1c6d0: 19 46        	li	a2, 0x6
   1c6d2: 9b 88 09 00  	sext.w	a7, s3
   1c6d6: 63 73 36 01  	bgeu	a2, s3, 0x1c6dc <_svfiprintf_r+0xd9c>
   1c6da: b2 88        	mv	a7, a2
   1c6dc: 46 83        	mv	t1, a7
   1c6de: 81 49        	li	s3, 0x0
   1c6e0: 97 2c 00 00  	auipc	s9, 0x2
   1c6e4: 93 8c 0c df  	addi	s9, s9, -0x210
   1c6e8: 6f f0 4f b6  	j	0x1ba4c <_svfiprintf_r+0x10c>
   1c6ec: 2a 84        	mv	s0, a0
   1c6ee: 6f f0 6f b9  	j	0x1ba84 <_svfiprintf_r+0x144>
   1c6f2: 5e 86        	mv	a2, s7
   1c6f4: 7d b4        	j	0x1c1a2 <_svfiprintf_r+0x862>
   1c6f6: 42 89        	mv	s2, a6
   1c6f8: 72 84        	mv	s0, t3
   1c6fa: b2 84        	mv	s1, a2
   1c6fc: 6f f0 8f b8  	j	0x1ba84 <_svfiprintf_r+0x144>
   1c700: 13 f6 07 20  	andi	a2, a5, 0x200
   1c704: 61 c2        	beqz	a2, 0x1c7c4 <_svfiprintf_r+0xe84>
   1c706: 1b 18 88 01  	slliw	a6, a6, 0x18
   1c70a: 1b 58 88 41  	sraiw	a6, a6, 0x18
   1c70e: ae 8e        	mv	t4, a1
   1c710: 42 86        	mv	a2, a6
   1c712: 6f f0 2f c6  	j	0x1bb74 <_svfiprintf_r+0x234>
   1c716: 13 f6 07 20  	andi	a2, a5, 0x200
   1c71a: a3 03 01 06  	sb	zero, 0x67(sp)
   1c71e: 59 ca        	beqz	a2, 0x1c7b4 <_svfiprintf_r+0xe74>
   1c720: 13 78 f8 0f  	andi	a6, a6, 0xff
   1c724: 63 d8 09 e6  	bgez	s3, 0x1bd94 <_svfiprintf_r+0x454>
   1c728: ae 8e        	mv	t4, a1
   1c72a: 6f f0 cf e0  	j	0x1bd36 <_svfiprintf_r+0x3f6>
   1c72e: 13 f5 07 20  	andi	a0, a5, 0x200
   1c732: 3d c9        	beqz	a0, 0x1c7a8 <_svfiprintf_r+0xe68>
   1c734: 13 76 f6 0f  	andi	a2, a2, 0xff
   1c738: ae 8e        	mv	t4, a1
   1c73a: be 88        	mv	a7, a5
   1c73c: 6f f0 4f fb  	j	0x1bef0 <_svfiprintf_r+0x5b0>
   1c740: 93 f8 07 20  	andi	a7, a5, 0x200
   1c744: 63 8f 08 04  	beqz	a7, 0x1c7a2 <_svfiprintf_r+0xe62>
   1c748: 93 f5 f5 0f  	andi	a1, a1, 0xff
   1c74c: d9 b1        	j	0x1c412 <_svfiprintf_r+0xad2>
   1c74e: c2 8e        	mv	t4, a6
   1c750: 01 43        	li	t1, 0x0
   1c752: 93 0c c1 0e  	addi	s9, sp, 0xec
   1c756: 6f f0 6f af  	j	0x1ba4c <_svfiprintf_r+0x10c>
   1c75a: 03 46 05 00  	lbu	a2, 0x0(a0)
   1c75e: 93 f7 f7 bf  	andi	a5, a5, -0x401
   1c762: 81 27        	sext.w	a5, a5
   1c764: a3 05 c1 0e  	sb	a2, 0xeb(sp)
   1c768: c2 8e        	mv	t4, a6
   1c76a: 46 83        	mv	t1, a7
   1c76c: 93 0c b1 0e  	addi	s9, sp, 0xeb
   1c770: 6f f0 cf ad  	j	0x1ba4c <_svfiprintf_r+0x10c>
   1c774: 83 45 71 06  	lbu	a1, 0x67(sp)
   1c778: cd c1        	beqz	a1, 0x1c81a <_svfiprintf_r+0xeda>
   1c77a: b2 87        	mv	a5, a2
   1c77c: 01 43        	li	t1, 0x0
   1c77e: 93 0c c1 0e  	addi	s9, sp, 0xec
   1c782: 85 48        	li	a7, 0x1
   1c784: 6f f0 8f ac  	j	0x1ba4c <_svfiprintf_r+0x10c>
   1c788: c2 8e        	mv	t4, a6
   1c78a: 01 43        	li	t1, 0x0
   1c78c: 01 46        	li	a2, 0x0
   1c78e: 93 0c c1 0e  	addi	s9, sp, 0xec
   1c792: 6f f0 af e9  	j	0x1be2c <_svfiprintf_r+0x4ec>
   1c796: a2 67        	ld	a5, 0x8(sp)
   1c798: a1 0e        	addi	t4, t4, 0x8
   1c79a: 23 10 f6 00  	sh	a5, 0x0(a2)
   1c79e: 6f f0 ef 9f  	j	0x1b99c <_svfiprintf_r+0x5c>
   1c7a2: 82 15        	slli	a1, a1, 0x20
   1c7a4: 81 91        	srli	a1, a1, 0x20
   1c7a6: b5 b1        	j	0x1c412 <_svfiprintf_r+0xad2>
   1c7a8: 02 16        	slli	a2, a2, 0x20
   1c7aa: 01 92        	srli	a2, a2, 0x20
   1c7ac: ae 8e        	mv	t4, a1
   1c7ae: be 88        	mv	a7, a5
   1c7b0: 6f f0 0f f4  	j	0x1bef0 <_svfiprintf_r+0x5b0>
   1c7b4: 02 18        	slli	a6, a6, 0x20
   1c7b6: 13 58 08 02  	srli	a6, a6, 0x20
   1c7ba: 63 dd 09 dc  	bgez	s3, 0x1bd94 <_svfiprintf_r+0x454>
   1c7be: ae 8e        	mv	t4, a1
   1c7c0: 6f f0 6f d7  	j	0x1bd36 <_svfiprintf_r+0x3f6>
   1c7c4: ae 8e        	mv	t4, a1
   1c7c6: 42 86        	mv	a2, a6
   1c7c8: 6f f0 cf ba  	j	0x1bb74 <_svfiprintf_r+0x234>
   1c7cc: 42 89        	mv	s2, a6
   1c7ce: 72 84        	mv	s0, t3
   1c7d0: de 84        	mv	s1, s7
   1c7d2: 6f f0 2f ab  	j	0x1ba84 <_svfiprintf_r+0x144>
   1c7d6: 02 65        	ld	a0, 0x0(sp)
   1c7d8: 90 18        	addi	a2, sp, 0x70
   1c7da: da 85        	mv	a1, s6
   1c7dc: a2 dc        	sw	s0, 0x78(sp)
   1c7de: 4a e1        	sd	s2, 0x80(sp)
   1c7e0: ef e0 bf ff  	jal	0x1b7da <__ssprint_r>
   1c7e4: 6f f0 8f ae  	j	0x1bacc <_svfiprintf_r+0x18c>
   1c7e8: e3 0f 06 ea  	beqz	a2, 0x1c6a6 <_svfiprintf_r+0xd66>
   1c7ec: 9b 88 19 00  	addiw	a7, s3, 0x1
   1c7f0: 4e 83        	mv	t1, s3
   1c7f2: 81 49        	li	s3, 0x0
   1c7f4: 6f f0 8f a5  	j	0x1ba4c <_svfiprintf_r+0x10c>
   1c7f8: a2 67        	ld	a5, 0x8(sp)
   1c7fa: a1 0e        	addi	t4, t4, 0x8
   1c7fc: 1c c2        	sw	a5, 0x0(a2)
   1c7fe: 6f f0 ef 99  	j	0x1b99c <_svfiprintf_r+0x5c>
   1c802: 03 a7 0e 00  	lw	a4, 0x0(t4)
   1c806: a1 0e        	addi	t4, t4, 0x8
   1c808: ba 89        	mv	s3, a4
   1c80a: 63 53 07 00  	bgez	a4, 0x1c810 <_svfiprintf_r+0xed0>
   1c80e: fd 59        	li	s3, -0x1
   1c810: 03 c6 1d 00  	lbu	a2, 0x1(s11)
   1c814: c2 8d        	mv	s11, a6
   1c816: 6f f0 af 9d  	j	0x1b9f0 <_svfiprintf_r+0xb0>
   1c81a: 13 ff 47 00  	andi	t5, a5, 0x4
   1c81e: 01 43        	li	t1, 0x0
   1c820: b2 87        	mv	a5, a2
   1c822: 81 48        	li	a7, 0x0
   1c824: 63 14 0f 00  	bnez	t5, 0x1c82c <_svfiprintf_r+0xeec>
   1c828: 63 4a d0 00  	bgtz	a3, 0x1c83c <_svfiprintf_r+0xefc>
   1c82c: 93 0c c1 0e  	addi	s9, sp, 0xec
   1c830: 6f f0 cf a5  	j	0x1ba8c <_svfiprintf_r+0x14c>
   1c834: 93 0c b1 0e  	addi	s9, sp, 0xeb
   1c838: 6f f0 ef dd  	j	0x1be16 <_svfiprintf_r+0x4d6>
   1c83c: 36 88        	mv	a6, a3
   1c83e: 93 0c c1 0e  	addi	s9, sp, 0xec
   1c842: d9 b0        	j	0x1c108 <_svfiprintf_r+0x7c8>
   1c844: b2 88        	mv	a7, a2
   1c846: 6f f0 6f a0  	j	0x1ba4c <_svfiprintf_r+0x10c>
   1c84a: 02 67        	ld	a4, 0x0(sp)
   1c84c: b1 47        	li	a5, 0xc
   1c84e: 1c c3        	sw	a5, 0x0(a4)
   1c850: fd 57        	li	a5, -0x1
   1c852: 3e e4        	sd	a5, 0x8(sp)
   1c854: 6f f0 8f a9  	j	0x1baec <_svfiprintf_r+0x1ac>

000000000001c858 <__swbuf_r>:
   1c858: 79 71        	addi	sp, sp, -0x30
   1c85a: 22 f0        	sd	s0, 0x20(sp)
   1c85c: 26 ec        	sd	s1, 0x18(sp)
   1c85e: 4a e8        	sd	s2, 0x10(sp)
   1c860: 06 f4        	sd	ra, 0x28(sp)
   1c862: 2a 89        	mv	s2, a0
   1c864: ae 84        	mv	s1, a1
   1c866: 32 84        	mv	s0, a2
   1c868: 19 c1        	beqz	a0, 0x1c86e <__swbuf_r+0x16>
   1c86a: 3c 49        	lw	a5, 0x50(a0)
   1c86c: ed c7        	beqz	a5, 0x1c956 <__swbuf_r+0xfe>
   1c86e: 1c 54        	lw	a5, 0x28(s0)
   1c870: 03 17 04 01  	lh	a4, 0x10(s0)
   1c874: 5c c4        	sw	a5, 0xc(s0)
   1c876: 93 77 87 00  	andi	a5, a4, 0x8
   1c87a: b1 cb        	beqz	a5, 0x1c8ce <__swbuf_r+0x76>
   1c87c: 1c 6c        	ld	a5, 0x18(s0)
   1c87e: a1 cb        	beqz	a5, 0x1c8ce <__swbuf_r+0x76>
   1c880: 4e e4        	sd	s3, 0x8(sp)
   1c882: 93 16 27 03  	slli	a3, a4, 0x32
   1c886: 93 f9 f4 0f  	andi	s3, s1, 0xff
   1c88a: ce 84        	mv	s1, s3
   1c88c: 89 65        	lui	a1, 0x2
   1c88e: 63 d1 06 06  	bgez	a3, 0x1c8f0 <__swbuf_r+0x98>
   1c892: 18 60        	ld	a4, 0x0(s0)
   1c894: 14 50        	lw	a3, 0x20(s0)
   1c896: bb 07 f7 40  	subw	a5, a4, a5
   1c89a: 63 db d7 06  	bge	a5, a3, 0x1c910 <__swbuf_r+0xb8>
   1c89e: 54 44        	lw	a3, 0xc(s0)
   1c8a0: 13 06 17 00  	addi	a2, a4, 0x1
   1c8a4: 10 e0        	sd	a2, 0x0(s0)
   1c8a6: fd 36        	addiw	a3, a3, -0x1
   1c8a8: 54 c4        	sw	a3, 0xc(s0)
   1c8aa: 23 00 37 01  	sb	s3, 0x0(a4)
   1c8ae: 18 50        	lw	a4, 0x20(s0)
   1c8b0: 85 27        	addiw	a5, a5, 0x1
   1c8b2: 63 01 f7 08  	beq	a4, a5, 0x1c934 <__swbuf_r+0xdc>
   1c8b6: 83 57 04 01  	lhu	a5, 0x10(s0)
   1c8ba: 85 8b        	andi	a5, a5, 0x1
   1c8bc: c1 e7        	bnez	a5, 0x1c944 <__swbuf_r+0xec>
   1c8be: a2 69        	ld	s3, 0x8(sp)
   1c8c0: a2 70        	ld	ra, 0x28(sp)
   1c8c2: 02 74        	ld	s0, 0x20(sp)
   1c8c4: 42 69        	ld	s2, 0x10(sp)
   1c8c6: 26 85        	mv	a0, s1
   1c8c8: e2 64        	ld	s1, 0x18(sp)
   1c8ca: 45 61        	addi	sp, sp, 0x30
   1c8cc: 82 80        	ret
   1c8ce: a2 85        	mv	a1, s0
   1c8d0: 4a 85        	mv	a0, s2
   1c8d2: ef 60 6f 9b  	jal	0x12a88 <__swsetup_r>
   1c8d6: 2d e5        	bnez	a0, 0x1c940 <__swbuf_r+0xe8>
   1c8d8: 03 17 04 01  	lh	a4, 0x10(s0)
   1c8dc: 4e e4        	sd	s3, 0x8(sp)
   1c8de: 93 f9 f4 0f  	andi	s3, s1, 0xff
   1c8e2: 93 16 27 03  	slli	a3, a4, 0x32
   1c8e6: 1c 6c        	ld	a5, 0x18(s0)
   1c8e8: ce 84        	mv	s1, s3
   1c8ea: 89 65        	lui	a1, 0x2
   1c8ec: e3 c3 06 fa  	bltz	a3, 0x1c892 <__swbuf_r+0x3a>
   1c8f0: 83 26 04 0b  	lw	a3, 0xb0(s0)
   1c8f4: 79 76        	lui	a2, 0xffffe
   1c8f6: 4d 8f        	or	a4, a4, a1
   1c8f8: 7d 16        	addi	a2, a2, -0x1
   1c8fa: f1 8e        	and	a3, a3, a2
   1c8fc: 23 18 e4 00  	sh	a4, 0x10(s0)
   1c900: 18 60        	ld	a4, 0x0(s0)
   1c902: 23 28 d4 0a  	sw	a3, 0xb0(s0)
   1c906: 14 50        	lw	a3, 0x20(s0)
   1c908: bb 07 f7 40  	subw	a5, a4, a5
   1c90c: e3 c9 d7 f8  	blt	a5, a3, 0x1c89e <__swbuf_r+0x46>
   1c910: a2 85        	mv	a1, s0
   1c912: 4a 85        	mv	a0, s2
   1c914: ef 60 ef d1  	jal	0x12e32 <_fflush_r>
   1c918: 1d e1        	bnez	a0, 0x1c93e <__swbuf_r+0xe6>
   1c91a: 18 60        	ld	a4, 0x0(s0)
   1c91c: 54 44        	lw	a3, 0xc(s0)
   1c91e: 85 47        	li	a5, 0x1
   1c920: 13 06 17 00  	addi	a2, a4, 0x1
   1c924: fd 36        	addiw	a3, a3, -0x1
   1c926: 10 e0        	sd	a2, 0x0(s0)
   1c928: 54 c4        	sw	a3, 0xc(s0)
   1c92a: 23 00 37 01  	sb	s3, 0x0(a4)
   1c92e: 18 50        	lw	a4, 0x20(s0)
   1c930: e3 13 f7 f8  	bne	a4, a5, 0x1c8b6 <__swbuf_r+0x5e>
   1c934: a2 85        	mv	a1, s0
   1c936: 4a 85        	mv	a0, s2
   1c938: ef 60 af cf  	jal	0x12e32 <_fflush_r>
   1c93c: 49 d1        	beqz	a0, 0x1c8be <__swbuf_r+0x66>
   1c93e: a2 69        	ld	s3, 0x8(sp)
   1c940: fd 54        	li	s1, -0x1
   1c942: bd bf        	j	0x1c8c0 <__swbuf_r+0x68>
   1c944: a9 47        	li	a5, 0xa
   1c946: e3 9c f4 f6  	bne	s1, a5, 0x1c8be <__swbuf_r+0x66>
   1c94a: a2 85        	mv	a1, s0
   1c94c: 4a 85        	mv	a0, s2
   1c94e: ef 60 4f ce  	jal	0x12e32 <_fflush_r>
   1c952: 35 d5        	beqz	a0, 0x1c8be <__swbuf_r+0x66>
   1c954: ed b7        	j	0x1c93e <__swbuf_r+0xe6>
   1c956: ef 60 af e9  	jal	0x12ff0 <__sinit>
   1c95a: 11 bf        	j	0x1c86e <__swbuf_r+0x16>

000000000001c95c <__swbuf>:
   1c95c: aa 87        	mv	a5, a0
   1c95e: 03 b5 81 70  	ld	a0, 0x708(gp)
   1c962: 2e 86        	mv	a2, a1
   1c964: be 85        	mv	a1, a5
   1c966: 6f f0 3f ef  	j	0x1c858 <__swbuf_r>

000000000001c96a <_wcrtomb_r>:
   1c96a: 79 71        	addi	sp, sp, -0x30
   1c96c: 22 f0        	sd	s0, 0x20(sp)
   1c96e: 26 ec        	sd	s1, 0x18(sp)
   1c970: 06 f4        	sd	ra, 0x28(sp)
   1c972: 83 b7 81 5f  	ld	a5, 0x5f8(gp)
   1c976: 2a 84        	mv	s0, a0
   1c978: b6 84        	mv	s1, a3
   1c97a: 91 c9        	beqz	a1, 0x1c98e <_wcrtomb_r+0x24>
   1c97c: 82 97        	jalr	a5
   1c97e: fd 57        	li	a5, -0x1
   1c980: 63 0d f5 00  	beq	a0, a5, 0x1c99a <_wcrtomb_r+0x30>
   1c984: a2 70        	ld	ra, 0x28(sp)
   1c986: 02 74        	ld	s0, 0x20(sp)
   1c988: e2 64        	ld	s1, 0x18(sp)
   1c98a: 45 61        	addi	sp, sp, 0x30
   1c98c: 82 80        	ret
   1c98e: 01 46        	li	a2, 0x0
   1c990: 8a 85        	mv	a1, sp
   1c992: 82 97        	jalr	a5
   1c994: fd 57        	li	a5, -0x1
   1c996: e3 17 f5 fe  	bne	a0, a5, 0x1c984 <_wcrtomb_r+0x1a>
   1c99a: 23 a0 04 00  	sw	zero, 0x0(s1)
   1c99e: 93 07 a0 08  	li	a5, 0x8a
   1c9a2: a2 70        	ld	ra, 0x28(sp)
   1c9a4: 1c c0        	sw	a5, 0x0(s0)
   1c9a6: 02 74        	ld	s0, 0x20(sp)
   1c9a8: e2 64        	ld	s1, 0x18(sp)
   1c9aa: 45 61        	addi	sp, sp, 0x30
   1c9ac: 82 80        	ret

000000000001c9ae <wcrtomb>:
   1c9ae: 79 71        	addi	sp, sp, -0x30
   1c9b0: 22 f0        	sd	s0, 0x20(sp)
   1c9b2: 26 ec        	sd	s1, 0x18(sp)
   1c9b4: 06 f4        	sd	ra, 0x28(sp)
   1c9b6: 83 b4 81 70  	ld	s1, 0x708(gp)
   1c9ba: 83 b7 81 5f  	ld	a5, 0x5f8(gp)
   1c9be: 32 84        	mv	s0, a2
   1c9c0: 11 cd        	beqz	a0, 0x1c9dc <wcrtomb+0x2e>
   1c9c2: 2e 86        	mv	a2, a1
   1c9c4: a2 86        	mv	a3, s0
   1c9c6: aa 85        	mv	a1, a0
   1c9c8: 26 85        	mv	a0, s1
   1c9ca: 82 97        	jalr	a5
   1c9cc: fd 57        	li	a5, -0x1
   1c9ce: 63 0f f5 00  	beq	a0, a5, 0x1c9ec <wcrtomb+0x3e>
   1c9d2: a2 70        	ld	ra, 0x28(sp)
   1c9d4: 02 74        	ld	s0, 0x20(sp)
   1c9d6: e2 64        	ld	s1, 0x18(sp)
   1c9d8: 45 61        	addi	sp, sp, 0x30
   1c9da: 82 80        	ret
   1c9dc: b2 86        	mv	a3, a2
   1c9de: 8a 85        	mv	a1, sp
   1c9e0: 01 46        	li	a2, 0x0
   1c9e2: 26 85        	mv	a0, s1
   1c9e4: 82 97        	jalr	a5
   1c9e6: fd 57        	li	a5, -0x1
   1c9e8: e3 15 f5 fe  	bne	a0, a5, 0x1c9d2 <wcrtomb+0x24>
   1c9ec: 23 20 04 00  	sw	zero, 0x0(s0)
   1c9f0: a2 70        	ld	ra, 0x28(sp)
   1c9f2: 02 74        	ld	s0, 0x20(sp)
   1c9f4: 93 07 a0 08  	li	a5, 0x8a
   1c9f8: 9c c0        	sw	a5, 0x0(s1)
   1c9fa: e2 64        	ld	s1, 0x18(sp)
   1c9fc: 45 61        	addi	sp, sp, 0x30
   1c9fe: 82 80        	ret

000000000001ca00 <_wctomb_r>:
   1ca00: 83 b7 81 5f  	ld	a5, 0x5f8(gp)
   1ca04: 82 87        	jr	a5

000000000001ca06 <__ascii_wctomb>:
   1ca06: 91 cd        	beqz	a1, 0x1ca22 <__ascii_wctomb+0x1c>
   1ca08: 93 07 f0 0f  	li	a5, 0xff
   1ca0c: 63 e6 c7 00  	bltu	a5, a2, 0x1ca18 <__ascii_wctomb+0x12>
   1ca10: 23 80 c5 00  	sb	a2, 0x0(a1)
   1ca14: 05 45        	li	a0, 0x1
   1ca16: 82 80        	ret
   1ca18: 93 07 a0 08  	li	a5, 0x8a
   1ca1c: 1c c1        	sw	a5, 0x0(a0)
   1ca1e: 7d 55        	li	a0, -0x1
   1ca20: 82 80        	ret
   1ca22: 01 45        	li	a0, 0x0
   1ca24: 82 80        	ret

000000000001ca26 <abort>:
   1ca26: 41 11        	addi	sp, sp, -0x10
   1ca28: 19 45        	li	a0, 0x6
   1ca2a: 06 e4        	sd	ra, 0x8(sp)
   1ca2c: ef 00 00 1a  	jal	0x1cbcc <raise>
   1ca30: 05 45        	li	a0, 0x1
   1ca32: ef 00 e0 3a  	jal	0x1cde0 <_exit>

000000000001ca36 <_init_signal_r>:
   1ca36: 83 37 85 51  	ld	a5, 0x518(a0)
   1ca3a: 99 c3        	beqz	a5, 0x1ca40 <_init_signal_r+0xa>
   1ca3c: 01 45        	li	a0, 0x0
   1ca3e: 82 80        	ret
   1ca40: 41 11        	addi	sp, sp, -0x10
   1ca42: 93 05 00 10  	li	a1, 0x100
   1ca46: 22 e0        	sd	s0, 0x0(sp)
   1ca48: 06 e4        	sd	ra, 0x8(sp)
   1ca4a: 2a 84        	mv	s0, a0
   1ca4c: ef 90 cf 9c  	jal	0x15c18 <_malloc_r>
   1ca50: 23 3c a4 50  	sd	a0, 0x518(s0)
   1ca54: 09 cd        	beqz	a0, 0x1ca6e <_init_signal_r+0x38>
   1ca56: 93 07 05 10  	addi	a5, a0, 0x100
   1ca5a: 23 30 05 00  	sd	zero, 0x0(a0)
   1ca5e: 21 05        	addi	a0, a0, 0x8
   1ca60: e3 1d f5 fe  	bne	a0, a5, 0x1ca5a <_init_signal_r+0x24>
   1ca64: 01 45        	li	a0, 0x0
   1ca66: a2 60        	ld	ra, 0x8(sp)
   1ca68: 02 64        	ld	s0, 0x0(sp)
   1ca6a: 41 01        	addi	sp, sp, 0x10
   1ca6c: 82 80        	ret
   1ca6e: 7d 55        	li	a0, -0x1
   1ca70: dd bf        	j	0x1ca66 <_init_signal_r+0x30>

000000000001ca72 <_signal_r>:
   1ca72: 79 71        	addi	sp, sp, -0x30
   1ca74: 26 ec        	sd	s1, 0x18(sp)
   1ca76: 06 f4        	sd	ra, 0x28(sp)
   1ca78: fd 47        	li	a5, 0x1f
   1ca7a: aa 84        	mv	s1, a0
   1ca7c: 63 e0 b7 02  	bltu	a5, a1, 0x1ca9c <_signal_r+0x2a>
   1ca80: 83 37 85 51  	ld	a5, 0x518(a0)
   1ca84: 22 f0        	sd	s0, 0x20(sp)
   1ca86: 2e 84        	mv	s0, a1
   1ca88: 8d c3        	beqz	a5, 0x1caaa <_signal_r+0x38>
   1ca8a: 0e 04        	slli	s0, s0, 0x3
   1ca8c: a2 97        	add	a5, a5, s0
   1ca8e: a2 70        	ld	ra, 0x28(sp)
   1ca90: 02 74        	ld	s0, 0x20(sp)
   1ca92: 88 63        	ld	a0, 0x0(a5)
   1ca94: 90 e3        	sd	a2, 0x0(a5)
   1ca96: e2 64        	ld	s1, 0x18(sp)
   1ca98: 45 61        	addi	sp, sp, 0x30
   1ca9a: 82 80        	ret
   1ca9c: d9 47        	li	a5, 0x16
   1ca9e: 1c c1        	sw	a5, 0x0(a0)
   1caa0: 7d 55        	li	a0, -0x1
   1caa2: a2 70        	ld	ra, 0x28(sp)
   1caa4: e2 64        	ld	s1, 0x18(sp)
   1caa6: 45 61        	addi	sp, sp, 0x30
   1caa8: 82 80        	ret
   1caaa: 93 05 00 10  	li	a1, 0x100
   1caae: 32 e4        	sd	a2, 0x8(sp)
   1cab0: ef 90 8f 96  	jal	0x15c18 <_malloc_r>
   1cab4: 23 bc a4 50  	sd	a0, 0x518(s1)
   1cab8: 22 66        	ld	a2, 0x8(sp)
   1caba: aa 87        	mv	a5, a0
   1cabc: 2a 87        	mv	a4, a0
   1cabe: 93 06 05 10  	addi	a3, a0, 0x100
   1cac2: 19 c5        	beqz	a0, 0x1cad0 <_signal_r+0x5e>
   1cac4: 23 30 07 00  	sd	zero, 0x0(a4)
   1cac8: 21 07        	addi	a4, a4, 0x8
   1caca: e3 1d d7 fe  	bne	a4, a3, 0x1cac4 <_signal_r+0x52>
   1cace: 75 bf        	j	0x1ca8a <_signal_r+0x18>
   1cad0: 02 74        	ld	s0, 0x20(sp)
   1cad2: 7d 55        	li	a0, -0x1
   1cad4: f9 b7        	j	0x1caa2 <_signal_r+0x30>

000000000001cad6 <_raise_r>:
   1cad6: 01 11        	addi	sp, sp, -0x20
   1cad8: 26 e4        	sd	s1, 0x8(sp)
   1cada: 06 ec        	sd	ra, 0x18(sp)
   1cadc: fd 47        	li	a5, 0x1f
   1cade: aa 84        	mv	s1, a0
   1cae0: 63 ee b7 04  	bltu	a5, a1, 0x1cb3c <_raise_r+0x66>
   1cae4: 83 37 85 51  	ld	a5, 0x518(a0)
   1cae8: 22 e8        	sd	s0, 0x10(sp)
   1caea: 2e 84        	mv	s0, a1
   1caec: 95 c7        	beqz	a5, 0x1cb18 <_raise_r+0x42>
   1caee: 13 97 35 00  	slli	a4, a1, 0x3
   1caf2: ba 97        	add	a5, a5, a4
   1caf4: 98 63        	ld	a4, 0x0(a5)
   1caf6: 0d c3        	beqz	a4, 0x1cb18 <_raise_r+0x42>
   1caf8: 05 45        	li	a0, 0x1
   1cafa: 63 09 a7 00  	beq	a4, a0, 0x1cb0c <_raise_r+0x36>
   1cafe: fd 56        	li	a3, -0x1
   1cb00: 63 07 d7 02  	beq	a4, a3, 0x1cb2e <_raise_r+0x58>
   1cb04: 23 b0 07 00  	sd	zero, 0x0(a5)
   1cb08: 2e 85        	mv	a0, a1
   1cb0a: 02 97        	jalr	a4
   1cb0c: 42 64        	ld	s0, 0x10(sp)
   1cb0e: 01 45        	li	a0, 0x0
   1cb10: e2 60        	ld	ra, 0x18(sp)
   1cb12: a2 64        	ld	s1, 0x8(sp)
   1cb14: 05 61        	addi	sp, sp, 0x20
   1cb16: 82 80        	ret
   1cb18: 26 85        	mv	a0, s1
   1cb1a: ef 00 e0 28  	jal	0x1cda8 <_getpid_r>
   1cb1e: 22 86        	mv	a2, s0
   1cb20: 42 64        	ld	s0, 0x10(sp)
   1cb22: e2 60        	ld	ra, 0x18(sp)
   1cb24: aa 85        	mv	a1, a0
   1cb26: 26 85        	mv	a0, s1
   1cb28: a2 64        	ld	s1, 0x8(sp)
   1cb2a: 05 61        	addi	sp, sp, 0x20
   1cb2c: a1 a4        	j	0x1cd74 <_kill_r>
   1cb2e: 42 64        	ld	s0, 0x10(sp)
   1cb30: e2 60        	ld	ra, 0x18(sp)
   1cb32: d9 47        	li	a5, 0x16
   1cb34: 9c c0        	sw	a5, 0x0(s1)
   1cb36: a2 64        	ld	s1, 0x8(sp)
   1cb38: 05 61        	addi	sp, sp, 0x20
   1cb3a: 82 80        	ret
   1cb3c: d9 47        	li	a5, 0x16
   1cb3e: 1c c1        	sw	a5, 0x0(a0)
   1cb40: 7d 55        	li	a0, -0x1
   1cb42: f9 b7        	j	0x1cb10 <_raise_r+0x3a>

000000000001cb44 <__sigtramp_r>:
   1cb44: fd 47        	li	a5, 0x1f
   1cb46: 63 e1 b7 08  	bltu	a5, a1, 0x1cbc8 <__sigtramp_r+0x84>
   1cb4a: 83 37 85 51  	ld	a5, 0x518(a0)
   1cb4e: 01 11        	addi	sp, sp, -0x20
   1cb50: 22 e8        	sd	s0, 0x10(sp)
   1cb52: 26 e4        	sd	s1, 0x8(sp)
   1cb54: 06 ec        	sd	ra, 0x18(sp)
   1cb56: 2e 84        	mv	s0, a1
   1cb58: aa 84        	mv	s1, a0
   1cb5a: a1 c7        	beqz	a5, 0x1cba2 <__sigtramp_r+0x5e>
   1cb5c: 13 17 34 00  	slli	a4, s0, 0x3
   1cb60: ba 97        	add	a5, a5, a4
   1cb62: 98 63        	ld	a4, 0x0(a5)
   1cb64: 0d c3        	beqz	a4, 0x1cb86 <__sigtramp_r+0x42>
   1cb66: fd 56        	li	a3, -0x1
   1cb68: 63 0b d7 02  	beq	a4, a3, 0x1cb9e <__sigtramp_r+0x5a>
   1cb6c: 85 46        	li	a3, 0x1
   1cb6e: 63 02 d7 02  	beq	a4, a3, 0x1cb92 <__sigtramp_r+0x4e>
   1cb72: 22 85        	mv	a0, s0
   1cb74: 23 b0 07 00  	sd	zero, 0x0(a5)
   1cb78: 02 97        	jalr	a4
   1cb7a: 01 45        	li	a0, 0x0
   1cb7c: e2 60        	ld	ra, 0x18(sp)
   1cb7e: 42 64        	ld	s0, 0x10(sp)
   1cb80: a2 64        	ld	s1, 0x8(sp)
   1cb82: 05 61        	addi	sp, sp, 0x20
   1cb84: 82 80        	ret
   1cb86: e2 60        	ld	ra, 0x18(sp)
   1cb88: 42 64        	ld	s0, 0x10(sp)
   1cb8a: a2 64        	ld	s1, 0x8(sp)
   1cb8c: 05 45        	li	a0, 0x1
   1cb8e: 05 61        	addi	sp, sp, 0x20
   1cb90: 82 80        	ret
   1cb92: e2 60        	ld	ra, 0x18(sp)
   1cb94: 42 64        	ld	s0, 0x10(sp)
   1cb96: a2 64        	ld	s1, 0x8(sp)
   1cb98: 0d 45        	li	a0, 0x3
   1cb9a: 05 61        	addi	sp, sp, 0x20
   1cb9c: 82 80        	ret
   1cb9e: 09 45        	li	a0, 0x2
   1cba0: f1 bf        	j	0x1cb7c <__sigtramp_r+0x38>
   1cba2: 93 05 00 10  	li	a1, 0x100
   1cba6: ef 90 2f 87  	jal	0x15c18 <_malloc_r>
   1cbaa: 23 bc a4 50  	sd	a0, 0x518(s1)
   1cbae: aa 87        	mv	a5, a0
   1cbb0: 11 c9        	beqz	a0, 0x1cbc4 <__sigtramp_r+0x80>
   1cbb2: 2a 87        	mv	a4, a0
   1cbb4: 93 06 05 10  	addi	a3, a0, 0x100
   1cbb8: 23 30 07 00  	sd	zero, 0x0(a4)
   1cbbc: 21 07        	addi	a4, a4, 0x8
   1cbbe: e3 1d d7 fe  	bne	a4, a3, 0x1cbb8 <__sigtramp_r+0x74>
   1cbc2: 69 bf        	j	0x1cb5c <__sigtramp_r+0x18>
   1cbc4: 7d 55        	li	a0, -0x1
   1cbc6: 5d bf        	j	0x1cb7c <__sigtramp_r+0x38>
   1cbc8: 7d 55        	li	a0, -0x1
   1cbca: 82 80        	ret

000000000001cbcc <raise>:
   1cbcc: 01 11        	addi	sp, sp, -0x20
   1cbce: 26 e4        	sd	s1, 0x8(sp)
   1cbd0: 06 ec        	sd	ra, 0x18(sp)
   1cbd2: fd 47        	li	a5, 0x1f
   1cbd4: 83 b4 81 70  	ld	s1, 0x708(gp)
   1cbd8: 63 ee a7 04  	bltu	a5, a0, 0x1cc34 <raise+0x68>
   1cbdc: 83 b7 84 51  	ld	a5, 0x518(s1)
   1cbe0: 22 e8        	sd	s0, 0x10(sp)
   1cbe2: 2a 84        	mv	s0, a0
   1cbe4: 8d c7        	beqz	a5, 0x1cc0e <raise+0x42>
   1cbe6: 13 17 35 00  	slli	a4, a0, 0x3
   1cbea: ba 97        	add	a5, a5, a4
   1cbec: 98 63        	ld	a4, 0x0(a5)
   1cbee: 05 c3        	beqz	a4, 0x1cc0e <raise+0x42>
   1cbf0: 85 46        	li	a3, 0x1
   1cbf2: 63 08 d7 00  	beq	a4, a3, 0x1cc02 <raise+0x36>
   1cbf6: 7d 56        	li	a2, -0x1
   1cbf8: 63 06 c7 02  	beq	a4, a2, 0x1cc24 <raise+0x58>
   1cbfc: 23 b0 07 00  	sd	zero, 0x0(a5)
   1cc00: 02 97        	jalr	a4
   1cc02: 42 64        	ld	s0, 0x10(sp)
   1cc04: 01 45        	li	a0, 0x0
   1cc06: e2 60        	ld	ra, 0x18(sp)
   1cc08: a2 64        	ld	s1, 0x8(sp)
   1cc0a: 05 61        	addi	sp, sp, 0x20
   1cc0c: 82 80        	ret
   1cc0e: 26 85        	mv	a0, s1
   1cc10: ef 00 80 19  	jal	0x1cda8 <_getpid_r>
   1cc14: 22 86        	mv	a2, s0
   1cc16: 42 64        	ld	s0, 0x10(sp)
   1cc18: e2 60        	ld	ra, 0x18(sp)
   1cc1a: aa 85        	mv	a1, a0
   1cc1c: 26 85        	mv	a0, s1
   1cc1e: a2 64        	ld	s1, 0x8(sp)
   1cc20: 05 61        	addi	sp, sp, 0x20
   1cc22: 89 aa        	j	0x1cd74 <_kill_r>
   1cc24: 42 64        	ld	s0, 0x10(sp)
   1cc26: e2 60        	ld	ra, 0x18(sp)
   1cc28: d9 47        	li	a5, 0x16
   1cc2a: 9c c0        	sw	a5, 0x0(s1)
   1cc2c: 36 85        	mv	a0, a3
   1cc2e: a2 64        	ld	s1, 0x8(sp)
   1cc30: 05 61        	addi	sp, sp, 0x20
   1cc32: 82 80        	ret
   1cc34: d9 47        	li	a5, 0x16
   1cc36: 9c c0        	sw	a5, 0x0(s1)
   1cc38: 7d 55        	li	a0, -0x1
   1cc3a: f1 b7        	j	0x1cc06 <raise+0x3a>

000000000001cc3c <signal>:
   1cc3c: 01 11        	addi	sp, sp, -0x20
   1cc3e: 4a e0        	sd	s2, 0x0(sp)
   1cc40: 06 ec        	sd	ra, 0x18(sp)
   1cc42: fd 47        	li	a5, 0x1f
   1cc44: 03 b9 81 70  	ld	s2, 0x708(gp)
   1cc48: 63 e4 a7 02  	bltu	a5, a0, 0x1cc70 <signal+0x34>
   1cc4c: 22 e8        	sd	s0, 0x10(sp)
   1cc4e: 2a 84        	mv	s0, a0
   1cc50: 03 35 89 51  	ld	a0, 0x518(s2)
   1cc54: 26 e4        	sd	s1, 0x8(sp)
   1cc56: ae 84        	mv	s1, a1
   1cc58: 05 c5        	beqz	a0, 0x1cc80 <signal+0x44>
   1cc5a: 0e 04        	slli	s0, s0, 0x3
   1cc5c: b3 07 85 00  	add	a5, a0, s0
   1cc60: e2 60        	ld	ra, 0x18(sp)
   1cc62: 42 64        	ld	s0, 0x10(sp)
   1cc64: 88 63        	ld	a0, 0x0(a5)
   1cc66: 84 e3        	sd	s1, 0x0(a5)
   1cc68: 02 69        	ld	s2, 0x0(sp)
   1cc6a: a2 64        	ld	s1, 0x8(sp)
   1cc6c: 05 61        	addi	sp, sp, 0x20
   1cc6e: 82 80        	ret
   1cc70: d9 47        	li	a5, 0x16
   1cc72: 23 20 f9 00  	sw	a5, 0x0(s2)
   1cc76: 7d 55        	li	a0, -0x1
   1cc78: e2 60        	ld	ra, 0x18(sp)
   1cc7a: 02 69        	ld	s2, 0x0(sp)
   1cc7c: 05 61        	addi	sp, sp, 0x20
   1cc7e: 82 80        	ret
   1cc80: 93 05 00 10  	li	a1, 0x100
   1cc84: 4a 85        	mv	a0, s2
   1cc86: ef 80 3f f9  	jal	0x15c18 <_malloc_r>
   1cc8a: 23 3c a9 50  	sd	a0, 0x518(s2)
   1cc8e: aa 87        	mv	a5, a0
   1cc90: 13 07 05 10  	addi	a4, a0, 0x100
   1cc94: 19 c5        	beqz	a0, 0x1cca2 <signal+0x66>
   1cc96: 23 b0 07 00  	sd	zero, 0x0(a5)
   1cc9a: a1 07        	addi	a5, a5, 0x8
   1cc9c: e3 1d f7 fe  	bne	a4, a5, 0x1cc96 <signal+0x5a>
   1cca0: 6d bf        	j	0x1cc5a <signal+0x1e>
   1cca2: 42 64        	ld	s0, 0x10(sp)
   1cca4: a2 64        	ld	s1, 0x8(sp)
   1cca6: 7d 55        	li	a0, -0x1
   1cca8: c1 bf        	j	0x1cc78 <signal+0x3c>

000000000001ccaa <_init_signal>:
   1ccaa: 41 11        	addi	sp, sp, -0x10
   1ccac: 22 e0        	sd	s0, 0x0(sp)
   1ccae: 03 b4 81 70  	ld	s0, 0x708(gp)
   1ccb2: 06 e4        	sd	ra, 0x8(sp)
   1ccb4: 83 37 84 51  	ld	a5, 0x518(s0)
   1ccb8: 91 c7        	beqz	a5, 0x1ccc4 <_init_signal+0x1a>
   1ccba: 01 45        	li	a0, 0x0
   1ccbc: a2 60        	ld	ra, 0x8(sp)
   1ccbe: 02 64        	ld	s0, 0x0(sp)
   1ccc0: 41 01        	addi	sp, sp, 0x10
   1ccc2: 82 80        	ret
   1ccc4: 93 05 00 10  	li	a1, 0x100
   1ccc8: 22 85        	mv	a0, s0
   1ccca: ef 80 ff f4  	jal	0x15c18 <_malloc_r>
   1ccce: 23 3c a4 50  	sd	a0, 0x518(s0)
   1ccd2: 09 c9        	beqz	a0, 0x1cce4 <_init_signal+0x3a>
   1ccd4: 93 07 05 10  	addi	a5, a0, 0x100
   1ccd8: 23 30 05 00  	sd	zero, 0x0(a0)
   1ccdc: 21 05        	addi	a0, a0, 0x8
   1ccde: e3 1d f5 fe  	bne	a0, a5, 0x1ccd8 <_init_signal+0x2e>
   1cce2: e1 bf        	j	0x1ccba <_init_signal+0x10>
   1cce4: 7d 55        	li	a0, -0x1
   1cce6: d9 bf        	j	0x1ccbc <_init_signal+0x12>

000000000001cce8 <__sigtramp>:
   1cce8: 01 11        	addi	sp, sp, -0x20
   1ccea: 26 e4        	sd	s1, 0x8(sp)
   1ccec: 06 ec        	sd	ra, 0x18(sp)
   1ccee: fd 47        	li	a5, 0x1f
   1ccf0: 83 b4 81 70  	ld	s1, 0x708(gp)
   1ccf4: 63 ee a7 06  	bltu	a5, a0, 0x1cd70 <__sigtramp+0x88>
   1ccf8: 83 b7 84 51  	ld	a5, 0x518(s1)
   1ccfc: 22 e8        	sd	s0, 0x10(sp)
   1ccfe: 2a 84        	mv	s0, a0
   1cd00: a9 c7        	beqz	a5, 0x1cd4a <__sigtramp+0x62>
   1cd02: 13 17 34 00  	slli	a4, s0, 0x3
   1cd06: ba 97        	add	a5, a5, a4
   1cd08: 98 63        	ld	a4, 0x0(a5)
   1cd0a: 0d c3        	beqz	a4, 0x1cd2c <__sigtramp+0x44>
   1cd0c: fd 56        	li	a3, -0x1
   1cd0e: 63 0b d7 02  	beq	a4, a3, 0x1cd44 <__sigtramp+0x5c>
   1cd12: 85 46        	li	a3, 0x1
   1cd14: 63 02 d7 02  	beq	a4, a3, 0x1cd38 <__sigtramp+0x50>
   1cd18: 22 85        	mv	a0, s0
   1cd1a: 23 b0 07 00  	sd	zero, 0x0(a5)
   1cd1e: 02 97        	jalr	a4
   1cd20: 42 64        	ld	s0, 0x10(sp)
   1cd22: 01 45        	li	a0, 0x0
   1cd24: e2 60        	ld	ra, 0x18(sp)
   1cd26: a2 64        	ld	s1, 0x8(sp)
   1cd28: 05 61        	addi	sp, sp, 0x20
   1cd2a: 82 80        	ret
   1cd2c: 42 64        	ld	s0, 0x10(sp)
   1cd2e: e2 60        	ld	ra, 0x18(sp)
   1cd30: a2 64        	ld	s1, 0x8(sp)
   1cd32: 05 45        	li	a0, 0x1
   1cd34: 05 61        	addi	sp, sp, 0x20
   1cd36: 82 80        	ret
   1cd38: 42 64        	ld	s0, 0x10(sp)
   1cd3a: e2 60        	ld	ra, 0x18(sp)
   1cd3c: a2 64        	ld	s1, 0x8(sp)
   1cd3e: 0d 45        	li	a0, 0x3
   1cd40: 05 61        	addi	sp, sp, 0x20
   1cd42: 82 80        	ret
   1cd44: 42 64        	ld	s0, 0x10(sp)
   1cd46: 09 45        	li	a0, 0x2
   1cd48: f1 bf        	j	0x1cd24 <__sigtramp+0x3c>
   1cd4a: 93 05 00 10  	li	a1, 0x100
   1cd4e: 26 85        	mv	a0, s1
   1cd50: ef 80 9f ec  	jal	0x15c18 <_malloc_r>
   1cd54: 23 bc a4 50  	sd	a0, 0x518(s1)
   1cd58: aa 87        	mv	a5, a0
   1cd5a: 11 c9        	beqz	a0, 0x1cd6e <__sigtramp+0x86>
   1cd5c: 2a 87        	mv	a4, a0
   1cd5e: 93 06 05 10  	addi	a3, a0, 0x100
   1cd62: 23 30 07 00  	sd	zero, 0x0(a4)
   1cd66: 21 07        	addi	a4, a4, 0x8
   1cd68: e3 9d e6 fe  	bne	a3, a4, 0x1cd62 <__sigtramp+0x7a>
   1cd6c: 59 bf        	j	0x1cd02 <__sigtramp+0x1a>
   1cd6e: 42 64        	ld	s0, 0x10(sp)
   1cd70: 7d 55        	li	a0, -0x1
   1cd72: 4d bf        	j	0x1cd24 <__sigtramp+0x3c>

000000000001cd74 <_kill_r>:
   1cd74: 41 11        	addi	sp, sp, -0x10
   1cd76: 2e 87        	mv	a4, a1
   1cd78: 22 e0        	sd	s0, 0x0(sp)
   1cd7a: b2 85        	mv	a1, a2
   1cd7c: 2a 84        	mv	s0, a0
   1cd7e: 3a 85        	mv	a0, a4
   1cd80: 23 a4 01 78  	sw	zero, 0x788(gp)
   1cd84: 06 e4        	sd	ra, 0x8(sp)
   1cd86: ef 00 e0 12  	jal	0x1ceb4 <_kill>
   1cd8a: fd 57        	li	a5, -0x1
   1cd8c: 63 06 f5 00  	beq	a0, a5, 0x1cd98 <_kill_r+0x24>
   1cd90: a2 60        	ld	ra, 0x8(sp)
   1cd92: 02 64        	ld	s0, 0x0(sp)
   1cd94: 41 01        	addi	sp, sp, 0x10
   1cd96: 82 80        	ret
   1cd98: 83 a7 81 78  	lw	a5, 0x788(gp)
   1cd9c: f5 db        	beqz	a5, 0x1cd90 <_kill_r+0x1c>
   1cd9e: a2 60        	ld	ra, 0x8(sp)
   1cda0: 1c c0        	sw	a5, 0x0(s0)
   1cda2: 02 64        	ld	s0, 0x0(sp)
   1cda4: 41 01        	addi	sp, sp, 0x10
   1cda6: 82 80        	ret

000000000001cda8 <_getpid_r>:
   1cda8: 75 a0        	j	0x1ce54 <_getpid>

000000000001cdaa <_close>:
   1cdaa: 41 11        	addi	sp, sp, -0x10
   1cdac: 06 e4        	sd	ra, 0x8(sp)
   1cdae: 22 e0        	sd	s0, 0x0(sp)
   1cdb0: 81 45        	li	a1, 0x0
   1cdb2: 01 46        	li	a2, 0x0
   1cdb4: 81 46        	li	a3, 0x0
   1cdb6: 01 47        	li	a4, 0x0
   1cdb8: 81 47        	li	a5, 0x0
   1cdba: 93 08 90 03  	li	a7, 0x39
   1cdbe: 73 00 00 00  	ecall
   1cdc2: 2a 84        	mv	s0, a0
   1cdc4: 63 47 05 00  	bltz	a0, 0x1cdd2 <_close+0x28>
   1cdc8: 01 25        	sext.w	a0, a0
   1cdca: a2 60        	ld	ra, 0x8(sp)
   1cdcc: 02 64        	ld	s0, 0x0(sp)
   1cdce: 41 01        	addi	sp, sp, 0x10
   1cdd0: 82 80        	ret
   1cdd2: ef 00 00 25  	jal	0x1d022 <__errno>
   1cdd6: 3b 04 80 40  	negw	s0, s0
   1cdda: 00 c1        	sw	s0, 0x0(a0)
   1cddc: 7d 55        	li	a0, -0x1
   1cdde: f5 b7        	j	0x1cdca <_close+0x20>

000000000001cde0 <_exit>:
   1cde0: 81 45        	li	a1, 0x0
   1cde2: 01 46        	li	a2, 0x0
   1cde4: 81 46        	li	a3, 0x0
   1cde6: 01 47        	li	a4, 0x0
   1cde8: 81 47        	li	a5, 0x0
   1cdea: 93 08 d0 05  	li	a7, 0x5d
   1cdee: 73 00 00 00  	ecall
   1cdf2: 63 43 05 00  	bltz	a0, 0x1cdf8 <_exit+0x18>
   1cdf6: 01 a0        	j	0x1cdf6 <_exit+0x16>
   1cdf8: 41 11        	addi	sp, sp, -0x10
   1cdfa: 22 e0        	sd	s0, 0x0(sp)
   1cdfc: 2a 84        	mv	s0, a0
   1cdfe: 06 e4        	sd	ra, 0x8(sp)
   1ce00: 3b 04 80 40  	negw	s0, s0
   1ce04: ef 00 e0 21  	jal	0x1d022 <__errno>
   1ce08: 00 c1        	sw	s0, 0x0(a0)
   1ce0a: 01 a0        	j	0x1ce0a <_exit+0x2a>

000000000001ce0c <_fstat>:
   1ce0c: 35 71        	addi	sp, sp, -0xa0
   1ce0e: 26 e5        	sd	s1, 0x88(sp)
   1ce10: 06 ed        	sd	ra, 0x98(sp)
   1ce12: ae 84        	mv	s1, a1
   1ce14: 22 e9        	sd	s0, 0x90(sp)
   1ce16: 8a 85        	mv	a1, sp
   1ce18: 01 46        	li	a2, 0x0
   1ce1a: 81 46        	li	a3, 0x0
   1ce1c: 01 47        	li	a4, 0x0
   1ce1e: 81 47        	li	a5, 0x0
   1ce20: 93 08 00 05  	li	a7, 0x50
   1ce24: 73 00 00 00  	ecall
   1ce28: 2a 84        	mv	s0, a0
   1ce2a: 63 4e 05 00  	bltz	a0, 0x1ce46 <_fstat+0x3a>
   1ce2e: 1b 04 05 00  	sext.w	s0, a0
   1ce32: 26 85        	mv	a0, s1
   1ce34: 8a 85        	mv	a1, sp
   1ce36: ef 00 20 19  	jal	0x1cfc8 <_conv_stat>
   1ce3a: ea 60        	ld	ra, 0x98(sp)
   1ce3c: 22 85        	mv	a0, s0
   1ce3e: 4a 64        	ld	s0, 0x90(sp)
   1ce40: aa 64        	ld	s1, 0x88(sp)
   1ce42: 0d 61        	addi	sp, sp, 0xa0
   1ce44: 82 80        	ret
   1ce46: 3b 04 80 40  	negw	s0, s0
   1ce4a: ef 00 80 1d  	jal	0x1d022 <__errno>
   1ce4e: 00 c1        	sw	s0, 0x0(a0)
   1ce50: 7d 54        	li	s0, -0x1
   1ce52: c5 b7        	j	0x1ce32 <_fstat+0x26>

000000000001ce54 <_getpid>:
   1ce54: 05 45        	li	a0, 0x1
   1ce56: 82 80        	ret

000000000001ce58 <_gettimeofday>:
   1ce58: 41 11        	addi	sp, sp, -0x10
   1ce5a: 06 e4        	sd	ra, 0x8(sp)
   1ce5c: 22 e0        	sd	s0, 0x0(sp)
   1ce5e: 81 45        	li	a1, 0x0
   1ce60: 01 46        	li	a2, 0x0
   1ce62: 81 46        	li	a3, 0x0
   1ce64: 01 47        	li	a4, 0x0
   1ce66: 81 47        	li	a5, 0x0
   1ce68: 93 08 90 0a  	li	a7, 0xa9
   1ce6c: 73 00 00 00  	ecall
   1ce70: 2a 84        	mv	s0, a0
   1ce72: 63 47 05 00  	bltz	a0, 0x1ce80 <_gettimeofday+0x28>
   1ce76: 01 25        	sext.w	a0, a0
   1ce78: a2 60        	ld	ra, 0x8(sp)
   1ce7a: 02 64        	ld	s0, 0x0(sp)
   1ce7c: 41 01        	addi	sp, sp, 0x10
   1ce7e: 82 80        	ret
   1ce80: ef 00 20 1a  	jal	0x1d022 <__errno>
   1ce84: 3b 04 80 40  	negw	s0, s0
   1ce88: 00 c1        	sw	s0, 0x0(a0)
   1ce8a: 7d 55        	li	a0, -0x1
   1ce8c: f5 b7        	j	0x1ce78 <_gettimeofday+0x20>

000000000001ce8e <_isatty>:
   1ce8e: 19 71        	addi	sp, sp, -0x80
   1ce90: 2c 00        	addi	a1, sp, 0x8
   1ce92: 86 fc        	sd	ra, 0x78(sp)
   1ce94: ef f0 9f f7  	jal	0x1ce0c <_fstat>
   1ce98: fd 57        	li	a5, -0x1
   1ce9a: 63 09 f5 00  	beq	a0, a5, 0x1ceac <_isatty+0x1e>
   1ce9e: 32 45        	lw	a0, 0xc(sp)
   1cea0: e6 70        	ld	ra, 0x78(sp)
   1cea2: 1b 55 d5 00  	srliw	a0, a0, 0xd
   1cea6: 05 89        	andi	a0, a0, 0x1
   1cea8: 09 61        	addi	sp, sp, 0x80
   1ceaa: 82 80        	ret
   1ceac: e6 70        	ld	ra, 0x78(sp)
   1ceae: 01 45        	li	a0, 0x0
   1ceb0: 09 61        	addi	sp, sp, 0x80
   1ceb2: 82 80        	ret

000000000001ceb4 <_kill>:
   1ceb4: 41 11        	addi	sp, sp, -0x10
   1ceb6: 06 e4        	sd	ra, 0x8(sp)
   1ceb8: ef 00 a0 16  	jal	0x1d022 <__errno>
   1cebc: a2 60        	ld	ra, 0x8(sp)
   1cebe: d9 47        	li	a5, 0x16
   1cec0: 1c c1        	sw	a5, 0x0(a0)
   1cec2: 7d 55        	li	a0, -0x1
   1cec4: 41 01        	addi	sp, sp, 0x10
   1cec6: 82 80        	ret

000000000001cec8 <_lseek>:
   1cec8: 41 11        	addi	sp, sp, -0x10
   1ceca: 06 e4        	sd	ra, 0x8(sp)
   1cecc: 22 e0        	sd	s0, 0x0(sp)
   1cece: 81 46        	li	a3, 0x0
   1ced0: 01 47        	li	a4, 0x0
   1ced2: 81 47        	li	a5, 0x0
   1ced4: 93 08 e0 03  	li	a7, 0x3e
   1ced8: 73 00 00 00  	ecall
   1cedc: 2a 84        	mv	s0, a0
   1cede: 63 47 05 00  	bltz	a0, 0x1ceec <_lseek+0x24>
   1cee2: a2 60        	ld	ra, 0x8(sp)
   1cee4: 22 85        	mv	a0, s0
   1cee6: 02 64        	ld	s0, 0x0(sp)
   1cee8: 41 01        	addi	sp, sp, 0x10
   1ceea: 82 80        	ret
   1ceec: 3b 04 80 40  	negw	s0, s0
   1cef0: ef 00 20 13  	jal	0x1d022 <__errno>
   1cef4: 00 c1        	sw	s0, 0x0(a0)
   1cef6: 7d 54        	li	s0, -0x1
   1cef8: ed b7        	j	0x1cee2 <_lseek+0x1a>

000000000001cefa <_read>:
   1cefa: 41 11        	addi	sp, sp, -0x10
   1cefc: 06 e4        	sd	ra, 0x8(sp)
   1cefe: 22 e0        	sd	s0, 0x0(sp)
   1cf00: 81 46        	li	a3, 0x0
   1cf02: 01 47        	li	a4, 0x0
   1cf04: 81 47        	li	a5, 0x0
   1cf06: 93 08 f0 03  	li	a7, 0x3f
   1cf0a: 73 00 00 00  	ecall
   1cf0e: 2a 84        	mv	s0, a0
   1cf10: 63 47 05 00  	bltz	a0, 0x1cf1e <_read+0x24>
   1cf14: a2 60        	ld	ra, 0x8(sp)
   1cf16: 22 85        	mv	a0, s0
   1cf18: 02 64        	ld	s0, 0x0(sp)
   1cf1a: 41 01        	addi	sp, sp, 0x10
   1cf1c: 82 80        	ret
   1cf1e: 3b 04 80 40  	negw	s0, s0
   1cf22: ef 00 00 10  	jal	0x1d022 <__errno>
   1cf26: 00 c1        	sw	s0, 0x0(a0)
   1cf28: 7d 54        	li	s0, -0x1
   1cf2a: ed b7        	j	0x1cf14 <_read+0x1a>

000000000001cf2c <_sbrk>:
   1cf2c: 13 83 81 79  	addi	t1, gp, 0x798
   1cf30: 83 37 03 00  	ld	a5, 0x0(t1)
   1cf34: 41 11        	addi	sp, sp, -0x10
   1cf36: 06 e4        	sd	ra, 0x8(sp)
   1cf38: 2a 88        	mv	a6, a0
   1cf3a: 85 e3        	bnez	a5, 0x1cf5a <_sbrk+0x2e>
   1cf3c: 01 45        	li	a0, 0x0
   1cf3e: 81 45        	li	a1, 0x0
   1cf40: 01 46        	li	a2, 0x0
   1cf42: 81 46        	li	a3, 0x0
   1cf44: 01 47        	li	a4, 0x0
   1cf46: 93 08 60 0d  	li	a7, 0xd6
   1cf4a: 73 00 00 00  	ecall
   1cf4e: 7d 57        	li	a4, -0x1
   1cf50: aa 87        	mv	a5, a0
   1cf52: 63 0a e5 02  	beq	a0, a4, 0x1cf86 <_sbrk+0x5a>
   1cf56: 23 30 a3 00  	sd	a0, 0x0(t1)
   1cf5a: 33 05 f8 00  	add	a0, a6, a5
   1cf5e: 81 45        	li	a1, 0x0
   1cf60: 01 46        	li	a2, 0x0
   1cf62: 81 46        	li	a3, 0x0
   1cf64: 01 47        	li	a4, 0x0
   1cf66: 81 47        	li	a5, 0x0
   1cf68: 93 08 60 0d  	li	a7, 0xd6
   1cf6c: 73 00 00 00  	ecall
   1cf70: 83 37 03 00  	ld	a5, 0x0(t1)
   1cf74: 3e 98        	add	a6, a6, a5
   1cf76: 63 18 05 01  	bne	a0, a6, 0x1cf86 <_sbrk+0x5a>
   1cf7a: a2 60        	ld	ra, 0x8(sp)
   1cf7c: 23 30 a3 00  	sd	a0, 0x0(t1)
   1cf80: 3e 85        	mv	a0, a5
   1cf82: 41 01        	addi	sp, sp, 0x10
   1cf84: 82 80        	ret
   1cf86: ef 00 c0 09  	jal	0x1d022 <__errno>
   1cf8a: a2 60        	ld	ra, 0x8(sp)
   1cf8c: b1 47        	li	a5, 0xc
   1cf8e: 1c c1        	sw	a5, 0x0(a0)
   1cf90: 7d 55        	li	a0, -0x1
   1cf92: 41 01        	addi	sp, sp, 0x10
   1cf94: 82 80        	ret

000000000001cf96 <_write>:
   1cf96: 41 11        	addi	sp, sp, -0x10
   1cf98: 06 e4        	sd	ra, 0x8(sp)
   1cf9a: 22 e0        	sd	s0, 0x0(sp)
   1cf9c: 81 46        	li	a3, 0x0
   1cf9e: 01 47        	li	a4, 0x0
   1cfa0: 81 47        	li	a5, 0x0
   1cfa2: 93 08 00 04  	li	a7, 0x40
   1cfa6: 73 00 00 00  	ecall
   1cfaa: 2a 84        	mv	s0, a0
   1cfac: 63 47 05 00  	bltz	a0, 0x1cfba <_write+0x24>
   1cfb0: a2 60        	ld	ra, 0x8(sp)
   1cfb2: 22 85        	mv	a0, s0
   1cfb4: 02 64        	ld	s0, 0x0(sp)
   1cfb6: 41 01        	addi	sp, sp, 0x10
   1cfb8: 82 80        	ret
   1cfba: 3b 04 80 40  	negw	s0, s0
   1cfbe: ef 00 40 06  	jal	0x1d022 <__errno>
   1cfc2: 00 c1        	sw	s0, 0x0(a0)
   1cfc4: 7d 54        	li	s0, -0x1
   1cfc6: ed b7        	j	0x1cfb0 <_write+0x1a>

000000000001cfc8 <_conv_stat>:
   1cfc8: 83 b3 05 00  	ld	t2, 0x0(a1)
   1cfcc: 83 b2 85 00  	ld	t0, 0x8(a1)
   1cfd0: 83 af 05 01  	lw	t6, 0x10(a1)
   1cfd4: 03 af 45 01  	lw	t5, 0x14(a1)
   1cfd8: 83 ae 85 01  	lw	t4, 0x18(a1)
   1cfdc: 03 ae c5 01  	lw	t3, 0x1c(a1)
   1cfe0: 03 b3 05 02  	ld	t1, 0x20(a1)
   1cfe4: 83 b8 05 03  	ld	a7, 0x30(a1)
   1cfe8: 03 b8 05 04  	ld	a6, 0x40(a1)
   1cfec: 90 5d        	lw	a2, 0x38(a1)
   1cfee: b4 65        	ld	a3, 0x48(a1)
   1cff0: b8 6d        	ld	a4, 0x58(a1)
   1cff2: bc 75        	ld	a5, 0x68(a1)
   1cff4: 23 10 75 00  	sh	t2, 0x0(a0)
   1cff8: 23 11 55 00  	sh	t0, 0x2(a0)
   1cffc: 23 22 f5 01  	sw	t6, 0x4(a0)
   1d000: 23 14 e5 01  	sh	t5, 0x8(a0)
   1d004: 23 15 d5 01  	sh	t4, 0xa(a0)
   1d008: 23 16 c5 01  	sh	t3, 0xc(a0)
   1d00c: 23 17 65 00  	sh	t1, 0xe(a0)
   1d010: 23 38 15 01  	sd	a7, 0x10(a0)
   1d014: 23 38 05 05  	sd	a6, 0x50(a0)
   1d018: 30 e5        	sd	a2, 0x48(a0)
   1d01a: 14 ed        	sd	a3, 0x18(a0)
   1d01c: 18 f5        	sd	a4, 0x28(a0)
   1d01e: 1c fd        	sd	a5, 0x38(a0)
   1d020: 82 80        	ret

000000000001d022 <__errno>:
   1d022: 03 b5 81 70  	ld	a0, 0x708(gp)
   1d026: 82 80        	ret

000000000001d028 <__netf2>:
   1d028: aa 88        	mv	a7, a0
   1d02a: f3 27 20 00  	frrm	a5
   1d02e: 7d 55        	li	a0, -0x1
   1d030: 21 68        	lui	a6, 0x8
   1d032: 93 d7 05 03  	srli	a5, a1, 0x30
   1d036: 2a 98        	add	a6, a6, a0
   1d038: 13 57 05 01  	srli	a4, a0, 0x10
   1d03c: 13 de 06 03  	srli	t3, a3, 0x30
   1d040: b3 f7 07 01  	and	a5, a5, a6
   1d044: 33 f3 e5 00  	and	t1, a1, a4
   1d048: 33 7e 0e 01  	and	t3, t3, a6
   1d04c: 75 8f        	and	a4, a4, a3
   1d04e: fd 91        	srli	a1, a1, 0x3f
   1d050: fd 92        	srli	a3, a3, 0x3f
   1d052: 63 99 07 01  	bne	a5, a6, 0x1d064 <__netf2+0x3c>
   1d056: b3 ee 68 00  	or	t4, a7, t1
   1d05a: 63 95 0e 02  	bnez	t4, 0x1d084 <__netf2+0x5c>
   1d05e: 63 13 fe 04  	bne	t3, a5, 0x1d0a4 <__netf2+0x7c>
   1d062: 19 a0        	j	0x1d068 <__netf2+0x40>
   1d064: 63 12 0e 05  	bne	t3, a6, 0x1d0a8 <__netf2+0x80>
   1d068: 33 65 e6 00  	or	a0, a2, a4
   1d06c: 15 cd        	beqz	a0, 0x1d0a8 <__netf2+0x80>
   1d06e: 63 94 07 03  	bne	a5, a6, 0x1d096 <__netf2+0x6e>
   1d072: b3 e8 68 00  	or	a7, a7, t1
   1d076: 63 8d 08 00  	beqz	a7, 0x1d090 <__netf2+0x68>
   1d07a: fd 57        	li	a5, -0x1
   1d07c: c5 83        	srli	a5, a5, 0x11
   1d07e: 63 f1 67 02  	bgeu	a5, t1, 0x1d0a0 <__netf2+0x78>
   1d082: 39 a0        	j	0x1d090 <__netf2+0x68>
   1d084: 45 81        	srli	a0, a0, 0x11
   1d086: 63 7d 65 00  	bgeu	a0, t1, 0x1d0a0 <__netf2+0x78>
   1d08a: 05 45        	li	a0, 0x1
   1d08c: 63 1f fe 02  	bne	t3, a5, 0x1d0ca <__netf2+0xa2>
   1d090: 59 8e        	or	a2, a2, a4
   1d092: 05 45        	li	a0, 0x1
   1d094: 1d ca        	beqz	a2, 0x1d0ca <__netf2+0xa2>
   1d096: fd 57        	li	a5, -0x1
   1d098: c5 83        	srli	a5, a5, 0x11
   1d09a: 05 45        	li	a0, 0x1
   1d09c: 63 e7 e7 02  	bltu	a5, a4, 0x1d0ca <__netf2+0xa2>
   1d0a0: 73 60 18 00  	csrsi	fflags, 0x10
   1d0a4: 05 45        	li	a0, 0x1
   1d0a6: 82 80        	ret
   1d0a8: 05 45        	li	a0, 0x1
   1d0aa: 63 90 c7 03  	bne	a5, t3, 0x1d0ca <__netf2+0xa2>
   1d0ae: 63 1e e3 00  	bne	t1, a4, 0x1d0ca <__netf2+0xa2>
   1d0b2: 63 1c 16 01  	bne	a2, a7, 0x1d0ca <__netf2+0xa2>
   1d0b6: 63 88 d5 00  	beq	a1, a3, 0x1d0c6 <__netf2+0x9e>
   1d0ba: 81 eb        	bnez	a5, 0x1d0ca <__netf2+0xa2>
   1d0bc: 33 66 66 00  	or	a2, a2, t1
   1d0c0: 33 35 c0 00  	snez	a0, a2
   1d0c4: 82 80        	ret
   1d0c6: 01 45        	li	a0, 0x0
   1d0c8: 82 80        	ret
   1d0ca: 82 80        	ret

000000000001d0cc <__gttf2>:
   1d0cc: aa 88        	mv	a7, a0
   1d0ce: f3 27 20 00  	frrm	a5
   1d0d2: 21 63        	lui	t1, 0x8
   1d0d4: 13 d8 05 03  	srli	a6, a1, 0x30
   1d0d8: 7d 13        	addi	t1, t1, -0x1
   1d0da: 7d 57        	li	a4, -0x1
   1d0dc: 41 83        	srli	a4, a4, 0x10
   1d0de: 93 d7 06 03  	srli	a5, a3, 0x30
   1d0e2: 33 78 68 00  	and	a6, a6, t1
   1d0e6: 33 fe e5 00  	and	t3, a1, a4
   1d0ea: 33 f5 67 00  	and	a0, a5, t1
   1d0ee: 75 8f        	and	a4, a4, a3
   1d0f0: fd 91        	srli	a1, a1, 0x3f
   1d0f2: fd 92        	srli	a3, a3, 0x3f
   1d0f4: 63 15 68 00  	bne	a6, t1, 0x1d0fe <__gttf2+0x32>
   1d0f8: b3 67 1e 01  	or	a5, t3, a7
   1d0fc: b1 eb        	bnez	a5, 0x1d150 <__gttf2+0x84>
   1d0fe: 63 15 65 00  	bne	a0, t1, 0x1d108 <__gttf2+0x3c>
   1d102: b3 67 c7 00  	or	a5, a4, a2
   1d106: a9 e7        	bnez	a5, 0x1d150 <__gttf2+0x84>
   1d108: 81 47        	li	a5, 0x0
   1d10a: 63 16 08 00  	bnez	a6, 0x1d116 <__gttf2+0x4a>
   1d10e: b3 67 1e 01  	or	a5, t3, a7
   1d112: 93 b7 17 00  	seqz	a5, a5
   1d116: 29 e1        	bnez	a0, 0x1d158 <__gttf2+0x8c>
   1d118: 33 63 c7 00  	or	t1, a4, a2
   1d11c: 99 c7        	beqz	a5, 0x1d12a <__gttf2+0x5e>
   1d11e: 63 0a 03 00  	beqz	t1, 0x1d132 <__gttf2+0x66>
   1d122: 05 45        	li	a0, 0x1
   1d124: 99 e6        	bnez	a3, 0x1d132 <__gttf2+0x66>
   1d126: 7d 55        	li	a0, -0x1
   1d128: 82 80        	ret
   1d12a: 63 18 03 02  	bnez	t1, 0x1d15a <__gttf2+0x8e>
   1d12e: 7d 55        	li	a0, -0x1
   1d130: 9d c9        	beqz	a1, 0x1d166 <__gttf2+0x9a>
   1d132: 82 80        	ret
   1d134: e3 47 a8 fe  	blt	a6, a0, 0x1d122 <__gttf2+0x56>
   1d138: e3 6b c7 ff  	bltu	a4, t3, 0x1d12e <__gttf2+0x62>
   1d13c: 63 17 ee 00  	bne	t3, a4, 0x1d14a <__gttf2+0x7e>
   1d140: e3 67 16 ff  	bltu	a2, a7, 0x1d12e <__gttf2+0x62>
   1d144: 01 45        	li	a0, 0x0
   1d146: e3 f6 c8 fe  	bgeu	a7, a2, 0x1d132 <__gttf2+0x66>
   1d14a: 05 45        	li	a0, 0x1
   1d14c: fd f1        	bnez	a1, 0x1d132 <__gttf2+0x66>
   1d14e: e1 bf        	j	0x1d126 <__gttf2+0x5a>
   1d150: 73 60 18 00  	csrsi	fflags, 0x10
   1d154: 79 55        	li	a0, -0x2
   1d156: 82 80        	ret
   1d158: e9 f7        	bnez	a5, 0x1d122 <__gttf2+0x56>
   1d15a: e3 9a b6 fc  	bne	a3, a1, 0x1d12e <__gttf2+0x62>
   1d15e: e3 5b 05 fd  	bge	a0, a6, 0x1d134 <__gttf2+0x68>
   1d162: 7d 55        	li	a0, -0x1
   1d164: f9 f6        	bnez	a3, 0x1d132 <__gttf2+0x66>
   1d166: 05 45        	li	a0, 0x1
   1d168: 82 80        	ret

000000000001d16a <__lttf2>:
   1d16a: aa 88        	mv	a7, a0
   1d16c: f3 27 20 00  	frrm	a5
   1d170: 21 63        	lui	t1, 0x8
   1d172: 13 d8 05 03  	srli	a6, a1, 0x30
   1d176: 7d 13        	addi	t1, t1, -0x1
   1d178: 7d 57        	li	a4, -0x1
   1d17a: 41 83        	srli	a4, a4, 0x10
   1d17c: 93 d7 06 03  	srli	a5, a3, 0x30
   1d180: 33 78 68 00  	and	a6, a6, t1
   1d184: 33 fe e5 00  	and	t3, a1, a4
   1d188: 33 f5 67 00  	and	a0, a5, t1
   1d18c: 75 8f        	and	a4, a4, a3
   1d18e: fd 91        	srli	a1, a1, 0x3f
   1d190: fd 92        	srli	a3, a3, 0x3f
   1d192: 63 15 68 00  	bne	a6, t1, 0x1d19c <__lttf2+0x32>
   1d196: b3 67 1e 01  	or	a5, t3, a7
   1d19a: b1 eb        	bnez	a5, 0x1d1ee <__lttf2+0x84>
   1d19c: 63 15 65 00  	bne	a0, t1, 0x1d1a6 <__lttf2+0x3c>
   1d1a0: b3 67 c7 00  	or	a5, a4, a2
   1d1a4: a9 e7        	bnez	a5, 0x1d1ee <__lttf2+0x84>
   1d1a6: 81 47        	li	a5, 0x0
   1d1a8: 63 16 08 00  	bnez	a6, 0x1d1b4 <__lttf2+0x4a>
   1d1ac: b3 67 1e 01  	or	a5, t3, a7
   1d1b0: 93 b7 17 00  	seqz	a5, a5
   1d1b4: 29 e1        	bnez	a0, 0x1d1f6 <__lttf2+0x8c>
   1d1b6: 33 63 c7 00  	or	t1, a4, a2
   1d1ba: 99 c7        	beqz	a5, 0x1d1c8 <__lttf2+0x5e>
   1d1bc: 63 0a 03 00  	beqz	t1, 0x1d1d0 <__lttf2+0x66>
   1d1c0: 05 45        	li	a0, 0x1
   1d1c2: 99 e6        	bnez	a3, 0x1d1d0 <__lttf2+0x66>
   1d1c4: 7d 55        	li	a0, -0x1
   1d1c6: 82 80        	ret
   1d1c8: 63 18 03 02  	bnez	t1, 0x1d1f8 <__lttf2+0x8e>
   1d1cc: 7d 55        	li	a0, -0x1
   1d1ce: 9d c9        	beqz	a1, 0x1d204 <__lttf2+0x9a>
   1d1d0: 82 80        	ret
   1d1d2: e3 47 a8 fe  	blt	a6, a0, 0x1d1c0 <__lttf2+0x56>
   1d1d6: e3 6b c7 ff  	bltu	a4, t3, 0x1d1cc <__lttf2+0x62>
   1d1da: 63 17 ee 00  	bne	t3, a4, 0x1d1e8 <__lttf2+0x7e>
   1d1de: e3 67 16 ff  	bltu	a2, a7, 0x1d1cc <__lttf2+0x62>
   1d1e2: 01 45        	li	a0, 0x0
   1d1e4: e3 f6 c8 fe  	bgeu	a7, a2, 0x1d1d0 <__lttf2+0x66>
   1d1e8: 05 45        	li	a0, 0x1
   1d1ea: fd f1        	bnez	a1, 0x1d1d0 <__lttf2+0x66>
   1d1ec: e1 bf        	j	0x1d1c4 <__lttf2+0x5a>
   1d1ee: 73 60 18 00  	csrsi	fflags, 0x10
   1d1f2: 09 45        	li	a0, 0x2
   1d1f4: 82 80        	ret
   1d1f6: e9 f7        	bnez	a5, 0x1d1c0 <__lttf2+0x56>
   1d1f8: e3 9a b6 fc  	bne	a3, a1, 0x1d1cc <__lttf2+0x62>
   1d1fc: e3 5b 05 fd  	bge	a0, a6, 0x1d1d2 <__lttf2+0x68>
   1d200: 7d 55        	li	a0, -0x1
   1d202: f9 f6        	bnez	a3, 0x1d1d0 <__lttf2+0x66>
   1d204: 05 45        	li	a0, 0x1
   1d206: 82 80        	ret

000000000001d208 <__multf3>:
   1d208: 1d 71        	addi	sp, sp, -0x60
   1d20a: a2 e8        	sd	s0, 0x50(sp)
   1d20c: 52 f8        	sd	s4, 0x30(sp)
   1d20e: 5a f0        	sd	s6, 0x20(sp)
   1d210: 86 ec        	sd	ra, 0x58(sp)
   1d212: a6 e4        	sd	s1, 0x48(sp)
   1d214: ca e0        	sd	s2, 0x40(sp)
   1d216: 4e fc        	sd	s3, 0x38(sp)
   1d218: 56 f4        	sd	s5, 0x28(sp)
   1d21a: 5e ec        	sd	s7, 0x18(sp)
   1d21c: 62 e8        	sd	s8, 0x10(sp)
   1d21e: 66 e4        	sd	s9, 0x8(sp)
   1d220: 2a 84        	mv	s0, a0
   1d222: 32 8b        	mv	s6, a2
   1d224: 36 8a        	mv	s4, a3
   1d226: f3 29 20 00  	frrm	s3
   1d22a: 21 67        	lui	a4, 0x8
   1d22c: 93 d7 05 03  	srli	a5, a1, 0x30
   1d230: 7d 17        	addi	a4, a4, -0x1
   1d232: 93 94 05 01  	slli	s1, a1, 0x10
   1d236: f9 8f        	and	a5, a5, a4
   1d238: 81 29        	sext.w	s3, s3
   1d23a: c1 80        	srli	s1, s1, 0x10
   1d23c: 93 da f5 03  	srli	s5, a1, 0x3f
   1d240: 85 c7        	beqz	a5, 0x1d268 <__multf3+0x60>
   1d242: 9b 8c 07 00  	sext.w	s9, a5
   1d246: 63 80 e7 08  	beq	a5, a4, 0x1d2c6 <__multf3+0xbe>
   1d24a: 8e 04        	slli	s1, s1, 0x3
   1d24c: 13 57 d5 03  	srli	a4, a0, 0x3d
   1d250: 45 8f        	or	a4, a4, s1
   1d252: f1 7c        	lui	s9, 0xffffc
   1d254: 85 44        	li	s1, 0x1
   1d256: ce 14        	slli	s1, s1, 0x33
   1d258: 85 0c        	addi	s9, s9, 0x1
   1d25a: d9 8c        	or	s1, s1, a4
   1d25c: 93 1b 35 00  	slli	s7, a0, 0x3
   1d260: be 9c        	add	s9, s9, a5
   1d262: 01 4c        	li	s8, 0x0
   1d264: 01 49        	li	s2, 0x0
   1d266: a5 a8        	j	0x1d2de <__multf3+0xd6>
   1d268: b3 6b 95 00  	or	s7, a0, s1
   1d26c: 63 87 0b 0e  	beqz	s7, 0x1d35a <__multf3+0x152>
   1d270: 85 cc        	beqz	s1, 0x1d2a8 <__multf3+0xa0>
   1d272: 26 85        	mv	a0, s1
   1d274: ef 10 a0 19  	jal	0x1e40e <__clzdi2>
   1d278: 1b 07 05 00  	sext.w	a4, a0
   1d27c: 93 07 17 ff  	addi	a5, a4, -0xf
   1d280: 93 06 d0 03  	li	a3, 0x3d
   1d284: 1b 86 37 00  	addiw	a2, a5, 0x3
   1d288: bb 87 f6 40  	subw	a5, a3, a5
   1d28c: b3 94 c4 00  	sll	s1, s1, a2
   1d290: b3 57 f4 00  	srl	a5, s0, a5
   1d294: c5 8f        	or	a5, a5, s1
   1d296: b3 14 c4 00  	sll	s1, s0, a2
   1d29a: f1 7c        	lui	s9, 0xffffc
   1d29c: c5 0c        	addi	s9, s9, 0x11
   1d29e: a6 8b        	mv	s7, s1
   1d2a0: b3 8c ec 40  	sub	s9, s9, a4
   1d2a4: be 84        	mv	s1, a5
   1d2a6: 75 bf        	j	0x1d262 <__multf3+0x5a>
   1d2a8: ef 10 60 16  	jal	0x1e40e <__clzdi2>
   1d2ac: 1b 07 05 04  	addiw	a4, a0, 0x40
   1d2b0: 93 07 17 ff  	addi	a5, a4, -0xf
   1d2b4: 93 06 c0 03  	li	a3, 0x3c
   1d2b8: e3 d4 f6 fc  	bge	a3, a5, 0x1d280 <__multf3+0x78>
   1d2bc: 9b 87 37 fc  	addiw	a5, a5, -0x3d
   1d2c0: b3 17 f4 00  	sll	a5, s0, a5
   1d2c4: d9 bf        	j	0x1d29a <__multf3+0x92>
   1d2c6: b3 6b 95 00  	or	s7, a0, s1
   1d2ca: 63 8c 0b 08  	beqz	s7, 0x1d362 <__multf3+0x15a>
   1d2ce: 05 49        	li	s2, 0x1
   1d2d0: 3e 19        	slli	s2, s2, 0x2f
   1d2d2: 33 b9 24 01  	sltu	s2, s1, s2
   1d2d6: 1b 19 49 00  	slliw	s2, s2, 0x4
   1d2da: aa 8b        	mv	s7, a0
   1d2dc: 0d 4c        	li	s8, 0x3
   1d2de: fd 56        	li	a3, -0x1
   1d2e0: a1 65        	lui	a1, 0x8
   1d2e2: 13 56 0a 03  	srli	a2, s4, 0x30
   1d2e6: b6 95        	add	a1, a1, a3
   1d2e8: 13 d4 06 01  	srli	s0, a3, 0x10
   1d2ec: 6d 8e        	and	a2, a2, a1
   1d2ee: 33 74 8a 00  	and	s0, s4, s0
   1d2f2: da 87        	mv	a5, s6
   1d2f4: 13 5a fa 03  	srli	s4, s4, 0x3f
   1d2f8: 25 ca        	beqz	a2, 0x1d368 <__multf3+0x160>
   1d2fa: 1b 07 06 00  	sext.w	a4, a2
   1d2fe: 63 03 b6 0c  	beq	a2, a1, 0x1d3c4 <__multf3+0x1bc>
   1d302: 0e 04        	slli	s0, s0, 0x3
   1d304: 13 57 db 03  	srli	a4, s6, 0x3d
   1d308: 41 8f        	or	a4, a4, s0
   1d30a: 05 44        	li	s0, 0x1
   1d30c: 4e 14        	slli	s0, s0, 0x33
   1d30e: 59 8c        	or	s0, s0, a4
   1d310: 71 77        	lui	a4, 0xffffc
   1d312: 05 07        	addi	a4, a4, 0x1
   1d314: 93 17 3b 00  	slli	a5, s6, 0x3
   1d318: 32 97        	add	a4, a4, a2
   1d31a: 81 45        	li	a1, 0x0
   1d31c: 93 16 2c 00  	slli	a3, s8, 0x2
   1d320: 66 97        	add	a4, a4, s9
   1d322: cd 8e        	or	a3, a3, a1
   1d324: 29 46        	li	a2, 0xa
   1d326: 13 08 17 00  	addi	a6, a4, 0x1
   1d32a: 63 4d d6 0c  	blt	a2, a3, 0x1d404 <__multf3+0x1fc>
   1d32e: 89 48        	li	a7, 0x2
   1d330: 33 c6 4a 01  	xor	a2, s5, s4
   1d334: 05 45        	li	a0, 0x1
   1d336: 63 c9 d8 0a  	blt	a7, a3, 0x1d3e8 <__multf3+0x1e0>
   1d33a: fd 16        	addi	a3, a3, -0x1
   1d33c: 63 6e d5 0c  	bltu	a0, a3, 0x1d418 <__multf3+0x210>
   1d340: 2e 8c        	mv	s8, a1
   1d342: 09 47        	li	a4, 0x2
   1d344: 63 04 ec 4a  	beq	s8, a4, 0x1d7ec <__multf3+0x5e4>
   1d348: 0d 47        	li	a4, 0x3
   1d34a: 63 06 ec 4a  	beq	s8, a4, 0x1d7f6 <__multf3+0x5ee>
   1d34e: 05 47        	li	a4, 0x1
   1d350: 63 14 ec 26  	bne	s8, a4, 0x1d5b8 <__multf3+0x3b0>
   1d354: 01 47        	li	a4, 0x0
   1d356: 01 45        	li	a0, 0x0
   1d358: 95 a9        	j	0x1d7cc <__multf3+0x5c4>
   1d35a: 81 44        	li	s1, 0x0
   1d35c: 81 4c        	li	s9, 0x0
   1d35e: 05 4c        	li	s8, 0x1
   1d360: 11 b7        	j	0x1d264 <__multf3+0x5c>
   1d362: 81 44        	li	s1, 0x0
   1d364: 09 4c        	li	s8, 0x2
   1d366: fd bd        	j	0x1d264 <__multf3+0x5c>
   1d368: b3 67 8b 00  	or	a5, s6, s0
   1d36c: ad c7        	beqz	a5, 0x1d3d6 <__multf3+0x1ce>
   1d36e: 1d c8        	beqz	s0, 0x1d3a4 <__multf3+0x19c>
   1d370: 22 85        	mv	a0, s0
   1d372: ef 10 c0 09  	jal	0x1e40e <__clzdi2>
   1d376: 01 25        	sext.w	a0, a0
   1d378: 93 07 15 ff  	addi	a5, a0, -0xf
   1d37c: 13 07 d0 03  	li	a4, 0x3d
   1d380: 1b 86 37 00  	addiw	a2, a5, 0x3
   1d384: bb 07 f7 40  	subw	a5, a4, a5
   1d388: 33 14 c4 00  	sll	s0, s0, a2
   1d38c: b3 57 fb 00  	srl	a5, s6, a5
   1d390: b3 e6 87 00  	or	a3, a5, s0
   1d394: 33 14 cb 00  	sll	s0, s6, a2
   1d398: 71 77        	lui	a4, 0xffffc
   1d39a: 45 07        	addi	a4, a4, 0x11
   1d39c: a2 87        	mv	a5, s0
   1d39e: 09 8f        	sub	a4, a4, a0
   1d3a0: 36 84        	mv	s0, a3
   1d3a2: a5 bf        	j	0x1d31a <__multf3+0x112>
   1d3a4: 5a 85        	mv	a0, s6
   1d3a6: ef 10 80 06  	jal	0x1e40e <__clzdi2>
   1d3aa: 1b 05 05 04  	addiw	a0, a0, 0x40
   1d3ae: 93 07 15 ff  	addi	a5, a0, -0xf
   1d3b2: 13 07 c0 03  	li	a4, 0x3c
   1d3b6: e3 53 f7 fc  	bge	a4, a5, 0x1d37c <__multf3+0x174>
   1d3ba: 9b 87 37 fc  	addiw	a5, a5, -0x3d
   1d3be: b3 16 fb 00  	sll	a3, s6, a5
   1d3c2: d9 bf        	j	0x1d398 <__multf3+0x190>
   1d3c4: 33 66 8b 00  	or	a2, s6, s0
   1d3c8: 01 ce        	beqz	a2, 0x1d3e0 <__multf3+0x1d8>
   1d3ca: c5 82        	srli	a3, a3, 0x11
   1d3cc: 8d 45        	li	a1, 0x3
   1d3ce: e3 e7 86 f4  	bltu	a3, s0, 0x1d31c <__multf3+0x114>
   1d3d2: 41 49        	li	s2, 0x10
   1d3d4: a1 b7        	j	0x1d31c <__multf3+0x114>
   1d3d6: 01 44        	li	s0, 0x0
   1d3d8: 81 47        	li	a5, 0x0
   1d3da: 01 47        	li	a4, 0x0
   1d3dc: 85 45        	li	a1, 0x1
   1d3de: 3d bf        	j	0x1d31c <__multf3+0x114>
   1d3e0: 01 44        	li	s0, 0x0
   1d3e2: 81 47        	li	a5, 0x0
   1d3e4: 89 45        	li	a1, 0x2
   1d3e6: 1d bf        	j	0x1d31c <__multf3+0x114>
   1d3e8: b3 16 d5 00  	sll	a3, a0, a3
   1d3ec: 13 f5 06 53  	andi	a0, a3, 0x530
   1d3f0: 0d e1        	bnez	a0, 0x1d412 <__multf3+0x20a>
   1d3f2: 93 f8 06 24  	andi	a7, a3, 0x240
   1d3f6: 63 94 08 3e  	bnez	a7, 0x1d7de <__multf3+0x5d6>
   1d3fa: 93 f6 86 08  	andi	a3, a3, 0x88
   1d3fe: 89 ce        	beqz	a3, 0x1d418 <__multf3+0x210>
   1d400: 52 86        	mv	a2, s4
   1d402: 3d bf        	j	0x1d340 <__multf3+0x138>
   1d404: 3d 47        	li	a4, 0xf
   1d406: 63 88 e6 3e  	beq	a3, a4, 0x1d7f6 <__multf3+0x5ee>
   1d40a: 2d 47        	li	a4, 0xb
   1d40c: 56 86        	mv	a2, s5
   1d40e: e3 89 e6 fe  	beq	a3, a4, 0x1d400 <__multf3+0x1f8>
   1d412: 26 84        	mv	s0, s1
   1d414: de 87        	mv	a5, s7
   1d416: 35 b7        	j	0x1d342 <__multf3+0x13a>
   1d418: b3 85 87 00  	add	a1, a5, s0
   1d41c: 93 d6 0b 02  	srli	a3, s7, 0x20
   1d420: 13 d5 07 02  	srli	a0, a5, 0x20
   1d424: b3 82 74 01  	add	t0, s1, s7
   1d428: b3 bf f5 00  	sltu	t6, a1, a5
   1d42c: 82 1b        	slli	s7, s7, 0x20
   1d42e: 82 17        	slli	a5, a5, 0x20
   1d430: 93 db 0b 02  	srli	s7, s7, 0x20
   1d434: 81 93        	srli	a5, a5, 0x20
   1d436: b3 88 77 03  	mul	a7, a5, s7
   1d43a: 33 bf 92 00  	sltu	t5, t0, s1
   1d43e: b3 87 f6 02  	mul	a5, a3, a5
   1d442: 13 d3 08 02  	srli	t1, a7, 0x20
   1d446: b3 86 a6 02  	mul	a3, a3, a0
   1d44a: 33 05 75 03  	mul	a0, a0, s7
   1d44e: 3e 95        	add	a0, a0, a5
   1d450: 2a 93        	add	t1, t1, a0
   1d452: 63 75 f3 00  	bgeu	t1, a5, 0x1d45c <__multf3+0x254>
   1d456: 85 47        	li	a5, 0x1
   1d458: 82 17        	slli	a5, a5, 0x20
   1d45a: be 96        	add	a3, a3, a5
   1d45c: 82 18        	slli	a7, a7, 0x20
   1d45e: 93 5e 03 02  	srli	t4, t1, 0x20
   1d462: 93 d8 08 02  	srli	a7, a7, 0x20
   1d466: 02 13        	slli	t1, t1, 0x20
   1d468: 46 93        	add	t1, t1, a7
   1d46a: 93 97 05 02  	slli	a5, a1, 0x20
   1d46e: 93 98 02 02  	slli	a7, t0, 0x20
   1d472: 93 d3 02 02  	srli	t2, t0, 0x20
   1d476: 93 d8 08 02  	srli	a7, a7, 0x20
   1d47a: 81 93        	srli	a5, a5, 0x20
   1d47c: b6 9e        	add	t4, t4, a3
   1d47e: 93 d6 05 02  	srli	a3, a1, 0x20
   1d482: 33 85 17 03  	mul	a0, a5, a7
   1d486: b3 87 f3 02  	mul	a5, t2, a5
   1d48a: 13 5e 05 02  	srli	t3, a0, 0x20
   1d48e: b3 83 d3 02  	mul	t2, t2, a3
   1d492: b3 86 16 03  	mul	a3, a3, a7
   1d496: be 96        	add	a3, a3, a5
   1d498: 36 9e        	add	t3, t3, a3
   1d49a: 63 75 fe 00  	bgeu	t3, a5, 0x1d4a4 <__multf3+0x29c>
   1d49e: 85 47        	li	a5, 0x1
   1d4a0: 82 17        	slli	a5, a5, 0x20
   1d4a2: be 93        	add	t2, t2, a5
   1d4a4: 93 d7 04 02  	srli	a5, s1, 0x20
   1d4a8: 93 56 04 02  	srli	a3, s0, 0x20
   1d4ac: 82 14        	slli	s1, s1, 0x20
   1d4ae: 02 14        	slli	s0, s0, 0x20
   1d4b0: 81 90        	srli	s1, s1, 0x20
   1d4b2: 01 90        	srli	s0, s0, 0x20
   1d4b4: 33 0a 94 02  	mul	s4, s0, s1
   1d4b8: 02 15        	slli	a0, a0, 0x20
   1d4ba: 01 91        	srli	a0, a0, 0x20
   1d4bc: 93 58 0e 02  	srli	a7, t3, 0x20
   1d4c0: 02 1e        	slli	t3, t3, 0x20
   1d4c2: 2a 9e        	add	t3, t3, a0
   1d4c4: 33 84 87 02  	mul	s0, a5, s0
   1d4c8: b3 87 d7 02  	mul	a5, a5, a3
   1d4cc: b3 86 96 02  	mul	a3, a3, s1
   1d4d0: 33 85 86 00  	add	a0, a3, s0
   1d4d4: 93 56 0a 02  	srli	a3, s4, 0x20
   1d4d8: aa 96        	add	a3, a3, a0
   1d4da: 63 f5 86 00  	bgeu	a3, s0, 0x1d4e4 <__multf3+0x2dc>
   1d4de: 05 45        	li	a0, 0x1
   1d4e0: 02 15        	slli	a0, a0, 0x20
   1d4e2: aa 97        	add	a5, a5, a0
   1d4e4: 13 d5 06 02  	srli	a0, a3, 0x20
   1d4e8: 3e 95        	add	a0, a0, a5
   1d4ea: 93 17 0a 02  	slli	a5, s4, 0x20
   1d4ee: 81 93        	srli	a5, a5, 0x20
   1d4f0: 82 16        	slli	a3, a3, 0x20
   1d4f2: be 96        	add	a3, a3, a5
   1d4f4: b3 07 f0 41  	neg	a5, t6
   1d4f8: b3 f7 f2 00  	and	a5, t0, a5
   1d4fc: b3 02 e0 41  	neg	t0, t5
   1d500: b3 f5 55 00  	and	a1, a1, t0
   1d504: b3 02 de 01  	add	t0, t3, t4
   1d508: 33 be c2 01  	sltu	t3, t0, t3
   1d50c: f2 98        	add	a7, a7, t3
   1d50e: 9e 98        	add	a7, a7, t2
   1d510: 33 7f ff 01  	and	t5, t5, t6
   1d514: 33 be c8 01  	sltu	t3, a7, t3
   1d518: c6 97        	add	a5, a5, a7
   1d51a: 7a 9e        	add	t3, t3, t5
   1d51c: b3 b8 17 01  	sltu	a7, a5, a7
   1d520: ae 97        	add	a5, a5, a1
   1d522: f2 98        	add	a7, a7, t3
   1d524: b3 b5 b7 00  	sltu	a1, a5, a1
   1d528: 33 8e 62 40  	sub	t3, t0, t1
   1d52c: 33 bf c2 01  	sltu	t5, t0, t3
   1d530: c6 95        	add	a1, a1, a7
   1d532: b3 88 d7 41  	sub	a7, a5, t4
   1d536: b3 bf 17 01  	sltu	t6, a5, a7
   1d53a: b3 88 e8 41  	sub	a7, a7, t5
   1d53e: 01 4f        	li	t5, 0x0
   1d540: 63 f6 c2 01  	bgeu	t0, t3, 0x1d54c <__multf3+0x344>
   1d544: b3 8e fe 40  	sub	t4, t4, a5
   1d548: 13 bf 1e 00  	seqz	t5, t4
   1d54c: b3 0e de 40  	sub	t4, t3, a3
   1d550: 33 6f ff 01  	or	t5, t5, t6
   1d554: aa 95        	add	a1, a1, a0
   1d556: b3 3f de 01  	sltu	t6, t3, t4
   1d55a: 33 85 a8 40  	sub	a0, a7, a0
   1d55e: b3 b8 a8 00  	sltu	a7, a7, a0
   1d562: b3 8f f6 41  	sub	t6, a3, t6
   1d566: 81 47        	li	a5, 0x0
   1d568: 63 74 de 01  	bgeu	t3, t4, 0x1d570 <__multf3+0x368>
   1d56c: 93 37 15 00  	seqz	a5, a0
   1d570: 7e 95        	add	a0, a0, t6
   1d572: b3 36 d5 00  	sltu	a3, a0, a3
   1d576: ae 96        	add	a3, a3, a1
   1d578: b3 e7 17 01  	or	a5, a5, a7
   1d57c: b3 86 e6 41  	sub	a3, a3, t5
   1d580: 9d 8e        	sub	a3, a3, a5
   1d582: 93 97 de 00  	slli	a5, t4, 0xd
   1d586: b3 e7 67 00  	or	a5, a5, t1
   1d58a: b6 06        	slli	a3, a3, 0xd
   1d58c: 93 d5 3e 03  	srli	a1, t4, 0x33
   1d590: b3 37 f0 00  	snez	a5, a5
   1d594: 13 54 35 03  	srli	s0, a0, 0x33
   1d598: cd 8f        	or	a5, a5, a1
   1d59a: 36 05        	slli	a0, a0, 0xd
   1d59c: 93 95 b6 00  	slli	a1, a3, 0xb
   1d5a0: 55 8c        	or	s0, s0, a3
   1d5a2: c9 8f        	or	a5, a5, a0
   1d5a4: 63 d8 05 04  	bgez	a1, 0x1d5f4 <__multf3+0x3ec>
   1d5a8: 13 d7 17 00  	srli	a4, a5, 0x1
   1d5ac: 85 8b        	andi	a5, a5, 0x1
   1d5ae: 5d 8f        	or	a4, a4, a5
   1d5b0: 93 17 f4 03  	slli	a5, s0, 0x3f
   1d5b4: d9 8f        	or	a5, a5, a4
   1d5b6: 05 80        	srli	s0, s0, 0x1
   1d5b8: 91 66        	lui	a3, 0x4
   1d5ba: fd 16        	addi	a3, a3, -0x1
   1d5bc: c2 96        	add	a3, a3, a6
   1d5be: 63 55 d0 0c  	blez	a3, 0x1d688 <__multf3+0x480>
   1d5c2: 13 f7 77 00  	andi	a4, a5, 0x7
   1d5c6: 15 cf        	beqz	a4, 0x1d602 <__multf3+0x3fa>
   1d5c8: 09 47        	li	a4, 0x2
   1d5ca: 13 69 19 00  	ori	s2, s2, 0x1
   1d5ce: 63 89 e9 02  	beq	s3, a4, 0x1d600 <__multf3+0x3f8>
   1d5d2: 0d 47        	li	a4, 0x3
   1d5d4: 63 82 e9 02  	beq	s3, a4, 0x1d5f8 <__multf3+0x3f0>
   1d5d8: 63 95 09 02  	bnez	s3, 0x1d602 <__multf3+0x3fa>
   1d5dc: 13 f7 f7 00  	andi	a4, a5, 0xf
   1d5e0: 91 45        	li	a1, 0x4
   1d5e2: 63 00 b7 02  	beq	a4, a1, 0x1d602 <__multf3+0x3fa>
   1d5e6: 33 87 b7 00  	add	a4, a5, a1
   1d5ea: b3 35 f7 00  	sltu	a1, a4, a5
   1d5ee: 2e 94        	add	s0, s0, a1
   1d5f0: ba 87        	mv	a5, a4
   1d5f2: 01 a8        	j	0x1d602 <__multf3+0x3fa>
   1d5f4: 3a 88        	mv	a6, a4
   1d5f6: c9 b7        	j	0x1d5b8 <__multf3+0x3b0>
   1d5f8: 09 e6        	bnez	a2, 0x1d602 <__multf3+0x3fa>
   1d5fa: 13 87 87 00  	addi	a4, a5, 0x8
   1d5fe: f5 b7        	j	0x1d5ea <__multf3+0x3e2>
   1d600: 6d fe        	bnez	a2, 0x1d5fa <__multf3+0x3f2>
   1d602: 13 17 b4 00  	slli	a4, s0, 0xb
   1d606: 63 58 07 00  	bgez	a4, 0x1d616 <__multf3+0x40e>
   1d60a: 7d 57        	li	a4, -0x1
   1d60c: 52 17        	slli	a4, a4, 0x34
   1d60e: 7d 17        	addi	a4, a4, -0x1
   1d610: 91 66        	lui	a3, 0x4
   1d612: 79 8c        	and	s0, s0, a4
   1d614: c2 96        	add	a3, a3, a6
   1d616: a1 65        	lui	a1, 0x8
   1d618: 13 87 e5 ff  	addi	a4, a1, -0x2
   1d61c: 63 41 d7 04  	blt	a4, a3, 0x1d65e <__multf3+0x456>
   1d620: 8d 83        	srli	a5, a5, 0x3
   1d622: 13 15 d4 03  	slli	a0, s0, 0x3d
   1d626: 5d 8d        	or	a0, a0, a5
   1d628: 13 57 34 00  	srli	a4, s0, 0x3
   1d62c: 1b 16 f6 00  	slliw	a2, a2, 0xf
   1d630: 93 15 07 01  	slli	a1, a4, 0x10
   1d634: 55 8e        	or	a2, a2, a3
   1d636: 42 16        	slli	a2, a2, 0x30
   1d638: c1 81        	srli	a1, a1, 0x10
   1d63a: d1 8d        	or	a1, a1, a2
   1d63c: 63 04 09 00  	beqz	s2, 0x1d644 <__multf3+0x43c>
   1d640: 73 20 19 00  	csrs	fflags, s2
   1d644: e6 60        	ld	ra, 0x58(sp)
   1d646: 46 64        	ld	s0, 0x50(sp)
   1d648: a6 64        	ld	s1, 0x48(sp)
   1d64a: 06 69        	ld	s2, 0x40(sp)
   1d64c: e2 79        	ld	s3, 0x38(sp)
   1d64e: 42 7a        	ld	s4, 0x30(sp)
   1d650: a2 7a        	ld	s5, 0x28(sp)
   1d652: 02 7b        	ld	s6, 0x20(sp)
   1d654: e2 6b        	ld	s7, 0x18(sp)
   1d656: 42 6c        	ld	s8, 0x10(sp)
   1d658: a2 6c        	ld	s9, 0x8(sp)
   1d65a: 25 61        	addi	sp, sp, 0x60
   1d65c: 82 80        	ret
   1d65e: 89 47        	li	a5, 0x2
   1d660: 63 82 f9 02  	beq	s3, a5, 0x1d684 <__multf3+0x47c>
   1d664: 8d 47        	li	a5, 0x3
   1d666: 63 88 f9 00  	beq	s3, a5, 0x1d676 <__multf3+0x46e>
   1d66a: 63 97 09 00  	bnez	s3, 0x1d678 <__multf3+0x470>
   1d66e: 01 45        	li	a0, 0x0
   1d670: 93 86 f5 ff  	addi	a3, a1, -0x1
   1d674: 21 a0        	j	0x1d67c <__multf3+0x474>
   1d676: 65 de        	beqz	a2, 0x1d66e <__multf3+0x466>
   1d678: 7d 55        	li	a0, -0x1
   1d67a: ba 86        	mv	a3, a4
   1d67c: 13 69 59 00  	ori	s2, s2, 0x5
   1d680: 2a 87        	mv	a4, a0
   1d682: 6d b7        	j	0x1d62c <__multf3+0x424>
   1d684: 6d f6        	bnez	a2, 0x1d66e <__multf3+0x466>
   1d686: cd bf        	j	0x1d678 <__multf3+0x470>
   1d688: d1 ee        	bnez	a3, 0x1d724 <__multf3+0x51c>
   1d68a: 93 f6 77 00  	andi	a3, a5, 0x7
   1d68e: 22 87        	mv	a4, s0
   1d690: 9d ca        	beqz	a3, 0x1d6c6 <__multf3+0x4be>
   1d692: 89 46        	li	a3, 0x2
   1d694: 13 69 19 00  	ori	s2, s2, 0x1
   1d698: 63 86 d9 02  	beq	s3, a3, 0x1d6c4 <__multf3+0x4bc>
   1d69c: 8d 46        	li	a3, 0x3
   1d69e: 63 8f d9 00  	beq	s3, a3, 0x1d6bc <__multf3+0x4b4>
   1d6a2: 63 92 09 02  	bnez	s3, 0x1d6c6 <__multf3+0x4be>
   1d6a6: 93 f6 f7 00  	andi	a3, a5, 0xf
   1d6aa: 91 45        	li	a1, 0x4
   1d6ac: 63 8d b6 00  	beq	a3, a1, 0x1d6c6 <__multf3+0x4be>
   1d6b0: 13 b7 c7 ff  	sltiu	a4, a5, -0x4
   1d6b4: 13 47 17 00  	xori	a4, a4, 0x1
   1d6b8: 22 97        	add	a4, a4, s0
   1d6ba: 31 a0        	j	0x1d6c6 <__multf3+0x4be>
   1d6bc: 09 e6        	bnez	a2, 0x1d6c6 <__multf3+0x4be>
   1d6be: 13 b7 87 ff  	sltiu	a4, a5, -0x8
   1d6c2: cd bf        	j	0x1d6b4 <__multf3+0x4ac>
   1d6c4: 6d fe        	bnez	a2, 0x1d6be <__multf3+0x4b6>
   1d6c6: 51 93        	srli	a4, a4, 0x34
   1d6c8: 05 8b        	andi	a4, a4, 0x1
   1d6ca: 93 45 17 00  	xori	a1, a4, 0x1
   1d6ce: 05 47        	li	a4, 0x1
   1d6d0: 13 05 00 04  	li	a0, 0x40
   1d6d4: 19 9d        	subw	a0, a0, a4
   1d6d6: 33 d8 e7 00  	srl	a6, a5, a4
   1d6da: b3 16 a4 00  	sll	a3, s0, a0
   1d6de: 33 95 a7 00  	sll	a0, a5, a0
   1d6e2: b3 e6 06 01  	or	a3, a3, a6
   1d6e6: 33 35 a0 00  	snez	a0, a0
   1d6ea: b3 e7 a6 00  	or	a5, a3, a0
   1d6ee: 33 57 e4 00  	srl	a4, s0, a4
   1d6f2: 93 f6 77 00  	andi	a3, a5, 0x7
   1d6f6: bd ce        	beqz	a3, 0x1d774 <__multf3+0x56c>
   1d6f8: 89 46        	li	a3, 0x2
   1d6fa: 13 69 19 00  	ori	s2, s2, 0x1
   1d6fe: 63 8a d9 06  	beq	s3, a3, 0x1d772 <__multf3+0x56a>
   1d702: 8d 46        	li	a3, 0x3
   1d704: 63 83 d9 06  	beq	s3, a3, 0x1d76a <__multf3+0x562>
   1d708: 63 96 09 06  	bnez	s3, 0x1d774 <__multf3+0x56c>
   1d70c: 93 f6 f7 00  	andi	a3, a5, 0xf
   1d710: 11 45        	li	a0, 0x4
   1d712: 63 81 a6 06  	beq	a3, a0, 0x1d774 <__multf3+0x56c>
   1d716: b3 86 a7 00  	add	a3, a5, a0
   1d71a: 33 b5 f6 00  	sltu	a0, a3, a5
   1d71e: 2a 97        	add	a4, a4, a0
   1d720: b6 87        	mv	a5, a3
   1d722: 89 a8        	j	0x1d774 <__multf3+0x56c>
   1d724: 85 45        	li	a1, 0x1
   1d726: 33 87 d5 40  	sub	a4, a1, a3
   1d72a: 93 06 40 07  	li	a3, 0x74
   1d72e: 63 cc e6 06  	blt	a3, a4, 0x1d7a6 <__multf3+0x59e>
   1d732: 93 06 f0 03  	li	a3, 0x3f
   1d736: 1b 05 07 00  	sext.w	a0, a4
   1d73a: e3 db e6 f8  	bge	a3, a4, 0x1d6d0 <__multf3+0x4c8>
   1d73e: 9b 06 05 fc  	addiw	a3, a0, -0x40
   1d742: 13 08 00 04  	li	a6, 0x40
   1d746: b3 56 d4 00  	srl	a3, s0, a3
   1d74a: 81 45        	li	a1, 0x0
   1d74c: 63 07 07 01  	beq	a4, a6, 0x1d75a <__multf3+0x552>
   1d750: 93 05 00 08  	li	a1, 0x80
   1d754: 89 9d        	subw	a1, a1, a0
   1d756: b3 15 b4 00  	sll	a1, s0, a1
   1d75a: dd 8d        	or	a1, a1, a5
   1d75c: b3 35 b0 00  	snez	a1, a1
   1d760: b3 e7 b6 00  	or	a5, a3, a1
   1d764: 01 47        	li	a4, 0x0
   1d766: 85 45        	li	a1, 0x1
   1d768: 69 b7        	j	0x1d6f2 <__multf3+0x4ea>
   1d76a: 09 e6        	bnez	a2, 0x1d774 <__multf3+0x56c>
   1d76c: 93 86 87 00  	addi	a3, a5, 0x8
   1d770: 6d b7        	j	0x1d71a <__multf3+0x512>
   1d772: 6d fe        	bnez	a2, 0x1d76c <__multf3+0x564>
   1d774: 93 16 c7 00  	slli	a3, a4, 0xc
   1d778: 63 d0 06 02  	bgez	a3, 0x1d798 <__multf3+0x590>
   1d77c: 13 69 19 00  	ori	s2, s2, 0x1
   1d780: 01 47        	li	a4, 0x0
   1d782: 01 45        	li	a0, 0x0
   1d784: 85 46        	li	a3, 0x1
   1d786: e3 83 05 ea  	beqz	a1, 0x1d62c <__multf3+0x424>
   1d78a: 93 77 19 00  	andi	a5, s2, 0x1
   1d78e: 9b 97 17 00  	slliw	a5, a5, 0x1
   1d792: 33 69 f9 00  	or	s2, s2, a5
   1d796: 59 bd        	j	0x1d62c <__multf3+0x424>
   1d798: 13 15 d7 03  	slli	a0, a4, 0x3d
   1d79c: 8d 83        	srli	a5, a5, 0x3
   1d79e: 5d 8d        	or	a0, a0, a5
   1d7a0: 0d 83        	srli	a4, a4, 0x3
   1d7a2: 81 46        	li	a3, 0x0
   1d7a4: cd b7        	j	0x1d786 <__multf3+0x57e>
   1d7a6: 33 e5 87 00  	or	a0, a5, s0
   1d7aa: 11 cd        	beqz	a0, 0x1d7c6 <__multf3+0x5be>
   1d7ac: 89 47        	li	a5, 0x2
   1d7ae: 13 69 19 00  	ori	s2, s2, 0x1
   1d7b2: 63 83 f9 02  	beq	s3, a5, 0x1d7d8 <__multf3+0x5d0>
   1d7b6: 8d 47        	li	a5, 0x3
   1d7b8: 63 8c f9 00  	beq	s3, a5, 0x1d7d0 <__multf3+0x5c8>
   1d7bc: 2e 85        	mv	a0, a1
   1d7be: 63 93 09 00  	bnez	s3, 0x1d7c4 <__multf3+0x5bc>
   1d7c2: 15 45        	li	a0, 0x5
   1d7c4: 0d 81        	srli	a0, a0, 0x3
   1d7c6: 13 69 29 00  	ori	s2, s2, 0x2
   1d7ca: 01 47        	li	a4, 0x0
   1d7cc: 81 46        	li	a3, 0x0
   1d7ce: b9 bd        	j	0x1d62c <__multf3+0x424>
   1d7d0: 25 45        	li	a0, 0x9
   1d7d2: 6d da        	beqz	a2, 0x1d7c4 <__multf3+0x5bc>
   1d7d4: 2e 85        	mv	a0, a1
   1d7d6: fd b7        	j	0x1d7c4 <__multf3+0x5bc>
   1d7d8: 25 45        	li	a0, 0x9
   1d7da: 6d f6        	bnez	a2, 0x1d7c4 <__multf3+0x5bc>
   1d7dc: e5 bf        	j	0x1d7d4 <__multf3+0x5cc>
   1d7de: 05 47        	li	a4, 0x1
   1d7e0: a1 66        	lui	a3, 0x8
   1d7e2: 3e 17        	slli	a4, a4, 0x2f
   1d7e4: fd 16        	addi	a3, a3, -0x1
   1d7e6: 01 46        	li	a2, 0x0
   1d7e8: 41 49        	li	s2, 0x10
   1d7ea: 89 b5        	j	0x1d62c <__multf3+0x424>
   1d7ec: a1 66        	lui	a3, 0x8
   1d7ee: 01 47        	li	a4, 0x0
   1d7f0: 01 45        	li	a0, 0x0
   1d7f2: fd 16        	addi	a3, a3, -0x1
   1d7f4: 25 bd        	j	0x1d62c <__multf3+0x424>
   1d7f6: 05 47        	li	a4, 0x1
   1d7f8: a1 66        	lui	a3, 0x8
   1d7fa: 3e 17        	slli	a4, a4, 0x2f
   1d7fc: 01 45        	li	a0, 0x0
   1d7fe: fd 16        	addi	a3, a3, -0x1
   1d800: 01 46        	li	a2, 0x0
   1d802: 2d b5        	j	0x1d62c <__multf3+0x424>

000000000001d804 <__subtf3>:
   1d804: 79 71        	addi	sp, sp, -0x30
   1d806: 06 f4        	sd	ra, 0x28(sp)
   1d808: 22 f0        	sd	s0, 0x20(sp)
   1d80a: 26 ec        	sd	s1, 0x18(sp)
   1d80c: 4a e8        	sd	s2, 0x10(sp)
   1d80e: 4e e4        	sd	s3, 0x8(sp)
   1d810: 52 e0        	sd	s4, 0x0(sp)
   1d812: b6 87        	mv	a5, a3
   1d814: 73 29 20 00  	frrm	s2
   1d818: 7d 57        	li	a4, -0x1
   1d81a: 41 83        	srli	a4, a4, 0x10
   1d81c: a1 6e        	lui	t4, 0x8
   1d81e: 13 d8 05 03  	srli	a6, a1, 0x30
   1d822: fd 1e        	addi	t4, t4, -0x1
   1d824: 13 de 06 03  	srli	t3, a3, 0x30
   1d828: f9 8f        	and	a5, a5, a4
   1d82a: 93 d9 f5 03  	srli	s3, a1, 0x3f
   1d82e: f9 8d        	and	a1, a1, a4
   1d830: 13 53 d5 03  	srli	t1, a0, 0x3d
   1d834: 13 97 37 00  	slli	a4, a5, 0x3
   1d838: 33 78 d8 01  	and	a6, a6, t4
   1d83c: 93 57 d6 03  	srli	a5, a2, 0x3d
   1d840: 8e 05        	slli	a1, a1, 0x3
   1d842: 33 7e de 01  	and	t3, t3, t4
   1d846: 01 29        	sext.w	s2, s2
   1d848: c2 84        	mv	s1, a6
   1d84a: 33 63 b3 00  	or	t1, t1, a1
   1d84e: 0e 05        	slli	a0, a0, 0x3
   1d850: fd 92        	srli	a3, a3, 0x3f
   1d852: b3 e8 e7 00  	or	a7, a5, a4
   1d856: 0e 06        	slli	a2, a2, 0x3
   1d858: 63 15 de 01  	bne	t3, t4, 0x1d862 <__subtf3+0x5e>
   1d85c: b3 e7 c8 00  	or	a5, a7, a2
   1d860: 99 e3        	bnez	a5, 0x1d866 <__subtf3+0x62>
   1d862: 93 c6 16 00  	xori	a3, a3, 0x1
   1d866: a1 65        	lui	a1, 0x8
   1d868: bb 07 c8 41  	subw	a5, a6, t3
   1d86c: fd 15        	addi	a1, a1, -0x1
   1d86e: 63 94 36 35  	bne	a3, s3, 0x1dbb6 <__subtf3+0x3b2>
   1d872: 63 5b f0 0e  	blez	a5, 0x1d968 <__subtf3+0x164>
   1d876: 63 1b 0e 06  	bnez	t3, 0x1d8ec <__subtf3+0xe8>
   1d87a: 33 e7 c8 00  	or	a4, a7, a2
   1d87e: 11 e7        	bnez	a4, 0x1d88a <__subtf3+0x86>
   1d880: 63 08 b8 04  	beq	a6, a1, 0x1d8d0 <__subtf3+0xcc>
   1d884: 9a 88        	mv	a7, t1
   1d886: 2a 86        	mv	a2, a0
   1d888: b5 af        	j	0x1e004 <__subtf3+0x800>
   1d88a: fd 37        	addiw	a5, a5, -0x1
   1d88c: a1 e3        	bnez	a5, 0x1d8cc <__subtf3+0xc8>
   1d88e: 2a 96        	add	a2, a2, a0
   1d890: 46 93        	add	t1, t1, a7
   1d892: 33 35 a6 00  	sltu	a0, a2, a0
   1d896: b3 08 a3 00  	add	a7, t1, a0
   1d89a: 93 97 c8 00  	slli	a5, a7, 0xc
   1d89e: 63 d5 07 02  	bgez	a5, 0x1d8c8 <__subtf3+0xc4>
   1d8a2: a1 67        	lui	a5, 0x8
   1d8a4: 85 04        	addi	s1, s1, 0x1
   1d8a6: fd 17        	addi	a5, a5, -0x1
   1d8a8: 63 8e f4 2c  	beq	s1, a5, 0x1db84 <__subtf3+0x380>
   1d8ac: fd 57        	li	a5, -0x1
   1d8ae: ce 17        	slli	a5, a5, 0x33
   1d8b0: fd 17        	addi	a5, a5, -0x1
   1d8b2: b3 f7 f8 00  	and	a5, a7, a5
   1d8b6: 13 57 16 00  	srli	a4, a2, 0x1
   1d8ba: 05 8a        	andi	a2, a2, 0x1
   1d8bc: 51 8f        	or	a4, a4, a2
   1d8be: 13 96 f7 03  	slli	a2, a5, 0x3f
   1d8c2: 59 8e        	or	a2, a2, a4
   1d8c4: 93 d8 17 00  	srli	a7, a5, 0x1
   1d8c8: 81 47        	li	a5, 0x0
   1d8ca: a5 a4        	j	0x1db32 <__subtf3+0x32e>
   1d8cc: 63 16 b8 02  	bne	a6, a1, 0x1d8f8 <__subtf3+0xf4>
   1d8d0: 33 66 a3 00  	or	a2, t1, a0
   1d8d4: 63 02 06 72  	beqz	a2, 0x1dff8 <__subtf3+0x7f4>
   1d8d8: 93 57 23 03  	srli	a5, t1, 0x32
   1d8dc: 85 8b        	andi	a5, a5, 0x1
   1d8de: 93 c7 17 00  	xori	a5, a5, 0x1
   1d8e2: 9b 97 47 00  	slliw	a5, a5, 0x4
   1d8e6: 9a 88        	mv	a7, t1
   1d8e8: 2a 86        	mv	a2, a0
   1d8ea: 71 a2        	j	0x1da76 <__subtf3+0x272>
   1d8ec: e3 02 b8 fe  	beq	a6, a1, 0x1d8d0 <__subtf3+0xcc>
   1d8f0: 05 47        	li	a4, 0x1
   1d8f2: 4e 17        	slli	a4, a4, 0x33
   1d8f4: b3 e8 e8 00  	or	a7, a7, a4
   1d8f8: 13 07 40 07  	li	a4, 0x74
   1d8fc: 63 41 f7 06  	blt	a4, a5, 0x1d95e <__subtf3+0x15a>
   1d900: 13 07 f0 03  	li	a4, 0x3f
   1d904: 63 49 f7 02  	blt	a4, a5, 0x1d936 <__subtf3+0x132>
   1d908: 93 06 00 04  	li	a3, 0x40
   1d90c: 9d 9e        	subw	a3, a3, a5
   1d90e: 33 97 d8 00  	sll	a4, a7, a3
   1d912: b3 55 f6 00  	srl	a1, a2, a5
   1d916: b3 16 d6 00  	sll	a3, a2, a3
   1d91a: 4d 8f        	or	a4, a4, a1
   1d91c: b3 36 d0 00  	snez	a3, a3
   1d920: 55 8f        	or	a4, a4, a3
   1d922: b3 d7 f8 00  	srl	a5, a7, a5
   1d926: 3a 95        	add	a0, a0, a4
   1d928: 9a 97        	add	a5, a5, t1
   1d92a: 33 37 e5 00  	sltu	a4, a0, a4
   1d92e: 2a 86        	mv	a2, a0
   1d930: b3 88 e7 00  	add	a7, a5, a4
   1d934: 9d b7        	j	0x1d89a <__subtf3+0x96>
   1d936: 1b 87 07 fc  	addiw	a4, a5, -0x40
   1d93a: 93 05 00 04  	li	a1, 0x40
   1d93e: 33 d7 e8 00  	srl	a4, a7, a4
   1d942: 81 46        	li	a3, 0x0
   1d944: 63 87 b7 00  	beq	a5, a1, 0x1d952 <__subtf3+0x14e>
   1d948: 93 06 00 08  	li	a3, 0x80
   1d94c: 9d 9e        	subw	a3, a3, a5
   1d94e: b3 96 d8 00  	sll	a3, a7, a3
   1d952: d1 8e        	or	a3, a3, a2
   1d954: b3 36 d0 00  	snez	a3, a3
   1d958: 55 8f        	or	a4, a4, a3
   1d95a: 81 47        	li	a5, 0x0
   1d95c: e9 b7        	j	0x1d926 <__subtf3+0x122>
   1d95e: 33 e7 c8 00  	or	a4, a7, a2
   1d962: 33 37 e0 00  	snez	a4, a4
   1d966: d5 bf        	j	0x1d95a <__subtf3+0x156>
   1d968: f9 c3        	beqz	a5, 0x1da2e <__subtf3+0x22a>
   1d96a: 63 10 08 08  	bnez	a6, 0x1d9ea <__subtf3+0x1e6>
   1d96e: 33 67 a3 00  	or	a4, t1, a0
   1d972: 05 e3        	bnez	a4, 0x1d992 <__subtf3+0x18e>
   1d974: 63 17 be 68  	bne	t3, a1, 0x1e002 <__subtf3+0x7fe>
   1d978: b3 e7 c8 00  	or	a5, a7, a2
   1d97c: 63 81 07 68  	beqz	a5, 0x1dffe <__subtf3+0x7fa>
   1d980: 93 d7 28 03  	srli	a5, a7, 0x32
   1d984: 85 8b        	andi	a5, a5, 0x1
   1d986: 93 c7 17 00  	xori	a5, a5, 0x1
   1d98a: 9b 97 47 00  	slliw	a5, a5, 0x4
   1d98e: f2 84        	mv	s1, t3
   1d990: dd a0        	j	0x1da76 <__subtf3+0x272>
   1d992: 13 c7 f7 ff  	not	a4, a5
   1d996: 01 27        	sext.w	a4, a4
   1d998: 09 eb        	bnez	a4, 0x1d9aa <__subtf3+0x1a6>
   1d99a: 2a 96        	add	a2, a2, a0
   1d99c: 46 93        	add	t1, t1, a7
   1d99e: 33 35 a6 00  	sltu	a0, a2, a0
   1d9a2: b3 08 a3 00  	add	a7, t1, a0
   1d9a6: f2 84        	mv	s1, t3
   1d9a8: cd bd        	j	0x1d89a <__subtf3+0x96>
   1d9aa: e3 07 be fc  	beq	t3, a1, 0x1d978 <__subtf3+0x174>
   1d9ae: 93 07 40 07  	li	a5, 0x74
   1d9b2: 63 c9 e7 06  	blt	a5, a4, 0x1da24 <__subtf3+0x220>
   1d9b6: 93 07 f0 03  	li	a5, 0x3f
   1d9ba: 63 c1 e7 04  	blt	a5, a4, 0x1d9fc <__subtf3+0x1f8>
   1d9be: 93 06 00 04  	li	a3, 0x40
   1d9c2: 99 9e        	subw	a3, a3, a4
   1d9c4: b3 17 d3 00  	sll	a5, t1, a3
   1d9c8: b3 55 e5 00  	srl	a1, a0, a4
   1d9cc: b3 16 d5 00  	sll	a3, a0, a3
   1d9d0: cd 8f        	or	a5, a5, a1
   1d9d2: b3 36 d0 00  	snez	a3, a3
   1d9d6: d5 8f        	or	a5, a5, a3
   1d9d8: 33 57 e3 00  	srl	a4, t1, a4
   1d9dc: 3e 96        	add	a2, a2, a5
   1d9de: 46 97        	add	a4, a4, a7
   1d9e0: b3 37 f6 00  	sltu	a5, a2, a5
   1d9e4: b3 08 f7 00  	add	a7, a4, a5
   1d9e8: 7d bf        	j	0x1d9a6 <__subtf3+0x1a2>
   1d9ea: e3 07 be f8  	beq	t3, a1, 0x1d978 <__subtf3+0x174>
   1d9ee: 3b 07 f0 40  	negw	a4, a5
   1d9f2: 85 47        	li	a5, 0x1
   1d9f4: ce 17        	slli	a5, a5, 0x33
   1d9f6: 33 63 f3 00  	or	t1, t1, a5
   1d9fa: 55 bf        	j	0x1d9ae <__subtf3+0x1aa>
   1d9fc: 9b 07 07 fc  	addiw	a5, a4, -0x40
   1da00: 93 05 00 04  	li	a1, 0x40
   1da04: b3 57 f3 00  	srl	a5, t1, a5
   1da08: 81 46        	li	a3, 0x0
   1da0a: 63 07 b7 00  	beq	a4, a1, 0x1da18 <__subtf3+0x214>
   1da0e: 93 06 00 08  	li	a3, 0x80
   1da12: 99 9e        	subw	a3, a3, a4
   1da14: b3 16 d3 00  	sll	a3, t1, a3
   1da18: c9 8e        	or	a3, a3, a0
   1da1a: b3 36 d0 00  	snez	a3, a3
   1da1e: d5 8f        	or	a5, a5, a3
   1da20: 01 47        	li	a4, 0x0
   1da22: 6d bf        	j	0x1d9dc <__subtf3+0x1d8>
   1da24: b3 67 a3 00  	or	a5, t1, a0
   1da28: b3 37 f0 00  	snez	a5, a5
   1da2c: d5 bf        	j	0x1da20 <__subtf3+0x21c>
   1da2e: 13 07 18 00  	addi	a4, a6, 0x1
   1da32: 93 1e 17 03  	slli	t4, a4, 0x31
   1da36: a1 66        	lui	a3, 0x8
   1da38: 93 de 2e 03  	srli	t4, t4, 0x32
   1da3c: f9 16        	addi	a3, a3, -0x2
   1da3e: 63 9c 0e 0c  	bnez	t4, 0x1db16 <__subtf3+0x312>
   1da42: 33 67 a3 00  	or	a4, t1, a0
   1da46: 63 12 08 08  	bnez	a6, 0x1daca <__subtf3+0x2c6>
   1da4a: 63 0f 07 42  	beqz	a4, 0x1de88 <__subtf3+0x684>
   1da4e: 33 e7 c8 00  	or	a4, a7, a2
   1da52: 63 0b 07 4e  	beqz	a4, 0x1df48 <__subtf3+0x744>
   1da56: 2a 96        	add	a2, a2, a0
   1da58: 46 93        	add	t1, t1, a7
   1da5a: 33 35 a6 00  	sltu	a0, a2, a0
   1da5e: b3 08 a3 00  	add	a7, t1, a0
   1da62: 13 97 c8 00  	slli	a4, a7, 0xc
   1da66: 63 51 07 42  	bgez	a4, 0x1de88 <__subtf3+0x684>
   1da6a: 7d 57        	li	a4, -0x1
   1da6c: 4e 17        	slli	a4, a4, 0x33
   1da6e: 7d 17        	addi	a4, a4, -0x1
   1da70: b3 f8 e8 00  	and	a7, a7, a4
   1da74: 85 44        	li	s1, 0x1
   1da76: 21 67        	lui	a4, 0x8
   1da78: 13 95 d8 03  	slli	a0, a7, 0x3d
   1da7c: 0d 82        	srli	a2, a2, 0x3
   1da7e: 7d 17        	addi	a4, a4, -0x1
   1da80: 51 8d        	or	a0, a0, a2
   1da82: 93 d8 38 00  	srli	a7, a7, 0x3
   1da86: 63 9a e4 00  	bne	s1, a4, 0x1da9a <__subtf3+0x296>
   1da8a: 33 65 15 01  	or	a0, a0, a7
   1da8e: 81 48        	li	a7, 0x0
   1da90: 09 c5        	beqz	a0, 0x1da9a <__subtf3+0x296>
   1da92: 85 48        	li	a7, 0x1
   1da94: be 18        	slli	a7, a7, 0x2f
   1da96: 01 45        	li	a0, 0x0
   1da98: 81 49        	li	s3, 0x0
   1da9a: 13 97 14 03  	slli	a4, s1, 0x31
   1da9e: 9b 99 f9 00  	slliw	s3, s3, 0xf
   1daa2: 45 93        	srli	a4, a4, 0x31
   1daa4: 93 95 08 01  	slli	a1, a7, 0x10
   1daa8: b3 e9 e9 00  	or	s3, s3, a4
   1daac: c2 19        	slli	s3, s3, 0x30
   1daae: c1 81        	srli	a1, a1, 0x10
   1dab0: b3 e5 35 01  	or	a1, a1, s3
   1dab4: 99 c3        	beqz	a5, 0x1daba <__subtf3+0x2b6>
   1dab6: 73 a0 17 00  	csrs	fflags, a5
   1daba: a2 70        	ld	ra, 0x28(sp)
   1dabc: 02 74        	ld	s0, 0x20(sp)
   1dabe: e2 64        	ld	s1, 0x18(sp)
   1dac0: 42 69        	ld	s2, 0x10(sp)
   1dac2: a2 69        	ld	s3, 0x8(sp)
   1dac4: 02 6a        	ld	s4, 0x0(sp)
   1dac6: 45 61        	addi	sp, sp, 0x30
   1dac8: 82 80        	ret
   1daca: 63 15 b8 02  	bne	a6, a1, 0x1daf4 <__subtf3+0x2f0>
   1dace: 1d c3        	beqz	a4, 0x1daf4 <__subtf3+0x2f0>
   1dad0: 93 57 23 03  	srli	a5, t1, 0x32
   1dad4: 85 8b        	andi	a5, a5, 0x1
   1dad6: 93 c7 17 00  	xori	a5, a5, 0x1
   1dada: 9b 97 47 00  	slliw	a5, a5, 0x4
   1dade: 63 11 0e 03  	bne	t3, a6, 0x1db00 <__subtf3+0x2fc>
   1dae2: b3 e6 c8 00  	or	a3, a7, a2
   1dae6: 99 ca        	beqz	a3, 0x1dafc <__subtf3+0x2f8>
   1dae8: 93 96 d8 00  	slli	a3, a7, 0xd
   1daec: 63 c8 06 00  	bltz	a3, 0x1dafc <__subtf3+0x2f8>
   1daf0: c1 47        	li	a5, 0x10
   1daf2: 29 a0        	j	0x1dafc <__subtf3+0x2f8>
   1daf4: a1 66        	lui	a3, 0x8
   1daf6: fd 16        	addi	a3, a3, -0x1
   1daf8: e3 05 de fe  	beq	t3, a3, 0x1dae2 <__subtf3+0x2de>
   1dafc: 63 0f 07 2e  	beqz	a4, 0x1ddfa <__subtf3+0x5f6>
   1db00: a1 64        	lui	s1, 0x8
   1db02: b3 e8 c8 00  	or	a7, a7, a2
   1db06: 13 87 f4 ff  	addi	a4, s1, -0x1
   1db0a: 63 9d 08 4c  	bnez	a7, 0x1dfe4 <__subtf3+0x7e0>
   1db0e: 9a 88        	mv	a7, t1
   1db10: 2a 86        	mv	a2, a0
   1db12: ba 84        	mv	s1, a4
   1db14: 8d b7        	j	0x1da76 <__subtf3+0x272>
   1db16: 63 00 b7 02  	beq	a4, a1, 0x1db36 <__subtf3+0x332>
   1db1a: 2a 96        	add	a2, a2, a0
   1db1c: 46 93        	add	t1, t1, a7
   1db1e: 33 35 a6 00  	sltu	a0, a2, a0
   1db22: 2a 93        	add	t1, t1, a0
   1db24: 93 16 f3 03  	slli	a3, t1, 0x3f
   1db28: 05 82        	srli	a2, a2, 0x1
   1db2a: 55 8e        	or	a2, a2, a3
   1db2c: 93 58 13 00  	srli	a7, t1, 0x1
   1db30: ba 84        	mv	s1, a4
   1db32: 01 47        	li	a4, 0x0
   1db34: 71 ae        	j	0x1ded0 <__subtf3+0x6cc>
   1db36: 63 0c 09 4a  	beqz	s2, 0x1dfee <__subtf3+0x7ea>
   1db3a: 0d 46        	li	a2, 0x3
   1db3c: 63 19 c9 02  	bne	s2, a2, 0x1db6e <__subtf3+0x36a>
   1db40: 63 87 09 4a  	beqz	s3, 0x1dfee <__subtf3+0x7ea>
   1db44: 7d 56        	li	a2, -0x1
   1db46: b2 88        	mv	a7, a2
   1db48: b6 84        	mv	s1, a3
   1db4a: 15 47        	li	a4, 0x5
   1db4c: 8d 46        	li	a3, 0x3
   1db4e: 63 0f d9 40  	beq	s2, a3, 0x1df6c <__subtf3+0x768>
   1db52: 63 15 09 42  	bnez	s2, 0x1df7c <__subtf3+0x778>
   1db56: 93 76 f6 00  	andi	a3, a2, 0xf
   1db5a: 91 45        	li	a1, 0x4
   1db5c: 63 80 b6 42  	beq	a3, a1, 0x1df7c <__subtf3+0x778>
   1db60: b3 06 b6 00  	add	a3, a2, a1
   1db64: b3 b5 c6 00  	sltu	a1, a3, a2
   1db68: ae 98        	add	a7, a7, a1
   1db6a: 36 86        	mv	a2, a3
   1db6c: 01 a9        	j	0x1df7c <__subtf3+0x778>
   1db6e: 89 47        	li	a5, 0x2
   1db70: b6 84        	mv	s1, a3
   1db72: 63 1e f9 42  	bne	s2, a5, 0x1dfae <__subtf3+0x7aa>
   1db76: 63 9c 09 46  	bnez	s3, 0x1dfee <__subtf3+0x7ea>
   1db7a: 7d 56        	li	a2, -0x1
   1db7c: b2 88        	mv	a7, a2
   1db7e: 15 47        	li	a4, 0x5
   1db80: ba 87        	mv	a5, a4
   1db82: 21 a1        	j	0x1df8a <__subtf3+0x786>
   1db84: 63 06 09 46  	beqz	s2, 0x1dff0 <__subtf3+0x7ec>
   1db88: 8d 47        	li	a5, 0x3
   1db8a: 63 1b f9 00  	bne	s2, a5, 0x1dba0 <__subtf3+0x39c>
   1db8e: 63 81 09 46  	beqz	s3, 0x1dff0 <__subtf3+0x7ec>
   1db92: 7d 56        	li	a2, -0x1
   1db94: 21 67        	lui	a4, 0x8
   1db96: b2 88        	mv	a7, a2
   1db98: 93 04 e7 ff  	addi	s1, a4, -0x2
   1db9c: 81 47        	li	a5, 0x0
   1db9e: 75 b7        	j	0x1db4a <__subtf3+0x346>
   1dba0: 89 47        	li	a5, 0x2
   1dba2: 63 13 f9 40  	bne	s2, a5, 0x1dfa8 <__subtf3+0x7a4>
   1dba6: 63 95 09 44  	bnez	s3, 0x1dff0 <__subtf3+0x7ec>
   1dbaa: 7d 56        	li	a2, -0x1
   1dbac: 21 67        	lui	a4, 0x8
   1dbae: b2 88        	mv	a7, a2
   1dbb0: 93 04 e7 ff  	addi	s1, a4, -0x2
   1dbb4: e9 b7        	j	0x1db7e <__subtf3+0x37a>
   1dbb6: 63 5e f0 0a  	blez	a5, 0x1dc72 <__subtf3+0x46e>
   1dbba: 63 1c 0e 06  	bnez	t3, 0x1dc32 <__subtf3+0x42e>
   1dbbe: 33 e7 c8 00  	or	a4, a7, a2
   1dbc2: e3 0f 07 ca  	beqz	a4, 0x1d880 <__subtf3+0x7c>
   1dbc6: fd 37        	addiw	a5, a5, -0x1
   1dbc8: 95 e3        	bnez	a5, 0x1dbec <__subtf3+0x3e8>
   1dbca: 33 06 c5 40  	sub	a2, a0, a2
   1dbce: 33 03 13 41  	sub	t1, t1, a7
   1dbd2: 33 35 c5 00  	sltu	a0, a0, a2
   1dbd6: b3 08 a3 40  	sub	a7, t1, a0
   1dbda: 93 97 c8 00  	slli	a5, a7, 0xc
   1dbde: e3 d5 07 ce  	bgez	a5, 0x1d8c8 <__subtf3+0xc4>
   1dbe2: 13 94 d8 00  	slli	s0, a7, 0xd
   1dbe6: 35 80        	srli	s0, s0, 0xd
   1dbe8: 32 8a        	mv	s4, a2
   1dbea: b9 a4        	j	0x1de38 <__subtf3+0x634>
   1dbec: e3 02 b8 ce  	beq	a6, a1, 0x1d8d0 <__subtf3+0xcc>
   1dbf0: 13 07 40 07  	li	a4, 0x74
   1dbf4: 63 4a f7 06  	blt	a4, a5, 0x1dc68 <__subtf3+0x464>
   1dbf8: 13 07 f0 03  	li	a4, 0x3f
   1dbfc: 63 42 f7 04  	blt	a4, a5, 0x1dc40 <__subtf3+0x43c>
   1dc00: 93 06 00 04  	li	a3, 0x40
   1dc04: 9d 9e        	subw	a3, a3, a5
   1dc06: 33 97 d8 00  	sll	a4, a7, a3
   1dc0a: b3 55 f6 00  	srl	a1, a2, a5
   1dc0e: b3 16 d6 00  	sll	a3, a2, a3
   1dc12: 4d 8f        	or	a4, a4, a1
   1dc14: b3 36 d0 00  	snez	a3, a3
   1dc18: 55 8f        	or	a4, a4, a3
   1dc1a: b3 d7 f8 00  	srl	a5, a7, a5
   1dc1e: 33 07 e5 40  	sub	a4, a0, a4
   1dc22: b3 07 f3 40  	sub	a5, t1, a5
   1dc26: 33 35 e5 00  	sltu	a0, a0, a4
   1dc2a: 3a 86        	mv	a2, a4
   1dc2c: b3 88 a7 40  	sub	a7, a5, a0
   1dc30: 6d b7        	j	0x1dbda <__subtf3+0x3d6>
   1dc32: e3 0f b8 c8  	beq	a6, a1, 0x1d8d0 <__subtf3+0xcc>
   1dc36: 05 47        	li	a4, 0x1
   1dc38: 4e 17        	slli	a4, a4, 0x33
   1dc3a: b3 e8 e8 00  	or	a7, a7, a4
   1dc3e: 4d bf        	j	0x1dbf0 <__subtf3+0x3ec>
   1dc40: 1b 87 07 fc  	addiw	a4, a5, -0x40
   1dc44: 93 05 00 04  	li	a1, 0x40
   1dc48: 33 d7 e8 00  	srl	a4, a7, a4
   1dc4c: 81 46        	li	a3, 0x0
   1dc4e: 63 87 b7 00  	beq	a5, a1, 0x1dc5c <__subtf3+0x458>
   1dc52: 93 06 00 08  	li	a3, 0x80
   1dc56: 9d 9e        	subw	a3, a3, a5
   1dc58: b3 96 d8 00  	sll	a3, a7, a3
   1dc5c: d1 8e        	or	a3, a3, a2
   1dc5e: b3 36 d0 00  	snez	a3, a3
   1dc62: 55 8f        	or	a4, a4, a3
   1dc64: 81 47        	li	a5, 0x0
   1dc66: 65 bf        	j	0x1dc1e <__subtf3+0x41a>
   1dc68: 33 e7 c8 00  	or	a4, a7, a2
   1dc6c: 33 37 e0 00  	snez	a4, a4
   1dc70: d5 bf        	j	0x1dc64 <__subtf3+0x460>
   1dc72: e1 cf        	beqz	a5, 0x1dd4a <__subtf3+0x546>
   1dc74: 63 19 08 08  	bnez	a6, 0x1dd06 <__subtf3+0x502>
   1dc78: 33 67 a3 00  	or	a4, t1, a0
   1dc7c: 0d e3        	bnez	a4, 0x1dc9e <__subtf3+0x49a>
   1dc7e: b6 89        	mv	s3, a3
   1dc80: 63 11 be 38  	bne	t3, a1, 0x1e002 <__subtf3+0x7fe>
   1dc84: b3 e7 c8 00  	or	a5, a7, a2
   1dc88: 63 8a 07 36  	beqz	a5, 0x1dffc <__subtf3+0x7f8>
   1dc8c: 93 d7 28 03  	srli	a5, a7, 0x32
   1dc90: 85 8b        	andi	a5, a5, 0x1
   1dc92: 93 c7 17 00  	xori	a5, a5, 0x1
   1dc96: 9b 97 47 00  	slliw	a5, a5, 0x4
   1dc9a: b6 89        	mv	s3, a3
   1dc9c: cd b9        	j	0x1d98e <__subtf3+0x18a>
   1dc9e: 13 c7 f7 ff  	not	a4, a5
   1dca2: 01 27        	sext.w	a4, a4
   1dca4: 09 ef        	bnez	a4, 0x1dcbe <__subtf3+0x4ba>
   1dca6: 33 05 a6 40  	sub	a0, a2, a0
   1dcaa: b3 37 a6 00  	sltu	a5, a2, a0
   1dcae: 33 83 68 40  	sub	t1, a7, t1
   1dcb2: 2a 86        	mv	a2, a0
   1dcb4: b3 08 f3 40  	sub	a7, t1, a5
   1dcb8: f2 84        	mv	s1, t3
   1dcba: b6 89        	mv	s3, a3
   1dcbc: 39 bf        	j	0x1dbda <__subtf3+0x3d6>
   1dcbe: e3 03 be fc  	beq	t3, a1, 0x1dc84 <__subtf3+0x480>
   1dcc2: 93 07 40 07  	li	a5, 0x74
   1dcc6: 63 cd e7 06  	blt	a5, a4, 0x1dd40 <__subtf3+0x53c>
   1dcca: 93 07 f0 03  	li	a5, 0x3f
   1dcce: 63 c5 e7 04  	blt	a5, a4, 0x1dd18 <__subtf3+0x514>
   1dcd2: 93 05 00 04  	li	a1, 0x40
   1dcd6: 99 9d        	subw	a1, a1, a4
   1dcd8: b3 17 b3 00  	sll	a5, t1, a1
   1dcdc: 33 58 e5 00  	srl	a6, a0, a4
   1dce0: b3 15 b5 00  	sll	a1, a0, a1
   1dce4: b3 e7 07 01  	or	a5, a5, a6
   1dce8: b3 35 b0 00  	snez	a1, a1
   1dcec: cd 8f        	or	a5, a5, a1
   1dcee: 33 57 e3 00  	srl	a4, t1, a4
   1dcf2: b3 07 f6 40  	sub	a5, a2, a5
   1dcf6: b3 35 f6 00  	sltu	a1, a2, a5
   1dcfa: 33 87 e8 40  	sub	a4, a7, a4
   1dcfe: 3e 86        	mv	a2, a5
   1dd00: b3 08 b7 40  	sub	a7, a4, a1
   1dd04: 55 bf        	j	0x1dcb8 <__subtf3+0x4b4>
   1dd06: e3 0f be f6  	beq	t3, a1, 0x1dc84 <__subtf3+0x480>
   1dd0a: 3b 07 f0 40  	negw	a4, a5
   1dd0e: 85 47        	li	a5, 0x1
   1dd10: ce 17        	slli	a5, a5, 0x33
   1dd12: 33 63 f3 00  	or	t1, t1, a5
   1dd16: 75 b7        	j	0x1dcc2 <__subtf3+0x4be>
   1dd18: 9b 07 07 fc  	addiw	a5, a4, -0x40
   1dd1c: 13 08 00 04  	li	a6, 0x40
   1dd20: b3 57 f3 00  	srl	a5, t1, a5
   1dd24: 81 45        	li	a1, 0x0
   1dd26: 63 07 07 01  	beq	a4, a6, 0x1dd34 <__subtf3+0x530>
   1dd2a: 93 05 00 08  	li	a1, 0x80
   1dd2e: 99 9d        	subw	a1, a1, a4
   1dd30: b3 15 b3 00  	sll	a1, t1, a1
   1dd34: c9 8d        	or	a1, a1, a0
   1dd36: b3 35 b0 00  	snez	a1, a1
   1dd3a: cd 8f        	or	a5, a5, a1
   1dd3c: 01 47        	li	a4, 0x0
   1dd3e: 55 bf        	j	0x1dcf2 <__subtf3+0x4ee>
   1dd40: b3 67 a3 00  	or	a5, t1, a0
   1dd44: b3 37 f0 00  	snez	a5, a5
   1dd48: d5 bf        	j	0x1dd3c <__subtf3+0x538>
   1dd4a: 13 07 18 00  	addi	a4, a6, 0x1
   1dd4e: 93 1e 17 03  	slli	t4, a4, 0x31
   1dd52: 93 de 2e 03  	srli	t4, t4, 0x32
   1dd56: 63 9d 0e 0a  	bnez	t4, 0x1de10 <__subtf3+0x60c>
   1dd5a: 33 e7 c8 00  	or	a4, a7, a2
   1dd5e: b3 6e a3 00  	or	t4, t1, a0
   1dd62: 63 1f 08 04  	bnez	a6, 0x1ddc0 <__subtf3+0x5bc>
   1dd66: 63 9a 0e 00  	bnez	t4, 0x1dd7a <__subtf3+0x576>
   1dd6a: 1d ef        	bnez	a4, 0x1dda8 <__subtf3+0x5a4>
   1dd6c: 93 09 e9 ff  	addi	s3, s2, -0x2
   1dd70: 93 b9 19 00  	seqz	s3, s3
   1dd74: 81 48        	li	a7, 0x0
   1dd76: 01 46        	li	a2, 0x0
   1dd78: fd b9        	j	0x1da76 <__subtf3+0x272>
   1dd7a: 63 07 07 1c  	beqz	a4, 0x1df48 <__subtf3+0x744>
   1dd7e: b3 05 c5 40  	sub	a1, a0, a2
   1dd82: 33 38 b5 00  	sltu	a6, a0, a1
   1dd86: 33 07 13 41  	sub	a4, t1, a7
   1dd8a: 33 07 07 41  	sub	a4, a4, a6
   1dd8e: 13 18 c7 00  	slli	a6, a4, 0xc
   1dd92: 63 5d 08 00  	bgez	a6, 0x1ddac <__subtf3+0x5a8>
   1dd96: 33 05 a6 40  	sub	a0, a2, a0
   1dd9a: b3 37 a6 00  	sltu	a5, a2, a0
   1dd9e: 33 83 68 40  	sub	t1, a7, t1
   1dda2: 2a 86        	mv	a2, a0
   1dda4: b3 08 f3 40  	sub	a7, t1, a5
   1dda8: b6 89        	mv	s3, a3
   1ddaa: f9 a8        	j	0x1de88 <__subtf3+0x684>
   1ddac: 33 e6 e5 00  	or	a2, a1, a4
   1ddb0: 63 1f 06 18  	bnez	a2, 0x1df4e <__subtf3+0x74a>
   1ddb4: 93 09 e9 ff  	addi	s3, s2, -0x2
   1ddb8: 93 b9 19 00  	seqz	s3, s3
   1ddbc: 81 48        	li	a7, 0x0
   1ddbe: 65 b9        	j	0x1da76 <__subtf3+0x272>
   1ddc0: 63 16 b8 02  	bne	a6, a1, 0x1ddec <__subtf3+0x5e8>
   1ddc4: 63 83 0e 26  	beqz	t4, 0x1e02a <__subtf3+0x826>
   1ddc8: 93 57 23 03  	srli	a5, t1, 0x32
   1ddcc: 85 8b        	andi	a5, a5, 0x1
   1ddce: 93 c7 17 00  	xori	a5, a5, 0x1
   1ddd2: 9b 97 47 00  	slliw	a5, a5, 0x4
   1ddd6: 63 16 0e 03  	bne	t3, a6, 0x1de02 <__subtf3+0x5fe>
   1ddda: 19 cb        	beqz	a4, 0x1ddf0 <__subtf3+0x5ec>
   1dddc: 93 95 d8 00  	slli	a1, a7, 0xd
   1dde0: 63 c8 05 00  	bltz	a1, 0x1ddf0 <__subtf3+0x5ec>
   1dde4: c1 47        	li	a5, 0x10
   1dde6: 63 89 0e 00  	beqz	t4, 0x1ddf8 <__subtf3+0x5f4>
   1ddea: 31 a8        	j	0x1de06 <__subtf3+0x602>
   1ddec: e3 07 be fe  	beq	t3, a1, 0x1ddda <__subtf3+0x5d6>
   1ddf0: 63 99 0e 00  	bnez	t4, 0x1de02 <__subtf3+0x5fe>
   1ddf4: 63 0a 07 20  	beqz	a4, 0x1e008 <__subtf3+0x804>
   1ddf8: b6 89        	mv	s3, a3
   1ddfa: 21 67        	lui	a4, 0x8
   1ddfc: 93 04 f7 ff  	addi	s1, a4, -0x1
   1de00: 9d b9        	j	0x1da76 <__subtf3+0x272>
   1de02: 63 0d 07 20  	beqz	a4, 0x1e01c <__subtf3+0x818>
   1de06: 85 48        	li	a7, 0x1
   1de08: 81 49        	li	s3, 0x0
   1de0a: ca 18        	slli	a7, a7, 0x32
   1de0c: 01 46        	li	a2, 0x0
   1de0e: f5 b7        	j	0x1ddfa <__subtf3+0x5f6>
   1de10: 33 07 c5 40  	sub	a4, a0, a2
   1de14: b3 35 e5 00  	sltu	a1, a0, a4
   1de18: 33 04 13 41  	sub	s0, t1, a7
   1de1c: 0d 8c        	sub	s0, s0, a1
   1de1e: 93 15 c4 00  	slli	a1, s0, 0xc
   1de22: 3a 8a        	mv	s4, a4
   1de24: 63 de 05 0a  	bgez	a1, 0x1dee0 <__subtf3+0x6dc>
   1de28: 33 0a a6 40  	sub	s4, a2, a0
   1de2c: 33 84 68 40  	sub	s0, a7, t1
   1de30: 33 36 46 01  	sltu	a2, a2, s4
   1de34: 11 8c        	sub	s0, s0, a2
   1de36: b6 89        	mv	s3, a3
   1de38: 55 cc        	beqz	s0, 0x1def4 <__subtf3+0x6f0>
   1de3a: 22 85        	mv	a0, s0
   1de3c: ef 00 20 5d  	jal	0x1e40e <__clzdi2>
   1de40: 1b 06 45 ff  	addiw	a2, a0, -0xc
   1de44: 93 07 00 04  	li	a5, 0x40
   1de48: 91 9f        	subw	a5, a5, a2
   1de4a: 33 14 c4 00  	sll	s0, s0, a2
   1de4e: b3 57 fa 00  	srl	a5, s4, a5
   1de52: c1 8f        	or	a5, a5, s0
   1de54: 33 14 ca 00  	sll	s0, s4, a2
   1de58: 63 40 96 0e  	blt	a2, s1, 0x1df38 <__subtf3+0x734>
   1de5c: 05 9e        	subw	a2, a2, s1
   1de5e: 9b 06 16 00  	addiw	a3, a2, 0x1
   1de62: 13 07 f0 03  	li	a4, 0x3f
   1de66: 63 45 d7 0a  	blt	a4, a3, 0x1df10 <__subtf3+0x70c>
   1de6a: 13 07 00 04  	li	a4, 0x40
   1de6e: 15 9f        	subw	a4, a4, a3
   1de70: 33 96 e7 00  	sll	a2, a5, a4
   1de74: b3 55 d4 00  	srl	a1, s0, a3
   1de78: 33 17 e4 00  	sll	a4, s0, a4
   1de7c: 4d 8e        	or	a2, a2, a1
   1de7e: 33 37 e0 00  	snez	a4, a4
   1de82: 59 8e        	or	a2, a2, a4
   1de84: b3 d8 d7 00  	srl	a7, a5, a3
   1de88: b3 67 16 01  	or	a5, a2, a7
   1de8c: 63 8b 07 18  	beqz	a5, 0x1e022 <__subtf3+0x81e>
   1de90: 93 16 16 00  	slli	a3, a2, 0x1
   1de94: 13 57 f6 03  	srli	a4, a2, 0x3f
   1de98: 93 97 18 00  	slli	a5, a7, 0x1
   1de9c: 93 f5 76 00  	andi	a1, a3, 0x7
   1dea0: ba 97        	add	a5, a5, a4
   1dea2: 01 47        	li	a4, 0x0
   1dea4: 8d c1        	beqz	a1, 0x1dec6 <__subtf3+0x6c2>
   1dea6: 09 47        	li	a4, 0x2
   1dea8: 63 0e e9 0a  	beq	s2, a4, 0x1df64 <__subtf3+0x760>
   1deac: 0d 47        	li	a4, 0x3
   1deae: 63 03 e9 0a  	beq	s2, a4, 0x1df54 <__subtf3+0x750>
   1deb2: 05 47        	li	a4, 0x1
   1deb4: 63 19 09 00  	bnez	s2, 0x1dec6 <__subtf3+0x6c2>
   1deb8: 93 f5 f6 00  	andi	a1, a3, 0xf
   1debc: 11 45        	li	a0, 0x4
   1debe: 93 b6 c6 ff  	sltiu	a3, a3, -0x4
   1dec2: 63 9e a5 08  	bne	a1, a0, 0x1df5e <__subtf3+0x75a>
   1dec6: d1 93        	srli	a5, a5, 0x34
   1dec8: 85 8b        	andi	a5, a5, 0x1
   1deca: 93 c7 17 00  	xori	a5, a5, 0x1
   1dece: 81 44        	li	s1, 0x0
   1ded0: 93 76 76 00  	andi	a3, a2, 0x7
   1ded4: c5 c6        	beqz	a3, 0x1df7c <__subtf3+0x778>
   1ded6: 09 47        	li	a4, 0x2
   1ded8: 63 0f e9 08  	beq	s2, a4, 0x1df76 <__subtf3+0x772>
   1dedc: 05 47        	li	a4, 0x1
   1dede: bd b1        	j	0x1db4c <__subtf3+0x348>
   1dee0: 33 66 87 00  	or	a2, a4, s0
   1dee4: 31 fa        	bnez	a2, 0x1de38 <__subtf3+0x634>
   1dee6: 93 09 e9 ff  	addi	s3, s2, -0x2
   1deea: 93 b9 19 00  	seqz	s3, s3
   1deee: 81 48        	li	a7, 0x0
   1def0: 81 44        	li	s1, 0x0
   1def2: 51 b6        	j	0x1da76 <__subtf3+0x272>
   1def4: 52 85        	mv	a0, s4
   1def6: ef 00 80 51  	jal	0x1e40e <__clzdi2>
   1defa: 1b 06 45 03  	addiw	a2, a0, 0x34
   1defe: 93 07 f0 03  	li	a5, 0x3f
   1df02: e3 d1 c7 f4  	bge	a5, a2, 0x1de44 <__subtf3+0x640>
   1df06: 9b 07 45 ff  	addiw	a5, a0, -0xc
   1df0a: b3 17 fa 00  	sll	a5, s4, a5
   1df0e: a9 b7        	j	0x1de58 <__subtf3+0x654>
   1df10: 1b 06 16 fc  	addiw	a2, a2, -0x3f
   1df14: 93 05 00 04  	li	a1, 0x40
   1df18: 33 d6 c7 00  	srl	a2, a5, a2
   1df1c: 01 47        	li	a4, 0x0
   1df1e: 63 87 b6 00  	beq	a3, a1, 0x1df2c <__subtf3+0x728>
   1df22: 13 07 00 08  	li	a4, 0x80
   1df26: 15 9f        	subw	a4, a4, a3
   1df28: 33 97 e7 00  	sll	a4, a5, a4
   1df2c: 41 8f        	or	a4, a4, s0
   1df2e: 33 37 e0 00  	snez	a4, a4
   1df32: 59 8e        	or	a2, a2, a4
   1df34: 81 48        	li	a7, 0x0
   1df36: 89 bf        	j	0x1de88 <__subtf3+0x684>
   1df38: 7d 57        	li	a4, -0x1
   1df3a: 4e 17        	slli	a4, a4, 0x33
   1df3c: 7d 17        	addi	a4, a4, -0x1
   1df3e: 91 8c        	sub	s1, s1, a2
   1df40: b3 f8 e7 00  	and	a7, a5, a4
   1df44: 22 86        	mv	a2, s0
   1df46: 49 b2        	j	0x1d8c8 <__subtf3+0xc4>
   1df48: 9a 88        	mv	a7, t1
   1df4a: 2a 86        	mv	a2, a0
   1df4c: 35 bf        	j	0x1de88 <__subtf3+0x684>
   1df4e: ba 88        	mv	a7, a4
   1df50: 2e 86        	mv	a2, a1
   1df52: 1d bf        	j	0x1de88 <__subtf3+0x684>
   1df54: 05 47        	li	a4, 0x1
   1df56: e3 98 09 f6  	bnez	s3, 0x1dec6 <__subtf3+0x6c2>
   1df5a: 93 b6 86 ff  	sltiu	a3, a3, -0x8
   1df5e: b9 8e        	xor	a3, a3, a4
   1df60: b6 97        	add	a5, a5, a3
   1df62: 95 b7        	j	0x1dec6 <__subtf3+0x6c2>
   1df64: 05 47        	li	a4, 0x1
   1df66: e3 80 09 f6  	beqz	s3, 0x1dec6 <__subtf3+0x6c2>
   1df6a: c5 bf        	j	0x1df5a <__subtf3+0x756>
   1df6c: 63 98 09 00  	bnez	s3, 0x1df7c <__subtf3+0x778>
   1df70: 93 06 86 00  	addi	a3, a2, 0x8
   1df74: c5 be        	j	0x1db64 <__subtf3+0x360>
   1df76: 05 47        	li	a4, 0x1
   1df78: e3 9c 09 fe  	bnez	s3, 0x1df70 <__subtf3+0x76c>
   1df7c: e3 82 07 c0  	beqz	a5, 0x1db80 <__subtf3+0x37c>
   1df80: 93 77 17 00  	andi	a5, a4, 0x1
   1df84: 9b 97 17 00  	slliw	a5, a5, 0x1
   1df88: d9 8f        	or	a5, a5, a4
   1df8a: 13 97 c8 00  	slli	a4, a7, 0xc
   1df8e: e3 54 07 ae  	bgez	a4, 0x1da76 <__subtf3+0x272>
   1df92: 21 67        	lui	a4, 0x8
   1df94: 85 04        	addi	s1, s1, 0x1
   1df96: 7d 17        	addi	a4, a4, -0x1
   1df98: 63 8f e4 00  	beq	s1, a4, 0x1dfb6 <__subtf3+0x7b2>
   1df9c: 7d 57        	li	a4, -0x1
   1df9e: 4e 17        	slli	a4, a4, 0x33
   1dfa0: 7d 17        	addi	a4, a4, -0x1
   1dfa2: b3 f8 e8 00  	and	a7, a7, a4
   1dfa6: c1 bc        	j	0x1da76 <__subtf3+0x272>
   1dfa8: 21 67        	lui	a4, 0x8
   1dfaa: 93 04 e7 ff  	addi	s1, a4, -0x2
   1dfae: fd 58        	li	a7, -0x1
   1dfb0: 46 86        	mv	a2, a7
   1dfb2: 95 47        	li	a5, 0x5
   1dfb4: d9 bf        	j	0x1df8a <__subtf3+0x786>
   1dfb6: 01 46        	li	a2, 0x0
   1dfb8: 63 01 09 02  	beqz	s2, 0x1dfda <__subtf3+0x7d6>
   1dfbc: 0d 47        	li	a4, 0x3
   1dfbe: 63 19 e9 00  	bne	s2, a4, 0x1dfd0 <__subtf3+0x7cc>
   1dfc2: 63 8c 09 00  	beqz	s3, 0x1dfda <__subtf3+0x7d6>
   1dfc6: 21 67        	lui	a4, 0x8
   1dfc8: 7d 56        	li	a2, -0x1
   1dfca: 93 04 e7 ff  	addi	s1, a4, -0x2
   1dfce: 31 a0        	j	0x1dfda <__subtf3+0x7d6>
   1dfd0: 09 47        	li	a4, 0x2
   1dfd2: e3 1a e9 fe  	bne	s2, a4, 0x1dfc6 <__subtf3+0x7c2>
   1dfd6: e3 88 09 fe  	beqz	s3, 0x1dfc6 <__subtf3+0x7c2>
   1dfda: 93 e7 57 00  	ori	a5, a5, 0x5
   1dfde: 81 27        	sext.w	a5, a5
   1dfe0: b2 88        	mv	a7, a2
   1dfe2: 51 bc        	j	0x1da76 <__subtf3+0x272>
   1dfe4: 85 48        	li	a7, 0x1
   1dfe6: 81 49        	li	s3, 0x0
   1dfe8: ca 18        	slli	a7, a7, 0x32
   1dfea: 01 46        	li	a2, 0x0
   1dfec: 1d b6        	j	0x1db12 <__subtf3+0x30e>
   1dfee: ba 84        	mv	s1, a4
   1dff0: 81 48        	li	a7, 0x0
   1dff2: 01 46        	li	a2, 0x0
   1dff4: 95 47        	li	a5, 0x5
   1dff6: 41 b4        	j	0x1da76 <__subtf3+0x272>
   1dff8: 81 48        	li	a7, 0x0
   1dffa: 29 a0        	j	0x1e004 <__subtf3+0x800>
   1dffc: b6 89        	mv	s3, a3
   1dffe: 81 48        	li	a7, 0x0
   1e000: 01 46        	li	a2, 0x0
   1e002: f2 84        	mv	s1, t3
   1e004: 81 47        	li	a5, 0x0
   1e006: 85 bc        	j	0x1da76 <__subtf3+0x272>
   1e008: 85 47        	li	a5, 0x1
   1e00a: 21 67        	lui	a4, 0x8
   1e00c: 93 98 27 03  	slli	a7, a5, 0x32
   1e010: 81 49        	li	s3, 0x0
   1e012: 01 46        	li	a2, 0x0
   1e014: 93 04 f7 ff  	addi	s1, a4, -0x1
   1e018: c1 47        	li	a5, 0x10
   1e01a: b1 bc        	j	0x1da76 <__subtf3+0x272>
   1e01c: 9a 88        	mv	a7, t1
   1e01e: 2a 86        	mv	a2, a0
   1e020: e9 bb        	j	0x1ddfa <__subtf3+0x5f6>
   1e022: 81 48        	li	a7, 0x0
   1e024: 01 46        	li	a2, 0x0
   1e026: 81 44        	li	s1, 0x0
   1e028: f1 bf        	j	0x1e004 <__subtf3+0x800>
   1e02a: e3 15 0e dd  	bne	t3, a6, 0x1ddf4 <__subtf3+0x5f0>
   1e02e: 75 b3        	j	0x1ddda <__subtf3+0x5d6>

000000000001e030 <__fixtfsi>:
   1e030: 2a 86        	mv	a2, a0
   1e032: f3 27 20 00  	frrm	a5
   1e036: 11 67        	lui	a4, 0x4
   1e038: 93 96 15 00  	slli	a3, a1, 0x1
   1e03c: 93 97 05 01  	slli	a5, a1, 0x10
   1e040: c5 92        	srli	a3, a3, 0x31
   1e042: 79 17        	addi	a4, a4, -0x2
   1e044: c1 83        	srli	a5, a5, 0x10
   1e046: fd 91        	srli	a1, a1, 0x3f
   1e048: 63 48 d7 00  	blt	a4, a3, 0x1e058 <__fixtfsi+0x28>
   1e04c: a5 e2        	bnez	a3, 0x1e0ac <__fixtfsi+0x7c>
   1e04e: 33 66 f5 00  	or	a2, a0, a5
   1e052: 01 45        	li	a0, 0x0
   1e054: 31 ea        	bnez	a2, 0x1e0a8 <__fixtfsi+0x78>
   1e056: 82 80        	ret
   1e058: 11 67        	lui	a4, 0x4
   1e05a: 75 07        	addi	a4, a4, 0x1d
   1e05c: 63 50 d7 02  	bge	a4, a3, 0x1e07c <__fixtfsi+0x4c>
   1e060: 37 05 00 80  	lui	a0, 0x80000
   1e064: b1 c5        	beqz	a1, 0x1e0b0 <__fixtfsi+0x80>
   1e066: 11 67        	lui	a4, 0x4
   1e068: 79 07        	addi	a4, a4, 0x1e
   1e06a: 63 95 e6 04  	bne	a3, a4, 0x1e0b4 <__fixtfsi+0x84>
   1e06e: 13 d7 17 01  	srli	a4, a5, 0x11
   1e072: 29 e3        	bnez	a4, 0x1e0b4 <__fixtfsi+0x84>
   1e074: be 17        	slli	a5, a5, 0x2f
   1e076: d1 8f        	or	a5, a5, a2
   1e078: 85 eb        	bnez	a5, 0x1e0a8 <__fixtfsi+0x78>
   1e07a: 82 80        	ret
   1e07c: 05 47        	li	a4, 0x1
   1e07e: 42 17        	slli	a4, a4, 0x30
   1e080: d9 8f        	or	a5, a5, a4
   1e082: 11 66        	lui	a2, 0x4
   1e084: 71 77        	lui	a4, 0xffffc
   1e086: 45 27        	addiw	a4, a4, 0x11
   1e088: 1b 06 f6 02  	addiw	a2, a2, 0x2f
   1e08c: 35 9f        	addw	a4, a4, a3
   1e08e: bb 06 d6 40  	subw	a3, a2, a3
   1e092: 33 97 e7 00  	sll	a4, a5, a4
   1e096: b3 d7 d7 00  	srl	a5, a5, a3
   1e09a: 49 8f        	or	a4, a4, a0
   1e09c: 1b 85 07 00  	sext.w	a0, a5
   1e0a0: 99 c1        	beqz	a1, 0x1e0a6 <__fixtfsi+0x76>
   1e0a2: 3b 05 a0 40  	negw	a0, a0
   1e0a6: 11 cb        	beqz	a4, 0x1e0ba <__fixtfsi+0x8a>
   1e0a8: 85 47        	li	a5, 0x1
   1e0aa: 31 a0        	j	0x1e0b6 <__fixtfsi+0x86>
   1e0ac: 01 45        	li	a0, 0x0
   1e0ae: ed bf        	j	0x1e0a8 <__fixtfsi+0x78>
   1e0b0: 13 45 f5 ff  	not	a0, a0
   1e0b4: c1 47        	li	a5, 0x10
   1e0b6: 73 a0 17 00  	csrs	fflags, a5
   1e0ba: 82 80        	ret

000000000001e0bc <__floatsitf>:
   1e0bc: 01 11        	addi	sp, sp, -0x20
   1e0be: 06 ec        	sd	ra, 0x18(sp)
   1e0c0: 22 e8        	sd	s0, 0x10(sp)
   1e0c2: 26 e4        	sd	s1, 0x8(sp)
   1e0c4: 29 c1        	beqz	a0, 0x1e106 <__floatsitf+0x4a>
   1e0c6: 9b 57 f5 41  	sraiw	a5, a0, 0x1f
   1e0ca: 33 44 f5 00  	xor	s0, a0, a5
   1e0ce: 1d 9c        	subw	s0, s0, a5
   1e0d0: 02 14        	slli	s0, s0, 0x20
   1e0d2: 01 90        	srli	s0, s0, 0x20
   1e0d4: 9b 54 f5 01  	srliw	s1, a0, 0x1f
   1e0d8: 22 85        	mv	a0, s0
   1e0da: ef 00 40 33  	jal	0x1e40e <__clzdi2>
   1e0de: 91 67        	lui	a5, 0x4
   1e0e0: 9b 87 e7 03  	addiw	a5, a5, 0x3e
   1e0e4: 89 9f        	subw	a5, a5, a0
   1e0e6: 45 35        	addiw	a0, a0, -0xf
   1e0e8: 33 14 a4 00  	sll	s0, s0, a0
   1e0ec: 9b 95 f4 00  	slliw	a1, s1, 0xf
   1e0f0: 42 04        	slli	s0, s0, 0x10
   1e0f2: dd 8d        	or	a1, a1, a5
   1e0f4: 41 80        	srli	s0, s0, 0x10
   1e0f6: c2 15        	slli	a1, a1, 0x30
   1e0f8: e2 60        	ld	ra, 0x18(sp)
   1e0fa: c1 8d        	or	a1, a1, s0
   1e0fc: 42 64        	ld	s0, 0x10(sp)
   1e0fe: a2 64        	ld	s1, 0x8(sp)
   1e100: 01 45        	li	a0, 0x0
   1e102: 05 61        	addi	sp, sp, 0x20
   1e104: 82 80        	ret
   1e106: 81 44        	li	s1, 0x0
   1e108: 01 44        	li	s0, 0x0
   1e10a: 81 47        	li	a5, 0x0
   1e10c: c5 b7        	j	0x1e0ec <__floatsitf+0x30>

000000000001e10e <__extenddftf2>:
   1e10e: 01 11        	addi	sp, sp, -0x20
   1e110: d3 07 05 e2  	fmv.x.d	a5, fa0
   1e114: 06 ec        	sd	ra, 0x18(sp)
   1e116: 22 e8        	sd	s0, 0x10(sp)
   1e118: 26 e4        	sd	s1, 0x8(sp)
   1e11a: 73 27 20 00  	frrm	a4
   1e11e: 13 d5 47 03  	srli	a0, a5, 0x34
   1e122: 13 75 f5 7f  	andi	a0, a0, 0x7ff
   1e126: 13 94 c7 00  	slli	s0, a5, 0xc
   1e12a: 93 d4 f7 03  	srli	s1, a5, 0x3f
   1e12e: 93 07 15 00  	addi	a5, a0, 0x1
   1e132: 93 f7 e7 7f  	andi	a5, a5, 0x7fe
   1e136: 31 80        	srli	s0, s0, 0xc
   1e138: 91 cb        	beqz	a5, 0x1e14c <__extenddftf2+0x3e>
   1e13a: 91 67        	lui	a5, 0x4
   1e13c: 93 87 07 c0  	addi	a5, a5, -0x400
   1e140: 3e 95        	add	a0, a0, a5
   1e142: 93 57 44 00  	srli	a5, s0, 0x4
   1e146: 72 14        	slli	s0, s0, 0x3c
   1e148: 01 47        	li	a4, 0x0
   1e14a: b9 a8        	j	0x1e1a8 <__extenddftf2+0x9a>
   1e14c: 1d ed        	bnez	a0, 0x1e18a <__extenddftf2+0x7c>
   1e14e: 81 47        	li	a5, 0x0
   1e150: 65 dc        	beqz	s0, 0x1e148 <__extenddftf2+0x3a>
   1e152: 22 85        	mv	a0, s0
   1e154: ef 00 a0 2b  	jal	0x1e40e <__clzdi2>
   1e158: 1b 07 05 00  	sext.w	a4, a0
   1e15c: b9 47        	li	a5, 0xe
   1e15e: 63 c0 e7 02  	blt	a5, a4, 0x1e17e <__extenddftf2+0x70>
   1e162: bd 47        	li	a5, 0xf
   1e164: 89 9f        	subw	a5, a5, a0
   1e166: 1b 07 15 03  	addiw	a4, a0, 0x31
   1e16a: b3 57 f4 00  	srl	a5, s0, a5
   1e16e: 33 14 e4 00  	sll	s0, s0, a4
   1e172: 11 67        	lui	a4, 0x4
   1e174: 1b 07 c7 c0  	addiw	a4, a4, -0x3f4
   1e178: 3b 05 a7 40  	subw	a0, a4, a0
   1e17c: f1 b7        	j	0x1e148 <__extenddftf2+0x3a>
   1e17e: 9b 07 15 ff  	addiw	a5, a0, -0xf
   1e182: b3 17 f4 00  	sll	a5, s0, a5
   1e186: 01 44        	li	s0, 0x0
   1e188: ed b7        	j	0x1e172 <__extenddftf2+0x64>
   1e18a: 21 c0        	beqz	s0, 0x1e1ca <__extenddftf2+0xbc>
   1e18c: 05 47        	li	a4, 0x1
   1e18e: 4e 17        	slli	a4, a4, 0x33
   1e190: 85 46        	li	a3, 0x1
   1e192: 33 37 e4 00  	sltu	a4, s0, a4
   1e196: 93 57 44 00  	srli	a5, s0, 0x4
   1e19a: be 16        	slli	a3, a3, 0x2f
   1e19c: 21 65        	lui	a0, 0x8
   1e19e: 1b 17 47 00  	slliw	a4, a4, 0x4
   1e1a2: 72 14        	slli	s0, s0, 0x3c
   1e1a4: d5 8f        	or	a5, a5, a3
   1e1a6: 7d 15        	addi	a0, a0, -0x1
   1e1a8: 93 95 07 01  	slli	a1, a5, 0x10
   1e1ac: 9b 97 f4 00  	slliw	a5, s1, 0xf
   1e1b0: c9 8f        	or	a5, a5, a0
   1e1b2: c2 17        	slli	a5, a5, 0x30
   1e1b4: c1 81        	srli	a1, a1, 0x10
   1e1b6: dd 8d        	or	a1, a1, a5
   1e1b8: 19 c3        	beqz	a4, 0x1e1be <__extenddftf2+0xb0>
   1e1ba: 73 60 18 00  	csrsi	fflags, 0x10
   1e1be: e2 60        	ld	ra, 0x18(sp)
   1e1c0: 22 85        	mv	a0, s0
   1e1c2: 42 64        	ld	s0, 0x10(sp)
   1e1c4: a2 64        	ld	s1, 0x8(sp)
   1e1c6: 05 61        	addi	sp, sp, 0x20
   1e1c8: 82 80        	ret
   1e1ca: 21 65        	lui	a0, 0x8
   1e1cc: 81 47        	li	a5, 0x0
   1e1ce: 7d 15        	addi	a0, a0, -0x1
   1e1d0: a5 bf        	j	0x1e148 <__extenddftf2+0x3a>

000000000001e1d2 <__trunctfdf2>:
   1e1d2: 73 28 20 00  	frrm	a6
   1e1d6: fd 57        	li	a5, -0x1
   1e1d8: 93 d6 07 01  	srli	a3, a5, 0x10
   1e1dc: 21 63        	lui	t1, 0x8
   1e1de: 13 d7 05 03  	srli	a4, a1, 0x30
   1e1e2: 7d 13        	addi	t1, t1, -0x1
   1e1e4: 13 d6 f5 03  	srli	a2, a1, 0x3f
   1e1e8: f5 8d        	and	a1, a1, a3
   1e1ea: 8e 05        	slli	a1, a1, 0x3
   1e1ec: 33 77 67 00  	and	a4, a4, t1
   1e1f0: 93 56 d5 03  	srli	a3, a0, 0x3d
   1e1f4: cd 8e        	or	a3, a3, a1
   1e1f6: 93 05 17 00  	addi	a1, a4, 0x1
   1e1fa: 13 9e 15 03  	slli	t3, a1, 0x31
   1e1fe: 13 5e 2e 03  	srli	t3, t3, 0x32
   1e202: 01 28        	sext.w	a6, a6
   1e204: 93 18 35 00  	slli	a7, a0, 0x3
   1e208: 63 08 0e 12  	beqz	t3, 0x1e338 <__trunctfdf2+0x166>
   1e20c: f1 75        	lui	a1, 0xffffc
   1e20e: 93 85 05 40  	addi	a1, a1, 0x400
   1e212: 2e 97        	add	a4, a4, a1
   1e214: 93 05 e0 7f  	li	a1, 0x7fe
   1e218: 63 da e5 06  	bge	a1, a4, 0x1e28c <__trunctfdf2+0xba>
   1e21c: 63 04 08 1e  	beqz	a6, 0x1e404 <__trunctfdf2+0x232>
   1e220: 0d 47        	li	a4, 0x3
   1e222: 63 19 e8 04  	bne	a6, a4, 0x1e274 <__trunctfdf2+0xa2>
   1e226: 63 0f 06 1c  	beqz	a2, 0x1e404 <__trunctfdf2+0x232>
   1e22a: 2e 87        	mv	a4, a1
   1e22c: 81 46        	li	a3, 0x0
   1e22e: 95 45        	li	a1, 0x5
   1e230: 0d 45        	li	a0, 0x3
   1e232: 63 0b a8 16  	beq	a6, a0, 0x1e3a8 <__trunctfdf2+0x1d6>
   1e236: 63 18 08 00  	bnez	a6, 0x1e246 <__trunctfdf2+0x74>
   1e23a: 13 f5 f7 00  	andi	a0, a5, 0xf
   1e23e: 91 48        	li	a7, 0x4
   1e240: 63 03 15 01  	beq	a0, a7, 0x1e246 <__trunctfdf2+0x74>
   1e244: c6 97        	add	a5, a5, a7
   1e246: 91 c6        	beqz	a3, 0x1e252 <__trunctfdf2+0x80>
   1e248: 93 f6 15 00  	andi	a3, a1, 0x1
   1e24c: 9b 96 16 00  	slliw	a3, a3, 0x1
   1e250: d5 8d        	or	a1, a1, a3
   1e252: 93 96 87 00  	slli	a3, a5, 0x8
   1e256: 63 c2 06 16  	bltz	a3, 0x1e3ba <__trunctfdf2+0x1e8>
   1e25a: 8d 83        	srli	a5, a5, 0x3
   1e25c: b2 07        	slli	a5, a5, 0xc
   1e25e: 52 17        	slli	a4, a4, 0x34
   1e260: b1 83        	srli	a5, a5, 0xc
   1e262: d9 8f        	or	a5, a5, a4
   1e264: 7e 16        	slli	a2, a2, 0x3f
   1e266: d1 8f        	or	a5, a5, a2
   1e268: 99 c1        	beqz	a1, 0x1e26e <__trunctfdf2+0x9c>
   1e26a: 73 a0 15 00  	csrs	fflags, a1
   1e26e: 53 85 07 f2  	fmv.d.x	fa0, a5
   1e272: 82 80        	ret
   1e274: 09 47        	li	a4, 0x2
   1e276: 63 1f e8 12  	bne	a6, a4, 0x1e3b4 <__trunctfdf2+0x1e2>
   1e27a: 63 15 06 18  	bnez	a2, 0x1e404 <__trunctfdf2+0x232>
   1e27e: 2e 87        	mv	a4, a1
   1e280: 81 46        	li	a3, 0x0
   1e282: 95 45        	li	a1, 0x5
   1e284: 13 15 36 00  	slli	a0, a2, 0x3
   1e288: aa 97        	add	a5, a5, a0
   1e28a: 75 bf        	j	0x1e246 <__trunctfdf2+0x74>
   1e28c: 63 4a e0 08  	bgtz	a4, 0x1e320 <__trunctfdf2+0x14e>
   1e290: 93 05 c0 fc  	li	a1, -0x34
   1e294: 85 47        	li	a5, 0x1
   1e296: 63 4c b7 02  	blt	a4, a1, 0x1e2ce <__trunctfdf2+0xfc>
   1e29a: ce 17        	slli	a5, a5, 0x33
   1e29c: 93 05 d0 03  	li	a1, 0x3d
   1e2a0: dd 8e        	or	a3, a3, a5
   1e2a2: 33 85 e5 40  	sub	a0, a1, a4
   1e2a6: 93 07 f0 03  	li	a5, 0x3f
   1e2aa: 01 27        	sext.w	a4, a4
   1e2ac: 63 c7 a7 04  	blt	a5, a0, 0x1e2fa <__trunctfdf2+0x128>
   1e2b0: 1b 05 37 00  	addiw	a0, a4, 0x3
   1e2b4: bb 87 e5 40  	subw	a5, a1, a4
   1e2b8: b3 d7 f8 00  	srl	a5, a7, a5
   1e2bc: b3 98 a8 00  	sll	a7, a7, a0
   1e2c0: b3 38 10 01  	snez	a7, a7
   1e2c4: b3 e7 17 01  	or	a5, a5, a7
   1e2c8: b3 96 a6 00  	sll	a3, a3, a0
   1e2cc: d5 8f        	or	a5, a5, a3
   1e2ce: 93 96 17 00  	slli	a3, a5, 0x1
   1e2d2: 13 f7 76 00  	andi	a4, a3, 0x7
   1e2d6: 71 c7        	beqz	a4, 0x1e3a2 <__trunctfdf2+0x1d0>
   1e2d8: 09 47        	li	a4, 0x2
   1e2da: 63 0f e8 0a  	beq	a6, a4, 0x1e398 <__trunctfdf2+0x1c6>
   1e2de: 0d 47        	li	a4, 0x3
   1e2e0: 63 0b e8 08  	beq	a6, a4, 0x1e376 <__trunctfdf2+0x1a4>
   1e2e4: 63 1b 08 0a  	bnez	a6, 0x1e39a <__trunctfdf2+0x1c8>
   1e2e8: 13 f7 f6 00  	andi	a4, a3, 0xf
   1e2ec: 91 45        	li	a1, 0x4
   1e2ee: ae 96        	add	a3, a3, a1
   1e2f0: 63 15 b7 08  	bne	a4, a1, 0x1e37a <__trunctfdf2+0x1a8>
   1e2f4: 01 47        	li	a4, 0x0
   1e2f6: 85 46        	li	a3, 0x1
   1e2f8: 71 a0        	j	0x1e384 <__trunctfdf2+0x1b2>
   1e2fa: f5 57        	li	a5, -0x3
   1e2fc: 99 9f        	subw	a5, a5, a4
   1e2fe: 13 03 00 04  	li	t1, 0x40
   1e302: b3 d7 f6 00  	srl	a5, a3, a5
   1e306: 81 45        	li	a1, 0x0
   1e308: 63 06 65 00  	beq	a0, t1, 0x1e314 <__trunctfdf2+0x142>
   1e30c: 1b 07 37 04  	addiw	a4, a4, 0x43
   1e310: b3 95 e6 00  	sll	a1, a3, a4
   1e314: b3 e5 15 01  	or	a1, a1, a7
   1e318: b3 35 b0 00  	snez	a1, a1
   1e31c: cd 8f        	or	a5, a5, a1
   1e31e: 45 bf        	j	0x1e2ce <__trunctfdf2+0xfc>
   1e320: 1e 05        	slli	a0, a0, 0x7
   1e322: 93 d7 c8 03  	srli	a5, a7, 0x3c
   1e326: 33 35 a0 00  	snez	a0, a0
   1e32a: 92 06        	slli	a3, a3, 0x4
   1e32c: 5d 8d        	or	a0, a0, a5
   1e32e: b3 e7 a6 00  	or	a5, a3, a0
   1e332: 81 46        	li	a3, 0x0
   1e334: 81 45        	li	a1, 0x0
   1e336: 81 a8        	j	0x1e386 <__trunctfdf2+0x1b4>
   1e338: b3 e7 16 01  	or	a5, a3, a7
   1e33c: 81 45        	li	a1, 0x0
   1e33e: 01 e7        	bnez	a4, 0x1e346 <__trunctfdf2+0x174>
   1e340: 91 df        	beqz	a5, 0x1e25c <__trunctfdf2+0x8a>
   1e342: 85 47        	li	a5, 0x1
   1e344: 69 b7        	j	0x1e2ce <__trunctfdf2+0xfc>
   1e346: e9 c3        	beqz	a5, 0x1e408 <__trunctfdf2+0x236>
   1e348: 63 18 67 00  	bne	a4, t1, 0x1e358 <__trunctfdf2+0x186>
   1e34c: 93 d5 26 03  	srli	a1, a3, 0x32
   1e350: 93 c5 15 00  	xori	a1, a1, 0x1
   1e354: 9b 95 45 00  	slliw	a1, a1, 0x4
   1e358: 93 d7 c8 03  	srli	a5, a7, 0x3c
   1e35c: 92 06        	slli	a3, a3, 0x4
   1e35e: dd 8e        	or	a3, a3, a5
   1e360: 85 47        	li	a5, 0x1
   1e362: 8d 82        	srli	a3, a3, 0x3
   1e364: ce 17        	slli	a5, a5, 0x33
   1e366: d5 8f        	or	a5, a5, a3
   1e368: c5 c3        	beqz	a5, 0x1e408 <__trunctfdf2+0x236>
   1e36a: 85 47        	li	a5, 0x1
   1e36c: 01 46        	li	a2, 0x0
   1e36e: 13 07 f0 7f  	li	a4, 0x7ff
   1e372: ce 17        	slli	a5, a5, 0x33
   1e374: e5 b5        	j	0x1e25c <__trunctfdf2+0x8a>
   1e376: 15 e2        	bnez	a2, 0x1e39a <__trunctfdf2+0x1c8>
   1e378: a1 06        	addi	a3, a3, 0x8
   1e37a: e1 92        	srli	a3, a3, 0x38
   1e37c: 85 8a        	andi	a3, a3, 0x1
   1e37e: 93 c6 16 00  	xori	a3, a3, 0x1
   1e382: 01 47        	li	a4, 0x0
   1e384: 85 45        	li	a1, 0x1
   1e386: 13 f5 77 00  	andi	a0, a5, 0x7
   1e38a: e3 0e 05 ea  	beqz	a0, 0x1e246 <__trunctfdf2+0x74>
   1e38e: 89 45        	li	a1, 0x2
   1e390: 63 00 b8 02  	beq	a6, a1, 0x1e3b0 <__trunctfdf2+0x1de>
   1e394: 85 45        	li	a1, 0x1
   1e396: 69 bd        	j	0x1e230 <__trunctfdf2+0x5e>
   1e398: 65 f2        	bnez	a2, 0x1e378 <__trunctfdf2+0x1a6>
   1e39a: 85 46        	li	a3, 0x1
   1e39c: 01 47        	li	a4, 0x0
   1e39e: b6 85        	mv	a1, a3
   1e3a0: dd b7        	j	0x1e386 <__trunctfdf2+0x1b4>
   1e3a2: 01 47        	li	a4, 0x0
   1e3a4: 85 46        	li	a3, 0x1
   1e3a6: 79 b7        	j	0x1e334 <__trunctfdf2+0x162>
   1e3a8: e3 1f 06 e8  	bnez	a2, 0x1e246 <__trunctfdf2+0x74>
   1e3ac: a1 07        	addi	a5, a5, 0x8
   1e3ae: 61 bd        	j	0x1e246 <__trunctfdf2+0x74>
   1e3b0: 85 45        	li	a1, 0x1
   1e3b2: c9 bd        	j	0x1e284 <__trunctfdf2+0xb2>
   1e3b4: 2e 87        	mv	a4, a1
   1e3b6: 95 45        	li	a1, 0x5
   1e3b8: 69 bd        	j	0x1e252 <__trunctfdf2+0x80>
   1e3ba: 05 07        	addi	a4, a4, 0x1
   1e3bc: 93 06 f0 7f  	li	a3, 0x7ff
   1e3c0: 63 09 d7 00  	beq	a4, a3, 0x1e3d2 <__trunctfdf2+0x200>
   1e3c4: 93 06 f0 1f  	li	a3, 0x1ff
   1e3c8: d2 16        	slli	a3, a3, 0x34
   1e3ca: 8d 83        	srli	a5, a5, 0x3
   1e3cc: fd 16        	addi	a3, a3, -0x1
   1e3ce: f5 8f        	and	a5, a5, a3
   1e3d0: 71 b5        	j	0x1e25c <__trunctfdf2+0x8a>
   1e3d2: 81 47        	li	a5, 0x0
   1e3d4: 63 0e 08 00  	beqz	a6, 0x1e3f0 <__trunctfdf2+0x21e>
   1e3d8: 8d 46        	li	a3, 0x3
   1e3da: 63 17 d8 00  	bne	a6, a3, 0x1e3e8 <__trunctfdf2+0x216>
   1e3de: 09 ca        	beqz	a2, 0x1e3f0 <__trunctfdf2+0x21e>
   1e3e0: fd 57        	li	a5, -0x1
   1e3e2: 13 07 e0 7f  	li	a4, 0x7fe
   1e3e6: 29 a0        	j	0x1e3f0 <__trunctfdf2+0x21e>
   1e3e8: 89 46        	li	a3, 0x2
   1e3ea: e3 1b d8 fe  	bne	a6, a3, 0x1e3e0 <__trunctfdf2+0x20e>
   1e3ee: 6d da        	beqz	a2, 0x1e3e0 <__trunctfdf2+0x20e>
   1e3f0: 93 06 f0 7f  	li	a3, 0x7ff
   1e3f4: 93 e5 55 00  	ori	a1, a1, 0x5
   1e3f8: 8d 83        	srli	a5, a5, 0x3
   1e3fa: e3 07 d7 f6  	beq	a4, a3, 0x1e368 <__trunctfdf2+0x196>
   1e3fe: 13 07 e0 7f  	li	a4, 0x7fe
   1e402: a9 bd        	j	0x1e25c <__trunctfdf2+0x8a>
   1e404: 81 47        	li	a5, 0x0
   1e406: 95 45        	li	a1, 0x5
   1e408: 13 07 f0 7f  	li	a4, 0x7ff
   1e40c: 81 bd        	j	0x1e25c <__trunctfdf2+0x8a>

000000000001e40e <__clzdi2>:
   1e40e: 93 07 80 03  	li	a5, 0x38
   1e412: 33 57 f5 00  	srl	a4, a0, a5
   1e416: 93 76 f7 0f  	andi	a3, a4, 0xff
   1e41a: 8d e2        	bnez	a3, 0x1e43c <__clzdi2+0x2e>
   1e41c: e1 17        	addi	a5, a5, -0x8
   1e41e: f5 fb        	bnez	a5, 0x1e412 <__clzdi2+0x4>
   1e420: 13 07 00 04  	li	a4, 0x40
   1e424: b3 07 f7 40  	sub	a5, a4, a5
   1e428: 17 17 00 00  	auipc	a4, 0x1
   1e42c: 13 07 07 ca  	addi	a4, a4, -0x360
   1e430: 2a 97        	add	a4, a4, a0
   1e432: 03 45 07 00  	lbu	a0, 0x0(a4)
   1e436: 3b 85 a7 40  	subw	a0, a5, a0
   1e43a: 82 80        	ret
   1e43c: 3a 85        	mv	a0, a4
   1e43e: cd b7        	j	0x1e420 <__clzdi2+0x12>
